; Listing generated by Microsoft (R) Optimizing Compiler Version 19.44.35215.0 

	TITLE	C:\EzAntiAntiCheat\EzAntiAntiCheat\Release\DriverComm.obj
	.686P
	.XMM
	include listing.inc
	.model	flat

INCLUDELIB LIBCMT
INCLUDELIB OLDNAMES

PUBLIC	__Avx2WmemEnabledWeakValue
;	COMDAT __Avx2WmemEnabledWeakValue
_BSS	SEGMENT
__Avx2WmemEnabledWeakValue DD 01H DUP (?)
_BSS	ENDS
PUBLIC	___local_stdio_printf_options
PUBLIC	_sprintf_s
PUBLIC	??0exception@std@@QAE@ABV01@@Z			; std::exception::exception
PUBLIC	??1exception@std@@UAE@XZ			; std::exception::~exception
PUBLIC	?what@exception@std@@UBEPBDXZ			; std::exception::what
PUBLIC	??_Gexception@std@@UAEPAXI@Z			; std::exception::`scalar deleting destructor'
PUBLIC	??0bad_alloc@std@@QAE@ABV01@@Z			; std::bad_alloc::bad_alloc
PUBLIC	??_Gbad_alloc@std@@UAEPAXI@Z			; std::bad_alloc::`scalar deleting destructor'
PUBLIC	??0bad_array_new_length@std@@QAE@XZ		; std::bad_array_new_length::bad_array_new_length
PUBLIC	??1bad_array_new_length@std@@UAE@XZ		; std::bad_array_new_length::~bad_array_new_length
PUBLIC	??0bad_array_new_length@std@@QAE@ABV01@@Z	; std::bad_array_new_length::bad_array_new_length
PUBLIC	??_Gbad_array_new_length@std@@UAEPAXI@Z		; std::bad_array_new_length::`scalar deleting destructor'
PUBLIC	?_Throw_bad_array_new_length@std@@YAXXZ		; std::_Throw_bad_array_new_length
PUBLIC	?_Xlen_string@std@@YAXXZ			; std::_Xlen_string
PUBLIC	?_Xran@?$_String_val@U?$_Simple_types@D@std@@@std@@SAXXZ ; std::_String_val<std::_Simple_types<char> >::_Xran
PUBLIC	??0?$basic_string@DU?$char_traits@D@std@@V?$allocator@D@2@@std@@QAE@ID@Z ; std::basic_string<char,std::char_traits<char>,std::allocator<char> >::basic_string<char,std::char_traits<char>,std::allocator<char> >
PUBLIC	??1?$basic_string@DU?$char_traits@D@std@@V?$allocator@D@2@@std@@QAE@XZ ; std::basic_string<char,std::char_traits<char>,std::allocator<char> >::~basic_string<char,std::char_traits<char>,std::allocator<char> >
PUBLIC	?append@?$basic_string@DU?$char_traits@D@std@@V?$allocator@D@2@@std@@QAEAAV12@QBDI@Z ; std::basic_string<char,std::char_traits<char>,std::allocator<char> >::append
PUBLIC	?append@?$basic_string@DU?$char_traits@D@std@@V?$allocator@D@2@@std@@QAEAAV12@ID@Z ; std::basic_string<char,std::char_traits<char>,std::allocator<char> >::append
PUBLIC	?insert@?$basic_string@DU?$char_traits@D@std@@V?$allocator@D@2@@std@@QAEAAV12@IID@Z ; std::basic_string<char,std::char_traits<char>,std::allocator<char> >::insert
PUBLIC	?_Tidy_deallocate@?$basic_string@DU?$char_traits@D@std@@V?$allocator@D@2@@std@@AAEXXZ ; std::basic_string<char,std::char_traits<char>,std::allocator<char> >::_Tidy_deallocate
PUBLIC	??0runtime_error@std@@QAE@ABV01@@Z		; std::runtime_error::runtime_error
PUBLIC	??_Gruntime_error@std@@UAEPAXI@Z		; std::runtime_error::`scalar deleting destructor'
PUBLIC	??1error_category@std@@UAE@XZ			; std::error_category::~error_category
PUBLIC	?default_error_condition@error_category@std@@UBE?AVerror_condition@2@H@Z ; std::error_category::default_error_condition
PUBLIC	?equivalent@error_category@std@@UBE_NHABVerror_condition@2@@Z ; std::error_category::equivalent
PUBLIC	?equivalent@error_category@std@@UBE_NABVerror_code@2@H@Z ; std::error_category::equivalent
PUBLIC	?make_error_code@std@@YA?AVerror_code@1@W4io_errc@1@@Z ; std::make_error_code
PUBLIC	??0_System_error@std@@IAE@Verror_code@1@ABV?$basic_string@DU?$char_traits@D@std@@V?$allocator@D@2@@1@@Z ; std::_System_error::_System_error
PUBLIC	??0_System_error@std@@QAE@ABV01@@Z		; std::_System_error::_System_error
PUBLIC	??_G_System_error@std@@UAEPAXI@Z		; std::_System_error::`scalar deleting destructor'
PUBLIC	??1system_error@std@@UAE@XZ			; std::system_error::~system_error
PUBLIC	??0system_error@std@@QAE@ABV01@@Z		; std::system_error::system_error
PUBLIC	??_Gsystem_error@std@@UAEPAXI@Z			; std::system_error::`scalar deleting destructor'
PUBLIC	?name@_Iostream_error_category2@std@@UBEPBDXZ	; std::_Iostream_error_category2::name
PUBLIC	?message@_Iostream_error_category2@std@@UBE?AV?$basic_string@DU?$char_traits@D@std@@V?$allocator@D@2@@2@H@Z ; std::_Iostream_error_category2::message
PUBLIC	??_G_Iostream_error_category2@std@@UAEPAXI@Z	; std::_Iostream_error_category2::`scalar deleting destructor'
PUBLIC	??$_Immortalize_memcpy_image@V_Iostream_error_category2@std@@@std@@YAABV_Iostream_error_category2@0@XZ ; std::_Immortalize_memcpy_image<std::_Iostream_error_category2>
PUBLIC	??1bad_cast@std@@UAE@XZ				; std::bad_cast::~bad_cast
PUBLIC	??0bad_cast@std@@QAE@ABV01@@Z			; std::bad_cast::bad_cast
PUBLIC	??_Gbad_cast@std@@UAEPAXI@Z			; std::bad_cast::`scalar deleting destructor'
PUBLIC	??1_Facet_base@std@@UAE@XZ			; std::_Facet_base::~_Facet_base
PUBLIC	??_G_Facet_base@std@@UAEPAXI@Z			; std::_Facet_base::`scalar deleting destructor'
PUBLIC	??0_Locinfo@std@@QAE@PBD@Z			; std::_Locinfo::_Locinfo
PUBLIC	??1_Locinfo@std@@QAE@XZ				; std::_Locinfo::~_Locinfo
PUBLIC	??1?$_Yarn@D@std@@QAE@XZ			; std::_Yarn<char>::~_Yarn<char>
PUBLIC	??1?$_Yarn@_W@std@@QAE@XZ			; std::_Yarn<wchar_t>::~_Yarn<wchar_t>
PUBLIC	?_Incref@facet@locale@std@@UAEXXZ		; std::locale::facet::_Incref
PUBLIC	?_Decref@facet@locale@std@@UAEPAV_Facet_base@3@XZ ; std::locale::facet::_Decref
PUBLIC	??1facet@locale@std@@MAE@XZ			; std::locale::facet::~facet
PUBLIC	??_Gfacet@locale@std@@MAEPAXI@Z			; std::locale::facet::`scalar deleting destructor'
PUBLIC	??1locale@std@@QAE@XZ				; std::locale::~locale
PUBLIC	??1ctype_base@std@@UAE@XZ			; std::ctype_base::~ctype_base
PUBLIC	??_Gctype_base@std@@UAEPAXI@Z			; std::ctype_base::`scalar deleting destructor'
PUBLIC	??1?$ctype@D@std@@MAE@XZ			; std::ctype<char>::~ctype<char>
PUBLIC	?do_tolower@?$ctype@D@std@@MBEDD@Z		; std::ctype<char>::do_tolower
PUBLIC	?do_tolower@?$ctype@D@std@@MBEPBDPADPBD@Z	; std::ctype<char>::do_tolower
PUBLIC	?do_toupper@?$ctype@D@std@@MBEDD@Z		; std::ctype<char>::do_toupper
PUBLIC	?do_toupper@?$ctype@D@std@@MBEPBDPADPBD@Z	; std::ctype<char>::do_toupper
PUBLIC	?do_widen@?$ctype@D@std@@MBEDD@Z		; std::ctype<char>::do_widen
PUBLIC	?do_widen@?$ctype@D@std@@MBEPBDPBD0PAD@Z	; std::ctype<char>::do_widen
PUBLIC	?do_narrow@?$ctype@D@std@@MBEDDD@Z		; std::ctype<char>::do_narrow
PUBLIC	?do_narrow@?$ctype@D@std@@MBEPBDPBD0DPAD@Z	; std::ctype<char>::do_narrow
PUBLIC	??_G?$ctype@D@std@@MAEPAXI@Z			; std::ctype<char>::`scalar deleting destructor'
PUBLIC	??$use_facet@V?$ctype@D@std@@@std@@YAABV?$ctype@D@0@ABVlocale@0@@Z ; std::use_facet<std::ctype<char> >
PUBLIC	??0failure@ios_base@std@@QAE@PBDABVerror_code@2@@Z ; std::ios_base::failure::failure
PUBLIC	??1failure@ios_base@std@@UAE@XZ			; std::ios_base::failure::~failure
PUBLIC	??0failure@ios_base@std@@QAE@ABV012@@Z		; std::ios_base::failure::failure
PUBLIC	??_Gfailure@ios_base@std@@UAEPAXI@Z		; std::ios_base::failure::`scalar deleting destructor'
PUBLIC	?clear@ios_base@std@@QAEXH_N@Z			; std::ios_base::clear
PUBLIC	?SendIoctl@@YA_NKPAXK@Z				; SendIoctl
PUBLIC	?setstate@?$basic_ios@DU?$char_traits@D@std@@@std@@QAEXH_N@Z ; std::basic_ios<char,std::char_traits<char> >::setstate
PUBLIC	?_Osfx@?$basic_ostream@DU?$char_traits@D@std@@@std@@QAEXXZ ; std::basic_ostream<char,std::char_traits<char> >::_Osfx
PUBLIC	??6?$basic_ostream@DU?$char_traits@D@std@@@std@@QAEAAV01@K@Z ; std::basic_ostream<char,std::char_traits<char> >::operator<<
PUBLIC	?flush@?$basic_ostream@DU?$char_traits@D@std@@@std@@QAEAAV12@XZ ; std::basic_ostream<char,std::char_traits<char> >::flush
PUBLIC	??$?6U?$char_traits@D@std@@@std@@YAAAV?$basic_ostream@DU?$char_traits@D@std@@@0@AAV10@PBD@Z ; std::operator<<<std::char_traits<char> >
PUBLIC	??1?$unique_ptr@V_Facet_base@std@@U?$default_delete@V_Facet_base@std@@@2@@std@@QAE@XZ ; std::unique_ptr<std::_Facet_base,std::default_delete<std::_Facet_base> >::~unique_ptr<std::_Facet_base,std::default_delete<std::_Facet_base> >
PUBLIC	??1_Sentry_base@?$basic_ostream@DU?$char_traits@D@std@@@std@@QAE@XZ ; std::basic_ostream<char,std::char_traits<char> >::_Sentry_base::~_Sentry_base
PUBLIC	??0sentry@?$basic_ostream@DU?$char_traits@D@std@@@std@@QAE@AAV12@@Z ; std::basic_ostream<char,std::char_traits<char> >::sentry::sentry
PUBLIC	??1sentry@?$basic_ostream@DU?$char_traits@D@std@@@std@@QAE@XZ ; std::basic_ostream<char,std::char_traits<char> >::sentry::~sentry
PUBLIC	??$_Construct@$00PBD@?$basic_string@DU?$char_traits@D@std@@V?$allocator@D@2@@std@@AAEXQBDI@Z ; std::basic_string<char,std::char_traits<char>,std::allocator<char> >::_Construct<1,char const *>
PUBLIC	??$use_facet@V?$num_put@DV?$ostreambuf_iterator@DU?$char_traits@D@std@@@std@@@std@@@std@@YAABV?$num_put@DV?$ostreambuf_iterator@DU?$char_traits@D@std@@@std@@@0@ABVlocale@0@@Z ; std::use_facet<std::num_put<char,std::ostreambuf_iterator<char,std::char_traits<char> > > >
PUBLIC	??1?$num_put@DV?$ostreambuf_iterator@DU?$char_traits@D@std@@@std@@@std@@MAE@XZ ; std::num_put<char,std::ostreambuf_iterator<char,std::char_traits<char> > >::~num_put<char,std::ostreambuf_iterator<char,std::char_traits<char> > >
PUBLIC	?do_put@?$num_put@DV?$ostreambuf_iterator@DU?$char_traits@D@std@@@std@@@std@@MBE?AV?$ostreambuf_iterator@DU?$char_traits@D@std@@@2@V32@AAVios_base@2@D_N@Z ; std::num_put<char,std::ostreambuf_iterator<char,std::char_traits<char> > >::do_put
PUBLIC	?do_put@?$num_put@DV?$ostreambuf_iterator@DU?$char_traits@D@std@@@std@@@std@@MBE?AV?$ostreambuf_iterator@DU?$char_traits@D@std@@@2@V32@AAVios_base@2@DJ@Z ; std::num_put<char,std::ostreambuf_iterator<char,std::char_traits<char> > >::do_put
PUBLIC	?do_put@?$num_put@DV?$ostreambuf_iterator@DU?$char_traits@D@std@@@std@@@std@@MBE?AV?$ostreambuf_iterator@DU?$char_traits@D@std@@@2@V32@AAVios_base@2@DK@Z ; std::num_put<char,std::ostreambuf_iterator<char,std::char_traits<char> > >::do_put
PUBLIC	?do_put@?$num_put@DV?$ostreambuf_iterator@DU?$char_traits@D@std@@@std@@@std@@MBE?AV?$ostreambuf_iterator@DU?$char_traits@D@std@@@2@V32@AAVios_base@2@D_J@Z ; std::num_put<char,std::ostreambuf_iterator<char,std::char_traits<char> > >::do_put
PUBLIC	?do_put@?$num_put@DV?$ostreambuf_iterator@DU?$char_traits@D@std@@@std@@@std@@MBE?AV?$ostreambuf_iterator@DU?$char_traits@D@std@@@2@V32@AAVios_base@2@D_K@Z ; std::num_put<char,std::ostreambuf_iterator<char,std::char_traits<char> > >::do_put
PUBLIC	?do_put@?$num_put@DV?$ostreambuf_iterator@DU?$char_traits@D@std@@@std@@@std@@MBE?AV?$ostreambuf_iterator@DU?$char_traits@D@std@@@2@V32@AAVios_base@2@DN@Z ; std::num_put<char,std::ostreambuf_iterator<char,std::char_traits<char> > >::do_put
PUBLIC	?do_put@?$num_put@DV?$ostreambuf_iterator@DU?$char_traits@D@std@@@std@@@std@@MBE?AV?$ostreambuf_iterator@DU?$char_traits@D@std@@@2@V32@AAVios_base@2@DO@Z ; std::num_put<char,std::ostreambuf_iterator<char,std::char_traits<char> > >::do_put
PUBLIC	?do_put@?$num_put@DV?$ostreambuf_iterator@DU?$char_traits@D@std@@@std@@@std@@MBE?AV?$ostreambuf_iterator@DU?$char_traits@D@std@@@2@V32@AAVios_base@2@DPBX@Z ; std::num_put<char,std::ostreambuf_iterator<char,std::char_traits<char> > >::do_put
PUBLIC	?_Ffmt@?$num_put@DV?$ostreambuf_iterator@DU?$char_traits@D@std@@@std@@@std@@ABAPADPADDH@Z ; std::num_put<char,std::ostreambuf_iterator<char,std::char_traits<char> > >::_Ffmt
PUBLIC	?_Iput@?$num_put@DV?$ostreambuf_iterator@DU?$char_traits@D@std@@@std@@@std@@ABA?AV?$ostreambuf_iterator@DU?$char_traits@D@std@@@2@V32@AAVios_base@2@DPADI@Z ; std::num_put<char,std::ostreambuf_iterator<char,std::char_traits<char> > >::_Iput
PUBLIC	?_Put@?$num_put@DV?$ostreambuf_iterator@DU?$char_traits@D@std@@@std@@@std@@ABA?AV?$ostreambuf_iterator@DU?$char_traits@D@std@@@2@V32@PBDI@Z ; std::num_put<char,std::ostreambuf_iterator<char,std::char_traits<char> > >::_Put
PUBLIC	?_Rep@?$num_put@DV?$ostreambuf_iterator@DU?$char_traits@D@std@@@std@@@std@@ABA?AV?$ostreambuf_iterator@DU?$char_traits@D@std@@@2@V32@DI@Z ; std::num_put<char,std::ostreambuf_iterator<char,std::char_traits<char> > >::_Rep
PUBLIC	??_G?$num_put@DV?$ostreambuf_iterator@DU?$char_traits@D@std@@@std@@@std@@MAEPAXI@Z ; std::num_put<char,std::ostreambuf_iterator<char,std::char_traits<char> > >::`scalar deleting destructor'
PUBLIC	??$_Float_put_desired_precision@O@std@@YAH_JH@Z	; std::_Float_put_desired_precision<long double>
PUBLIC	??$_Fput_v3@$0A@@?$num_put@DV?$ostreambuf_iterator@DU?$char_traits@D@std@@@std@@@std@@ABE?AV?$ostreambuf_iterator@DU?$char_traits@D@std@@@1@V21@AAVios_base@1@DPBDI_N@Z ; std::num_put<char,std::ostreambuf_iterator<char,std::char_traits<char> > >::_Fput_v3<0>
PUBLIC	??$_Float_put_desired_precision@N@std@@YAH_JH@Z	; std::_Float_put_desired_precision<double>
PUBLIC	??$use_facet@V?$numpunct@D@std@@@std@@YAABV?$numpunct@D@0@ABVlocale@0@@Z ; std::use_facet<std::numpunct<char> >
PUBLIC	??1?$numpunct@D@std@@MAE@XZ			; std::numpunct<char>::~numpunct<char>
PUBLIC	?do_decimal_point@?$numpunct@D@std@@MBEDXZ	; std::numpunct<char>::do_decimal_point
PUBLIC	?do_thousands_sep@?$numpunct@D@std@@MBEDXZ	; std::numpunct<char>::do_thousands_sep
PUBLIC	?do_grouping@?$numpunct@D@std@@MBE?AV?$basic_string@DU?$char_traits@D@std@@V?$allocator@D@2@@2@XZ ; std::numpunct<char>::do_grouping
PUBLIC	?do_falsename@?$numpunct@D@std@@MBE?AV?$basic_string@DU?$char_traits@D@std@@V?$allocator@D@2@@2@XZ ; std::numpunct<char>::do_falsename
PUBLIC	?do_truename@?$numpunct@D@std@@MBE?AV?$basic_string@DU?$char_traits@D@std@@V?$allocator@D@2@@2@XZ ; std::numpunct<char>::do_truename
PUBLIC	??_G?$numpunct@D@std@@MAEPAXI@Z			; std::numpunct<char>::`scalar deleting destructor'
PUBLIC	??$_Allocate@$07U_Default_allocate_traits@std@@@std@@YAPAXI@Z ; std::_Allocate<8,std::_Default_allocate_traits>
PUBLIC	??$_Allocate_manually_vector_aligned@U_Default_allocate_traits@std@@@std@@YAPAXI@Z ; std::_Allocate_manually_vector_aligned<std::_Default_allocate_traits>
PUBLIC	??1?$_Tidy_guard@V?$numpunct@D@std@@@std@@QAE@XZ ; std::_Tidy_guard<std::numpunct<char> >::~_Tidy_guard<std::numpunct<char> >
PUBLIC	??$_Maklocstr@D@std@@YAPADPBDPADABU_Cvtvec@@@Z	; std::_Maklocstr<char>
PUBLIC	??$_Maklocchr@D@std@@YADDPADABU_Cvtvec@@@Z	; std::_Maklocchr<char>
PUBLIC	?_OptionsStorage@?1??__local_stdio_printf_options@@9@4_KA ; `__local_stdio_printf_options'::`2'::_OptionsStorage
PUBLIC	??_7exception@std@@6B@				; std::exception::`vftable'
PUBLIC	??_C@_0BC@EOODALEL@Unknown?5exception@		; `string'
PUBLIC	??_7bad_alloc@std@@6B@				; std::bad_alloc::`vftable'
PUBLIC	??_7bad_array_new_length@std@@6B@		; std::bad_array_new_length::`vftable'
PUBLIC	??_C@_0BF@KINCDENJ@bad?5array?5new?5length@	; `string'
PUBLIC	??_R0?AVexception@std@@@8			; std::exception `RTTI Type Descriptor'
PUBLIC	__CT??_R0?AVexception@std@@@8??0exception@std@@QAE@ABV01@@Z12
PUBLIC	__TI3?AVbad_array_new_length@std@@
PUBLIC	__CTA3?AVbad_array_new_length@std@@
PUBLIC	??_R0?AVbad_array_new_length@std@@@8		; std::bad_array_new_length `RTTI Type Descriptor'
PUBLIC	__CT??_R0?AVbad_array_new_length@std@@@8??0bad_array_new_length@std@@QAE@ABV01@@Z12
PUBLIC	??_R0?AVbad_alloc@std@@@8			; std::bad_alloc `RTTI Type Descriptor'
PUBLIC	__CT??_R0?AVbad_alloc@std@@@8??0bad_alloc@std@@QAE@ABV01@@Z12
PUBLIC	??_C@_0BA@JFNIOLAK@string?5too?5long@		; `string'
PUBLIC	??_7runtime_error@std@@6B@			; std::runtime_error::`vftable'
PUBLIC	??_R0?AVruntime_error@std@@@8			; std::runtime_error `RTTI Type Descriptor'
PUBLIC	__CT??_R0?AVruntime_error@std@@@8??0runtime_error@std@@QAE@ABV01@@Z12
PUBLIC	??_7_System_error@std@@6B@			; std::_System_error::`vftable'
PUBLIC	??_C@_02LMMGGCAJ@?3?5@				; `string'
PUBLIC	??_7system_error@std@@6B@			; std::system_error::`vftable'
PUBLIC	??_R0?AVsystem_error@std@@@8			; std::system_error `RTTI Type Descriptor'
PUBLIC	__CT??_R0?AVsystem_error@std@@@8??0system_error@std@@QAE@ABV01@@Z20
PUBLIC	??_R0?AV_System_error@std@@@8			; std::_System_error `RTTI Type Descriptor'
PUBLIC	__CT??_R0?AV_System_error@std@@@8??0_System_error@std@@QAE@ABV01@@Z20
PUBLIC	??_7_Iostream_error_category2@std@@6B@		; std::_Iostream_error_category2::`vftable'
PUBLIC	??_C@_08LLGCOLLL@iostream@			; `string'
PUBLIC	?_Iostream_error@?4??message@_Iostream_error_category2@std@@UBE?AV?$basic_string@DU?$char_traits@D@std@@V?$allocator@D@2@@3@H@Z@4QBDB ; `std::_Iostream_error_category2::message'::`5'::_Iostream_error
PUBLIC	??_7bad_cast@std@@6B@				; std::bad_cast::`vftable'
PUBLIC	??_C@_08EPJLHIJG@bad?5cast@			; `string'
PUBLIC	__TI2?AVbad_cast@std@@
PUBLIC	__CTA2?AVbad_cast@std@@
PUBLIC	??_R0?AVbad_cast@std@@@8			; std::bad_cast `RTTI Type Descriptor'
PUBLIC	__CT??_R0?AVbad_cast@std@@@8??0bad_cast@std@@QAE@ABV01@@Z12
PUBLIC	??_7_Facet_base@std@@6B@			; std::_Facet_base::`vftable'
PUBLIC	??_C@_0BA@ELKIONDK@bad?5locale?5name@		; `string'
PUBLIC	??_C@_05LAPONLG@false@				; `string'
PUBLIC	??_C@_04LOAJBDKD@true@				; `string'
PUBLIC	??_7facet@locale@std@@6B@			; std::locale::facet::`vftable'
PUBLIC	??_C@_00CNPNBAHC@@				; `string'
PUBLIC	??_7ctype_base@std@@6B@				; std::ctype_base::`vftable'
PUBLIC	??_7?$ctype@D@std@@6B@				; std::ctype<char>::`vftable'
PUBLIC	??_7failure@ios_base@std@@6B@			; std::ios_base::failure::`vftable'
PUBLIC	??_C@_0BF@PHHKMMFD@ios_base?3?3badbit?5set@	; `string'
PUBLIC	??_C@_0BG@FMKFHCIL@ios_base?3?3failbit?5set@	; `string'
PUBLIC	??_C@_0BF@OOHOMBOF@ios_base?3?3eofbit?5set@	; `string'
PUBLIC	__TI5?AVfailure@ios_base@std@@
PUBLIC	__CTA5?AVfailure@ios_base@std@@
PUBLIC	??_R0?AVfailure@ios_base@std@@@8		; std::ios_base::failure `RTTI Type Descriptor'
PUBLIC	__CT??_R0?AVfailure@ios_base@std@@@8??0failure@ios_base@std@@QAE@ABV012@@Z20
PUBLIC	??_C@_1EI@LABCAMFO@?$AA?2?$AA?2?$AA?4?$AA?2?$AAE?$AAz?$AAA?$AAn?$AAt?$AAi?$AAA?$AAn?$AAt?$AAi?$AAC@ ; `string'
PUBLIC	??_C@_01EEMJAFIK@?6@				; `string'
PUBLIC	??_C@_0BP@KAKKMLPM@Failed?5to?5open?5driver?5device?3?5@ ; `string'
PUBLIC	?_Static@?1???$_Immortalize_memcpy_image@V_Iostream_error_category2@std@@@std@@YAABV_Iostream_error_category2@1@XZ@4U?$_Constexpr_immortalize_impl@V_Iostream_error_category2@std@@@1@A ; `std::_Immortalize_memcpy_image<std::_Iostream_error_category2>'::`2'::_Static
PUBLIC	?_Psave@?$_Facetptr@V?$ctype@D@std@@@std@@2PBVfacet@locale@2@B ; std::_Facetptr<std::ctype<char> >::_Psave
PUBLIC	?id@?$num_put@DV?$ostreambuf_iterator@DU?$char_traits@D@std@@@std@@@std@@2V0locale@2@A ; std::num_put<char,std::ostreambuf_iterator<char,std::char_traits<char> > >::id
PUBLIC	??_7?$num_put@DV?$ostreambuf_iterator@DU?$char_traits@D@std@@@std@@@std@@6B@ ; std::num_put<char,std::ostreambuf_iterator<char,std::char_traits<char> > >::`vftable'
PUBLIC	?_Psave@?$_Facetptr@V?$num_put@DV?$ostreambuf_iterator@DU?$char_traits@D@std@@@std@@@std@@@std@@2PBVfacet@locale@2@B ; std::_Facetptr<std::num_put<char,std::ostreambuf_iterator<char,std::char_traits<char> > > >::_Psave
PUBLIC	??_C@_02BBAHNLBA@?$CFp@				; `string'
PUBLIC	??_C@_02CLHGNPPK@Lu@				; `string'
PUBLIC	??_C@_02HIKPPMOK@Ld@				; `string'
PUBLIC	??_C@_02BDDLJJBK@lu@				; `string'
PUBLIC	??_C@_02EAOCLKAK@ld@				; `string'
PUBLIC	?id@?$numpunct@D@std@@2V0locale@2@A		; std::numpunct<char>::id
PUBLIC	??_7?$numpunct@D@std@@6B@			; std::numpunct<char>::`vftable'
PUBLIC	??_C@_02MDKMJEGG@eE@				; `string'
PUBLIC	??_C@_02OOPEBDOJ@pP@				; `string'
PUBLIC	??_C@_01LFCBOECM@?4@				; `string'
PUBLIC	?_Psave@?$_Facetptr@V?$numpunct@D@std@@@std@@2PBVfacet@locale@2@B ; std::_Facetptr<std::numpunct<char> >::_Psave
PUBLIC	??_C@_0BI@CFPLBAOH@invalid?5string?5position@	; `string'
PUBLIC	??_R4exception@std@@6B@				; std::exception::`RTTI Complete Object Locator'
PUBLIC	??_R3exception@std@@8				; std::exception::`RTTI Class Hierarchy Descriptor'
PUBLIC	??_R2exception@std@@8				; std::exception::`RTTI Base Class Array'
PUBLIC	??_R1A@?0A@EA@exception@std@@8			; std::exception::`RTTI Base Class Descriptor at (0,-1,0,64)'
PUBLIC	??_R4bad_array_new_length@std@@6B@		; std::bad_array_new_length::`RTTI Complete Object Locator'
PUBLIC	??_R3bad_array_new_length@std@@8		; std::bad_array_new_length::`RTTI Class Hierarchy Descriptor'
PUBLIC	??_R2bad_array_new_length@std@@8		; std::bad_array_new_length::`RTTI Base Class Array'
PUBLIC	??_R1A@?0A@EA@bad_array_new_length@std@@8	; std::bad_array_new_length::`RTTI Base Class Descriptor at (0,-1,0,64)'
PUBLIC	??_R1A@?0A@EA@bad_alloc@std@@8			; std::bad_alloc::`RTTI Base Class Descriptor at (0,-1,0,64)'
PUBLIC	??_R3bad_alloc@std@@8				; std::bad_alloc::`RTTI Class Hierarchy Descriptor'
PUBLIC	??_R2bad_alloc@std@@8				; std::bad_alloc::`RTTI Base Class Array'
PUBLIC	??_R4bad_alloc@std@@6B@				; std::bad_alloc::`RTTI Complete Object Locator'
PUBLIC	??_R4runtime_error@std@@6B@			; std::runtime_error::`RTTI Complete Object Locator'
PUBLIC	??_R3runtime_error@std@@8			; std::runtime_error::`RTTI Class Hierarchy Descriptor'
PUBLIC	??_R2runtime_error@std@@8			; std::runtime_error::`RTTI Base Class Array'
PUBLIC	??_R1A@?0A@EA@runtime_error@std@@8		; std::runtime_error::`RTTI Base Class Descriptor at (0,-1,0,64)'
PUBLIC	??_R0?AVerror_category@std@@@8			; std::error_category `RTTI Type Descriptor'
PUBLIC	??_R3error_category@std@@8			; std::error_category::`RTTI Class Hierarchy Descriptor'
PUBLIC	??_R2error_category@std@@8			; std::error_category::`RTTI Base Class Array'
PUBLIC	??_R1A@?0A@EA@error_category@std@@8		; std::error_category::`RTTI Base Class Descriptor at (0,-1,0,64)'
PUBLIC	??_R4_System_error@std@@6B@			; std::_System_error::`RTTI Complete Object Locator'
PUBLIC	??_R3_System_error@std@@8			; std::_System_error::`RTTI Class Hierarchy Descriptor'
PUBLIC	??_R2_System_error@std@@8			; std::_System_error::`RTTI Base Class Array'
PUBLIC	??_R1A@?0A@EA@_System_error@std@@8		; std::_System_error::`RTTI Base Class Descriptor at (0,-1,0,64)'
PUBLIC	??_R4system_error@std@@6B@			; std::system_error::`RTTI Complete Object Locator'
PUBLIC	??_R3system_error@std@@8			; std::system_error::`RTTI Class Hierarchy Descriptor'
PUBLIC	??_R2system_error@std@@8			; std::system_error::`RTTI Base Class Array'
PUBLIC	??_R1A@?0A@EA@system_error@std@@8		; std::system_error::`RTTI Base Class Descriptor at (0,-1,0,64)'
PUBLIC	??_R4_Iostream_error_category2@std@@6B@		; std::_Iostream_error_category2::`RTTI Complete Object Locator'
PUBLIC	??_R0?AV_Iostream_error_category2@std@@@8	; std::_Iostream_error_category2 `RTTI Type Descriptor'
PUBLIC	??_R3_Iostream_error_category2@std@@8		; std::_Iostream_error_category2::`RTTI Class Hierarchy Descriptor'
PUBLIC	??_R2_Iostream_error_category2@std@@8		; std::_Iostream_error_category2::`RTTI Base Class Array'
PUBLIC	??_R1A@?0A@EA@_Iostream_error_category2@std@@8	; std::_Iostream_error_category2::`RTTI Base Class Descriptor at (0,-1,0,64)'
PUBLIC	??_R4bad_cast@std@@6B@				; std::bad_cast::`RTTI Complete Object Locator'
PUBLIC	??_R3bad_cast@std@@8				; std::bad_cast::`RTTI Class Hierarchy Descriptor'
PUBLIC	??_R2bad_cast@std@@8				; std::bad_cast::`RTTI Base Class Array'
PUBLIC	??_R1A@?0A@EA@bad_cast@std@@8			; std::bad_cast::`RTTI Base Class Descriptor at (0,-1,0,64)'
PUBLIC	??_R4_Facet_base@std@@6B@			; std::_Facet_base::`RTTI Complete Object Locator'
PUBLIC	??_R0?AV_Facet_base@std@@@8			; std::_Facet_base `RTTI Type Descriptor'
PUBLIC	??_R3_Facet_base@std@@8				; std::_Facet_base::`RTTI Class Hierarchy Descriptor'
PUBLIC	??_R2_Facet_base@std@@8				; std::_Facet_base::`RTTI Base Class Array'
PUBLIC	??_R1A@?0A@EA@_Facet_base@std@@8		; std::_Facet_base::`RTTI Base Class Descriptor at (0,-1,0,64)'
PUBLIC	??_R4facet@locale@std@@6B@			; std::locale::facet::`RTTI Complete Object Locator'
PUBLIC	??_R0?AVfacet@locale@std@@@8			; std::locale::facet `RTTI Type Descriptor'
PUBLIC	??_R3facet@locale@std@@8			; std::locale::facet::`RTTI Class Hierarchy Descriptor'
PUBLIC	??_R2facet@locale@std@@8			; std::locale::facet::`RTTI Base Class Array'
PUBLIC	??_R1A@?0A@EA@facet@locale@std@@8		; std::locale::facet::`RTTI Base Class Descriptor at (0,-1,0,64)'
PUBLIC	??_R13?0A@EA@_Crt_new_delete@std@@8		; std::_Crt_new_delete::`RTTI Base Class Descriptor at (4,-1,0,64)'
PUBLIC	??_R0?AU_Crt_new_delete@std@@@8			; std::_Crt_new_delete `RTTI Type Descriptor'
PUBLIC	??_R3_Crt_new_delete@std@@8			; std::_Crt_new_delete::`RTTI Class Hierarchy Descriptor'
PUBLIC	??_R2_Crt_new_delete@std@@8			; std::_Crt_new_delete::`RTTI Base Class Array'
PUBLIC	??_R1A@?0A@EA@_Crt_new_delete@std@@8		; std::_Crt_new_delete::`RTTI Base Class Descriptor at (0,-1,0,64)'
PUBLIC	??_R4ctype_base@std@@6B@			; std::ctype_base::`RTTI Complete Object Locator'
PUBLIC	??_R0?AUctype_base@std@@@8			; std::ctype_base `RTTI Type Descriptor'
PUBLIC	??_R3ctype_base@std@@8				; std::ctype_base::`RTTI Class Hierarchy Descriptor'
PUBLIC	??_R2ctype_base@std@@8				; std::ctype_base::`RTTI Base Class Array'
PUBLIC	??_R1A@?0A@EA@ctype_base@std@@8			; std::ctype_base::`RTTI Base Class Descriptor at (0,-1,0,64)'
PUBLIC	??_R4?$ctype@D@std@@6B@				; std::ctype<char>::`RTTI Complete Object Locator'
PUBLIC	??_R0?AV?$ctype@D@std@@@8			; std::ctype<char> `RTTI Type Descriptor'
PUBLIC	??_R3?$ctype@D@std@@8				; std::ctype<char>::`RTTI Class Hierarchy Descriptor'
PUBLIC	??_R2?$ctype@D@std@@8				; std::ctype<char>::`RTTI Base Class Array'
PUBLIC	??_R1A@?0A@EA@?$ctype@D@std@@8			; std::ctype<char>::`RTTI Base Class Descriptor at (0,-1,0,64)'
PUBLIC	??_R4failure@ios_base@std@@6B@			; std::ios_base::failure::`RTTI Complete Object Locator'
PUBLIC	??_R3failure@ios_base@std@@8			; std::ios_base::failure::`RTTI Class Hierarchy Descriptor'
PUBLIC	??_R2failure@ios_base@std@@8			; std::ios_base::failure::`RTTI Base Class Array'
PUBLIC	??_R1A@?0A@EA@failure@ios_base@std@@8		; std::ios_base::failure::`RTTI Base Class Descriptor at (0,-1,0,64)'
PUBLIC	??_R4?$num_put@DV?$ostreambuf_iterator@DU?$char_traits@D@std@@@std@@@std@@6B@ ; std::num_put<char,std::ostreambuf_iterator<char,std::char_traits<char> > >::`RTTI Complete Object Locator'
PUBLIC	??_R0?AV?$num_put@DV?$ostreambuf_iterator@DU?$char_traits@D@std@@@std@@@std@@@8 ; std::num_put<char,std::ostreambuf_iterator<char,std::char_traits<char> > > `RTTI Type Descriptor'
PUBLIC	??_R3?$num_put@DV?$ostreambuf_iterator@DU?$char_traits@D@std@@@std@@@std@@8 ; std::num_put<char,std::ostreambuf_iterator<char,std::char_traits<char> > >::`RTTI Class Hierarchy Descriptor'
PUBLIC	??_R2?$num_put@DV?$ostreambuf_iterator@DU?$char_traits@D@std@@@std@@@std@@8 ; std::num_put<char,std::ostreambuf_iterator<char,std::char_traits<char> > >::`RTTI Base Class Array'
PUBLIC	??_R1A@?0A@EA@?$num_put@DV?$ostreambuf_iterator@DU?$char_traits@D@std@@@std@@@std@@8 ; std::num_put<char,std::ostreambuf_iterator<char,std::char_traits<char> > >::`RTTI Base Class Descriptor at (0,-1,0,64)'
PUBLIC	??_R4?$numpunct@D@std@@6B@			; std::numpunct<char>::`RTTI Complete Object Locator'
PUBLIC	??_R0?AV?$numpunct@D@std@@@8			; std::numpunct<char> `RTTI Type Descriptor'
PUBLIC	??_R3?$numpunct@D@std@@8			; std::numpunct<char>::`RTTI Class Hierarchy Descriptor'
PUBLIC	??_R2?$numpunct@D@std@@8			; std::numpunct<char>::`RTTI Base Class Array'
PUBLIC	??_R1A@?0A@EA@?$numpunct@D@std@@8		; std::numpunct<char>::`RTTI Base Class Descriptor at (0,-1,0,64)'
PUBLIC	__real@4202a05f20000000
PUBLIC	__xmm@7fffffffffffffff7fffffffffffffff
EXTRN	__purecall:PROC
EXTRN	??2@YAPAXI@Z:PROC				; operator new
EXTRN	??3@YAXPAXI@Z:PROC				; operator delete
EXTRN	??_V@YAXPAX@Z:PROC				; operator delete[]
EXTRN	___std_terminate:PROC
EXTRN	__invoke_watson:PROC
EXTRN	_strcspn:PROC
EXTRN	__imp__CreateFileW@28:PROC
EXTRN	__imp__CloseHandle@4:PROC
EXTRN	__imp__GetLastError@0:PROC
EXTRN	__imp__DeviceIoControl@32:PROC
EXTRN	_calloc:PROC
EXTRN	_free:PROC
EXTRN	??0_Lockit@std@@QAE@H@Z:PROC			; std::_Lockit::_Lockit
EXTRN	??1_Lockit@std@@QAE@XZ:PROC			; std::_Lockit::~_Lockit
EXTRN	_frexp:PROC
EXTRN	___stdio_common_vsprintf_s:PROC
EXTRN	?_Xbad_alloc@std@@YAXXZ:PROC			; std::_Xbad_alloc
EXTRN	?_Xlength_error@std@@YAXPBD@Z:PROC		; std::_Xlength_error
EXTRN	?_Xout_of_range@std@@YAXPBD@Z:PROC		; std::_Xout_of_range
EXTRN	?_Xruntime_error@std@@YAXPBD@Z:PROC		; std::_Xruntime_error
EXTRN	?uncaught_exception@std@@YA_NXZ:PROC		; std::uncaught_exception
EXTRN	___std_exception_copy:PROC
EXTRN	___std_exception_destroy:PROC
EXTRN	??_Eexception@std@@UAEPAXI@Z:PROC		; std::exception::`vector deleting destructor'
EXTRN	??_Ebad_alloc@std@@UAEPAXI@Z:PROC		; std::bad_alloc::`vector deleting destructor'
EXTRN	??_Ebad_array_new_length@std@@UAEPAXI@Z:PROC	; std::bad_array_new_length::`vector deleting destructor'
EXTRN	??_Eruntime_error@std@@UAEPAXI@Z:PROC		; std::runtime_error::`vector deleting destructor'
EXTRN	??_E_System_error@std@@UAEPAXI@Z:PROC		; std::_System_error::`vector deleting destructor'
EXTRN	??_Esystem_error@std@@UAEPAXI@Z:PROC		; std::system_error::`vector deleting destructor'
EXTRN	?_Syserror_map@std@@YAPBDH@Z:PROC		; std::_Syserror_map
EXTRN	??_E_Iostream_error_category2@std@@UAEPAXI@Z:PROC ; std::_Iostream_error_category2::`vector deleting destructor'
EXTRN	??_Ebad_cast@std@@UAEPAXI@Z:PROC		; std::bad_cast::`vector deleting destructor'
EXTRN	??_E_Facet_base@std@@UAEPAXI@Z:PROC		; std::_Facet_base::`vector deleting destructor'
EXTRN	?_Facet_Register@std@@YAXPAV_Facet_base@1@@Z:PROC ; std::_Facet_Register
EXTRN	_localeconv:PROC
EXTRN	__Getctype:PROC
EXTRN	__Getcvt:PROC
EXTRN	__Tolower:PROC
EXTRN	__Toupper:PROC
EXTRN	?_Locinfo_ctor@_Locinfo@std@@SAXPAV12@PBD@Z:PROC ; std::_Locinfo::_Locinfo_ctor
EXTRN	?_Locinfo_dtor@_Locinfo@std@@SAXPAV12@@Z:PROC	; std::_Locinfo::_Locinfo_dtor
EXTRN	??_Efacet@locale@std@@MAEPAXI@Z:PROC		; std::locale::facet::`vector deleting destructor'
EXTRN	?_Getgloballocale@locale@std@@CAPAV_Locimp@12@XZ:PROC ; std::locale::_Getgloballocale
EXTRN	??_Ectype_base@std@@UAEPAXI@Z:PROC		; std::ctype_base::`vector deleting destructor'
EXTRN	??_E?$ctype@D@std@@MAEPAXI@Z:PROC		; std::ctype<char>::`vector deleting destructor'
EXTRN	??_Efailure@ios_base@std@@UAEPAXI@Z:PROC	; std::ios_base::failure::`vector deleting destructor'
EXTRN	??_E?$num_put@DV?$ostreambuf_iterator@DU?$char_traits@D@std@@@std@@@std@@MAEPAXI@Z:PROC ; std::num_put<char,std::ostreambuf_iterator<char,std::char_traits<char> > >::`vector deleting destructor'
EXTRN	??_E?$numpunct@D@std@@MAEPAXI@Z:PROC		; std::numpunct<char>::`vector deleting destructor'
EXTRN	@__security_check_cookie@4:PROC
EXTRN	__CxxThrowException@8:PROC
EXTRN	___CxxFrameHandler3:PROC
EXTRN	__dclass:PROC
EXTRN	__ldclass:PROC
EXTRN	_memcpy:PROC
EXTRN	_memmove:PROC
EXTRN	_memset:PROC
EXTRN	??_7type_info@@6B@:QWORD			; type_info::`vftable'
EXTRN	?_Id_cnt@id@locale@std@@0HA:DWORD		; std::locale::id::_Id_cnt
EXTRN	?id@?$ctype@D@std@@2V0locale@2@A:DWORD		; std::ctype<char>::id
EXTRN	?cout@std@@3V?$basic_ostream@DU?$char_traits@D@std@@@1@A:BYTE ; std::cout
EXTRN	___security_cookie:DWORD
EXTRN	__fltused:DWORD
;	COMDAT ?_OptionsStorage@?1??__local_stdio_printf_options@@9@4_KA
_BSS	SEGMENT
?_OptionsStorage@?1??__local_stdio_printf_options@@9@4_KA DQ 01H DUP (?) ; `__local_stdio_printf_options'::`2'::_OptionsStorage
_BSS	ENDS
;	COMDAT ?_Psave@?$_Facetptr@V?$ctype@D@std@@@std@@2PBVfacet@locale@2@B
_BSS	SEGMENT
?_Psave@?$_Facetptr@V?$ctype@D@std@@@std@@2PBVfacet@locale@2@B DD 01H DUP (?) ; std::_Facetptr<std::ctype<char> >::_Psave
_BSS	ENDS
;	COMDAT ?id@?$num_put@DV?$ostreambuf_iterator@DU?$char_traits@D@std@@@std@@@std@@2V0locale@2@A
_BSS	SEGMENT
?id@?$num_put@DV?$ostreambuf_iterator@DU?$char_traits@D@std@@@std@@@std@@2V0locale@2@A DD 01H DUP (?) ; std::num_put<char,std::ostreambuf_iterator<char,std::char_traits<char> > >::id
_BSS	ENDS
;	COMDAT ?_Psave@?$_Facetptr@V?$num_put@DV?$ostreambuf_iterator@DU?$char_traits@D@std@@@std@@@std@@@std@@2PBVfacet@locale@2@B
_BSS	SEGMENT
?_Psave@?$_Facetptr@V?$num_put@DV?$ostreambuf_iterator@DU?$char_traits@D@std@@@std@@@std@@@std@@2PBVfacet@locale@2@B DD 01H DUP (?) ; std::_Facetptr<std::num_put<char,std::ostreambuf_iterator<char,std::char_traits<char> > > >::_Psave
_BSS	ENDS
;	COMDAT ?id@?$numpunct@D@std@@2V0locale@2@A
_BSS	SEGMENT
?id@?$numpunct@D@std@@2V0locale@2@A DD 01H DUP (?)	; std::numpunct<char>::id
_BSS	ENDS
;	COMDAT ?_Psave@?$_Facetptr@V?$numpunct@D@std@@@std@@2PBVfacet@locale@2@B
_BSS	SEGMENT
?_Psave@?$_Facetptr@V?$numpunct@D@std@@@std@@2PBVfacet@locale@2@B DD 01H DUP (?) ; std::_Facetptr<std::numpunct<char> >::_Psave
_BSS	ENDS
;	COMDAT __xmm@7fffffffffffffff7fffffffffffffff
CONST	SEGMENT
__xmm@7fffffffffffffff7fffffffffffffff DB 0ffH, 0ffH, 0ffH, 0ffH, 0ffH, 0ffH
	DB	0ffH, 07fH, 0ffH, 0ffH, 0ffH, 0ffH, 0ffH, 0ffH, 0ffH, 07fH
CONST	ENDS
;	COMDAT __real@4202a05f20000000
CONST	SEGMENT
__real@4202a05f20000000 DQ 04202a05f20000000r	; 1e+10
CONST	ENDS
;	COMDAT ??_R1A@?0A@EA@?$numpunct@D@std@@8
rdata$r	SEGMENT
??_R1A@?0A@EA@?$numpunct@D@std@@8 DD FLAT:??_R0?AV?$numpunct@D@std@@@8 ; std::numpunct<char>::`RTTI Base Class Descriptor at (0,-1,0,64)'
	DD	03H
	DD	00H
	DD	0ffffffffH
	DD	00H
	DD	040H
	DD	FLAT:??_R3?$numpunct@D@std@@8
rdata$r	ENDS
;	COMDAT ??_R2?$numpunct@D@std@@8
rdata$r	SEGMENT
??_R2?$numpunct@D@std@@8 DD FLAT:??_R1A@?0A@EA@?$numpunct@D@std@@8 ; std::numpunct<char>::`RTTI Base Class Array'
	DD	FLAT:??_R1A@?0A@EA@facet@locale@std@@8
	DD	FLAT:??_R1A@?0A@EA@_Facet_base@std@@8
	DD	FLAT:??_R13?0A@EA@_Crt_new_delete@std@@8
rdata$r	ENDS
;	COMDAT ??_R3?$numpunct@D@std@@8
rdata$r	SEGMENT
??_R3?$numpunct@D@std@@8 DD 00H				; std::numpunct<char>::`RTTI Class Hierarchy Descriptor'
	DD	01H
	DD	04H
	DD	FLAT:??_R2?$numpunct@D@std@@8
rdata$r	ENDS
;	COMDAT ??_R0?AV?$numpunct@D@std@@@8
data$rs	SEGMENT
??_R0?AV?$numpunct@D@std@@@8 DD FLAT:??_7type_info@@6B@	; std::numpunct<char> `RTTI Type Descriptor'
	DD	00H
	DB	'.?AV?$numpunct@D@std@@', 00H
data$rs	ENDS
;	COMDAT ??_R4?$numpunct@D@std@@6B@
rdata$r	SEGMENT
??_R4?$numpunct@D@std@@6B@ DD 00H			; std::numpunct<char>::`RTTI Complete Object Locator'
	DD	00H
	DD	00H
	DD	FLAT:??_R0?AV?$numpunct@D@std@@@8
	DD	FLAT:??_R3?$numpunct@D@std@@8
rdata$r	ENDS
;	COMDAT ??_R1A@?0A@EA@?$num_put@DV?$ostreambuf_iterator@DU?$char_traits@D@std@@@std@@@std@@8
rdata$r	SEGMENT
??_R1A@?0A@EA@?$num_put@DV?$ostreambuf_iterator@DU?$char_traits@D@std@@@std@@@std@@8 DD FLAT:??_R0?AV?$num_put@DV?$ostreambuf_iterator@DU?$char_traits@D@std@@@std@@@std@@@8 ; std::num_put<char,std::ostreambuf_iterator<char,std::char_traits<char> > >::`RTTI Base Class Descriptor at (0,-1,0,64)'
	DD	03H
	DD	00H
	DD	0ffffffffH
	DD	00H
	DD	040H
	DD	FLAT:??_R3?$num_put@DV?$ostreambuf_iterator@DU?$char_traits@D@std@@@std@@@std@@8
rdata$r	ENDS
;	COMDAT ??_R2?$num_put@DV?$ostreambuf_iterator@DU?$char_traits@D@std@@@std@@@std@@8
rdata$r	SEGMENT
??_R2?$num_put@DV?$ostreambuf_iterator@DU?$char_traits@D@std@@@std@@@std@@8 DD FLAT:??_R1A@?0A@EA@?$num_put@DV?$ostreambuf_iterator@DU?$char_traits@D@std@@@std@@@std@@8 ; std::num_put<char,std::ostreambuf_iterator<char,std::char_traits<char> > >::`RTTI Base Class Array'
	DD	FLAT:??_R1A@?0A@EA@facet@locale@std@@8
	DD	FLAT:??_R1A@?0A@EA@_Facet_base@std@@8
	DD	FLAT:??_R13?0A@EA@_Crt_new_delete@std@@8
rdata$r	ENDS
;	COMDAT ??_R3?$num_put@DV?$ostreambuf_iterator@DU?$char_traits@D@std@@@std@@@std@@8
rdata$r	SEGMENT
??_R3?$num_put@DV?$ostreambuf_iterator@DU?$char_traits@D@std@@@std@@@std@@8 DD 00H ; std::num_put<char,std::ostreambuf_iterator<char,std::char_traits<char> > >::`RTTI Class Hierarchy Descriptor'
	DD	01H
	DD	04H
	DD	FLAT:??_R2?$num_put@DV?$ostreambuf_iterator@DU?$char_traits@D@std@@@std@@@std@@8
rdata$r	ENDS
;	COMDAT ??_R0?AV?$num_put@DV?$ostreambuf_iterator@DU?$char_traits@D@std@@@std@@@std@@@8
data$rs	SEGMENT
??_R0?AV?$num_put@DV?$ostreambuf_iterator@DU?$char_traits@D@std@@@std@@@std@@@8 DD FLAT:??_7type_info@@6B@ ; std::num_put<char,std::ostreambuf_iterator<char,std::char_traits<char> > > `RTTI Type Descriptor'
	DD	00H
	DB	'.?AV?$num_put@DV?$ostreambuf_iterator@DU?$char_traits@D@'
	DB	'std@@@std@@@std@@', 00H
data$rs	ENDS
;	COMDAT ??_R4?$num_put@DV?$ostreambuf_iterator@DU?$char_traits@D@std@@@std@@@std@@6B@
rdata$r	SEGMENT
??_R4?$num_put@DV?$ostreambuf_iterator@DU?$char_traits@D@std@@@std@@@std@@6B@ DD 00H ; std::num_put<char,std::ostreambuf_iterator<char,std::char_traits<char> > >::`RTTI Complete Object Locator'
	DD	00H
	DD	00H
	DD	FLAT:??_R0?AV?$num_put@DV?$ostreambuf_iterator@DU?$char_traits@D@std@@@std@@@std@@@8
	DD	FLAT:??_R3?$num_put@DV?$ostreambuf_iterator@DU?$char_traits@D@std@@@std@@@std@@8
rdata$r	ENDS
;	COMDAT ??_R1A@?0A@EA@failure@ios_base@std@@8
rdata$r	SEGMENT
??_R1A@?0A@EA@failure@ios_base@std@@8 DD FLAT:??_R0?AVfailure@ios_base@std@@@8 ; std::ios_base::failure::`RTTI Base Class Descriptor at (0,-1,0,64)'
	DD	04H
	DD	00H
	DD	0ffffffffH
	DD	00H
	DD	040H
	DD	FLAT:??_R3failure@ios_base@std@@8
rdata$r	ENDS
;	COMDAT ??_R2failure@ios_base@std@@8
rdata$r	SEGMENT
??_R2failure@ios_base@std@@8 DD FLAT:??_R1A@?0A@EA@failure@ios_base@std@@8 ; std::ios_base::failure::`RTTI Base Class Array'
	DD	FLAT:??_R1A@?0A@EA@system_error@std@@8
	DD	FLAT:??_R1A@?0A@EA@_System_error@std@@8
	DD	FLAT:??_R1A@?0A@EA@runtime_error@std@@8
	DD	FLAT:??_R1A@?0A@EA@exception@std@@8
rdata$r	ENDS
;	COMDAT ??_R3failure@ios_base@std@@8
rdata$r	SEGMENT
??_R3failure@ios_base@std@@8 DD 00H			; std::ios_base::failure::`RTTI Class Hierarchy Descriptor'
	DD	00H
	DD	05H
	DD	FLAT:??_R2failure@ios_base@std@@8
rdata$r	ENDS
;	COMDAT ??_R4failure@ios_base@std@@6B@
rdata$r	SEGMENT
??_R4failure@ios_base@std@@6B@ DD 00H			; std::ios_base::failure::`RTTI Complete Object Locator'
	DD	00H
	DD	00H
	DD	FLAT:??_R0?AVfailure@ios_base@std@@@8
	DD	FLAT:??_R3failure@ios_base@std@@8
rdata$r	ENDS
;	COMDAT ??_R1A@?0A@EA@?$ctype@D@std@@8
rdata$r	SEGMENT
??_R1A@?0A@EA@?$ctype@D@std@@8 DD FLAT:??_R0?AV?$ctype@D@std@@@8 ; std::ctype<char>::`RTTI Base Class Descriptor at (0,-1,0,64)'
	DD	04H
	DD	00H
	DD	0ffffffffH
	DD	00H
	DD	040H
	DD	FLAT:??_R3?$ctype@D@std@@8
rdata$r	ENDS
;	COMDAT ??_R2?$ctype@D@std@@8
rdata$r	SEGMENT
??_R2?$ctype@D@std@@8 DD FLAT:??_R1A@?0A@EA@?$ctype@D@std@@8 ; std::ctype<char>::`RTTI Base Class Array'
	DD	FLAT:??_R1A@?0A@EA@ctype_base@std@@8
	DD	FLAT:??_R1A@?0A@EA@facet@locale@std@@8
	DD	FLAT:??_R1A@?0A@EA@_Facet_base@std@@8
	DD	FLAT:??_R13?0A@EA@_Crt_new_delete@std@@8
rdata$r	ENDS
;	COMDAT ??_R3?$ctype@D@std@@8
rdata$r	SEGMENT
??_R3?$ctype@D@std@@8 DD 00H				; std::ctype<char>::`RTTI Class Hierarchy Descriptor'
	DD	01H
	DD	05H
	DD	FLAT:??_R2?$ctype@D@std@@8
rdata$r	ENDS
;	COMDAT ??_R0?AV?$ctype@D@std@@@8
data$rs	SEGMENT
??_R0?AV?$ctype@D@std@@@8 DD FLAT:??_7type_info@@6B@	; std::ctype<char> `RTTI Type Descriptor'
	DD	00H
	DB	'.?AV?$ctype@D@std@@', 00H
data$rs	ENDS
;	COMDAT ??_R4?$ctype@D@std@@6B@
rdata$r	SEGMENT
??_R4?$ctype@D@std@@6B@ DD 00H				; std::ctype<char>::`RTTI Complete Object Locator'
	DD	00H
	DD	00H
	DD	FLAT:??_R0?AV?$ctype@D@std@@@8
	DD	FLAT:??_R3?$ctype@D@std@@8
rdata$r	ENDS
;	COMDAT ??_R1A@?0A@EA@ctype_base@std@@8
rdata$r	SEGMENT
??_R1A@?0A@EA@ctype_base@std@@8 DD FLAT:??_R0?AUctype_base@std@@@8 ; std::ctype_base::`RTTI Base Class Descriptor at (0,-1,0,64)'
	DD	03H
	DD	00H
	DD	0ffffffffH
	DD	00H
	DD	040H
	DD	FLAT:??_R3ctype_base@std@@8
rdata$r	ENDS
;	COMDAT ??_R2ctype_base@std@@8
rdata$r	SEGMENT
??_R2ctype_base@std@@8 DD FLAT:??_R1A@?0A@EA@ctype_base@std@@8 ; std::ctype_base::`RTTI Base Class Array'
	DD	FLAT:??_R1A@?0A@EA@facet@locale@std@@8
	DD	FLAT:??_R1A@?0A@EA@_Facet_base@std@@8
	DD	FLAT:??_R13?0A@EA@_Crt_new_delete@std@@8
rdata$r	ENDS
;	COMDAT ??_R3ctype_base@std@@8
rdata$r	SEGMENT
??_R3ctype_base@std@@8 DD 00H				; std::ctype_base::`RTTI Class Hierarchy Descriptor'
	DD	01H
	DD	04H
	DD	FLAT:??_R2ctype_base@std@@8
rdata$r	ENDS
;	COMDAT ??_R0?AUctype_base@std@@@8
data$rs	SEGMENT
??_R0?AUctype_base@std@@@8 DD FLAT:??_7type_info@@6B@	; std::ctype_base `RTTI Type Descriptor'
	DD	00H
	DB	'.?AUctype_base@std@@', 00H
data$rs	ENDS
;	COMDAT ??_R4ctype_base@std@@6B@
rdata$r	SEGMENT
??_R4ctype_base@std@@6B@ DD 00H				; std::ctype_base::`RTTI Complete Object Locator'
	DD	00H
	DD	00H
	DD	FLAT:??_R0?AUctype_base@std@@@8
	DD	FLAT:??_R3ctype_base@std@@8
rdata$r	ENDS
;	COMDAT ??_R1A@?0A@EA@_Crt_new_delete@std@@8
rdata$r	SEGMENT
??_R1A@?0A@EA@_Crt_new_delete@std@@8 DD FLAT:??_R0?AU_Crt_new_delete@std@@@8 ; std::_Crt_new_delete::`RTTI Base Class Descriptor at (0,-1,0,64)'
	DD	00H
	DD	00H
	DD	0ffffffffH
	DD	00H
	DD	040H
	DD	FLAT:??_R3_Crt_new_delete@std@@8
rdata$r	ENDS
;	COMDAT ??_R2_Crt_new_delete@std@@8
rdata$r	SEGMENT
??_R2_Crt_new_delete@std@@8 DD FLAT:??_R1A@?0A@EA@_Crt_new_delete@std@@8 ; std::_Crt_new_delete::`RTTI Base Class Array'
rdata$r	ENDS
;	COMDAT ??_R3_Crt_new_delete@std@@8
rdata$r	SEGMENT
??_R3_Crt_new_delete@std@@8 DD 00H			; std::_Crt_new_delete::`RTTI Class Hierarchy Descriptor'
	DD	00H
	DD	01H
	DD	FLAT:??_R2_Crt_new_delete@std@@8
rdata$r	ENDS
;	COMDAT ??_R0?AU_Crt_new_delete@std@@@8
data$rs	SEGMENT
??_R0?AU_Crt_new_delete@std@@@8 DD FLAT:??_7type_info@@6B@ ; std::_Crt_new_delete `RTTI Type Descriptor'
	DD	00H
	DB	'.?AU_Crt_new_delete@std@@', 00H
data$rs	ENDS
;	COMDAT ??_R13?0A@EA@_Crt_new_delete@std@@8
rdata$r	SEGMENT
??_R13?0A@EA@_Crt_new_delete@std@@8 DD FLAT:??_R0?AU_Crt_new_delete@std@@@8 ; std::_Crt_new_delete::`RTTI Base Class Descriptor at (4,-1,0,64)'
	DD	00H
	DD	04H
	DD	0ffffffffH
	DD	00H
	DD	040H
	DD	FLAT:??_R3_Crt_new_delete@std@@8
rdata$r	ENDS
;	COMDAT ??_R1A@?0A@EA@facet@locale@std@@8
rdata$r	SEGMENT
??_R1A@?0A@EA@facet@locale@std@@8 DD FLAT:??_R0?AVfacet@locale@std@@@8 ; std::locale::facet::`RTTI Base Class Descriptor at (0,-1,0,64)'
	DD	02H
	DD	00H
	DD	0ffffffffH
	DD	00H
	DD	040H
	DD	FLAT:??_R3facet@locale@std@@8
rdata$r	ENDS
;	COMDAT ??_R2facet@locale@std@@8
rdata$r	SEGMENT
??_R2facet@locale@std@@8 DD FLAT:??_R1A@?0A@EA@facet@locale@std@@8 ; std::locale::facet::`RTTI Base Class Array'
	DD	FLAT:??_R1A@?0A@EA@_Facet_base@std@@8
	DD	FLAT:??_R13?0A@EA@_Crt_new_delete@std@@8
rdata$r	ENDS
;	COMDAT ??_R3facet@locale@std@@8
rdata$r	SEGMENT
??_R3facet@locale@std@@8 DD 00H				; std::locale::facet::`RTTI Class Hierarchy Descriptor'
	DD	01H
	DD	03H
	DD	FLAT:??_R2facet@locale@std@@8
rdata$r	ENDS
;	COMDAT ??_R0?AVfacet@locale@std@@@8
data$rs	SEGMENT
??_R0?AVfacet@locale@std@@@8 DD FLAT:??_7type_info@@6B@	; std::locale::facet `RTTI Type Descriptor'
	DD	00H
	DB	'.?AVfacet@locale@std@@', 00H
data$rs	ENDS
;	COMDAT ??_R4facet@locale@std@@6B@
rdata$r	SEGMENT
??_R4facet@locale@std@@6B@ DD 00H			; std::locale::facet::`RTTI Complete Object Locator'
	DD	00H
	DD	00H
	DD	FLAT:??_R0?AVfacet@locale@std@@@8
	DD	FLAT:??_R3facet@locale@std@@8
rdata$r	ENDS
;	COMDAT ??_R1A@?0A@EA@_Facet_base@std@@8
rdata$r	SEGMENT
??_R1A@?0A@EA@_Facet_base@std@@8 DD FLAT:??_R0?AV_Facet_base@std@@@8 ; std::_Facet_base::`RTTI Base Class Descriptor at (0,-1,0,64)'
	DD	00H
	DD	00H
	DD	0ffffffffH
	DD	00H
	DD	040H
	DD	FLAT:??_R3_Facet_base@std@@8
rdata$r	ENDS
;	COMDAT ??_R2_Facet_base@std@@8
rdata$r	SEGMENT
??_R2_Facet_base@std@@8 DD FLAT:??_R1A@?0A@EA@_Facet_base@std@@8 ; std::_Facet_base::`RTTI Base Class Array'
rdata$r	ENDS
;	COMDAT ??_R3_Facet_base@std@@8
rdata$r	SEGMENT
??_R3_Facet_base@std@@8 DD 00H				; std::_Facet_base::`RTTI Class Hierarchy Descriptor'
	DD	00H
	DD	01H
	DD	FLAT:??_R2_Facet_base@std@@8
rdata$r	ENDS
;	COMDAT ??_R0?AV_Facet_base@std@@@8
data$rs	SEGMENT
??_R0?AV_Facet_base@std@@@8 DD FLAT:??_7type_info@@6B@	; std::_Facet_base `RTTI Type Descriptor'
	DD	00H
	DB	'.?AV_Facet_base@std@@', 00H
data$rs	ENDS
;	COMDAT ??_R4_Facet_base@std@@6B@
rdata$r	SEGMENT
??_R4_Facet_base@std@@6B@ DD 00H			; std::_Facet_base::`RTTI Complete Object Locator'
	DD	00H
	DD	00H
	DD	FLAT:??_R0?AV_Facet_base@std@@@8
	DD	FLAT:??_R3_Facet_base@std@@8
rdata$r	ENDS
;	COMDAT ??_R1A@?0A@EA@bad_cast@std@@8
rdata$r	SEGMENT
??_R1A@?0A@EA@bad_cast@std@@8 DD FLAT:??_R0?AVbad_cast@std@@@8 ; std::bad_cast::`RTTI Base Class Descriptor at (0,-1,0,64)'
	DD	01H
	DD	00H
	DD	0ffffffffH
	DD	00H
	DD	040H
	DD	FLAT:??_R3bad_cast@std@@8
rdata$r	ENDS
;	COMDAT ??_R2bad_cast@std@@8
rdata$r	SEGMENT
??_R2bad_cast@std@@8 DD FLAT:??_R1A@?0A@EA@bad_cast@std@@8 ; std::bad_cast::`RTTI Base Class Array'
	DD	FLAT:??_R1A@?0A@EA@exception@std@@8
rdata$r	ENDS
;	COMDAT ??_R3bad_cast@std@@8
rdata$r	SEGMENT
??_R3bad_cast@std@@8 DD 00H				; std::bad_cast::`RTTI Class Hierarchy Descriptor'
	DD	00H
	DD	02H
	DD	FLAT:??_R2bad_cast@std@@8
rdata$r	ENDS
;	COMDAT ??_R4bad_cast@std@@6B@
rdata$r	SEGMENT
??_R4bad_cast@std@@6B@ DD 00H				; std::bad_cast::`RTTI Complete Object Locator'
	DD	00H
	DD	00H
	DD	FLAT:??_R0?AVbad_cast@std@@@8
	DD	FLAT:??_R3bad_cast@std@@8
rdata$r	ENDS
;	COMDAT ??_R1A@?0A@EA@_Iostream_error_category2@std@@8
rdata$r	SEGMENT
??_R1A@?0A@EA@_Iostream_error_category2@std@@8 DD FLAT:??_R0?AV_Iostream_error_category2@std@@@8 ; std::_Iostream_error_category2::`RTTI Base Class Descriptor at (0,-1,0,64)'
	DD	01H
	DD	00H
	DD	0ffffffffH
	DD	00H
	DD	040H
	DD	FLAT:??_R3_Iostream_error_category2@std@@8
rdata$r	ENDS
;	COMDAT ??_R2_Iostream_error_category2@std@@8
rdata$r	SEGMENT
??_R2_Iostream_error_category2@std@@8 DD FLAT:??_R1A@?0A@EA@_Iostream_error_category2@std@@8 ; std::_Iostream_error_category2::`RTTI Base Class Array'
	DD	FLAT:??_R1A@?0A@EA@error_category@std@@8
rdata$r	ENDS
;	COMDAT ??_R3_Iostream_error_category2@std@@8
rdata$r	SEGMENT
??_R3_Iostream_error_category2@std@@8 DD 00H		; std::_Iostream_error_category2::`RTTI Class Hierarchy Descriptor'
	DD	00H
	DD	02H
	DD	FLAT:??_R2_Iostream_error_category2@std@@8
rdata$r	ENDS
;	COMDAT ??_R0?AV_Iostream_error_category2@std@@@8
data$rs	SEGMENT
??_R0?AV_Iostream_error_category2@std@@@8 DD FLAT:??_7type_info@@6B@ ; std::_Iostream_error_category2 `RTTI Type Descriptor'
	DD	00H
	DB	'.?AV_Iostream_error_category2@std@@', 00H
data$rs	ENDS
;	COMDAT ??_R4_Iostream_error_category2@std@@6B@
rdata$r	SEGMENT
??_R4_Iostream_error_category2@std@@6B@ DD 00H		; std::_Iostream_error_category2::`RTTI Complete Object Locator'
	DD	00H
	DD	00H
	DD	FLAT:??_R0?AV_Iostream_error_category2@std@@@8
	DD	FLAT:??_R3_Iostream_error_category2@std@@8
rdata$r	ENDS
;	COMDAT ??_R1A@?0A@EA@system_error@std@@8
rdata$r	SEGMENT
??_R1A@?0A@EA@system_error@std@@8 DD FLAT:??_R0?AVsystem_error@std@@@8 ; std::system_error::`RTTI Base Class Descriptor at (0,-1,0,64)'
	DD	03H
	DD	00H
	DD	0ffffffffH
	DD	00H
	DD	040H
	DD	FLAT:??_R3system_error@std@@8
rdata$r	ENDS
;	COMDAT ??_R2system_error@std@@8
rdata$r	SEGMENT
??_R2system_error@std@@8 DD FLAT:??_R1A@?0A@EA@system_error@std@@8 ; std::system_error::`RTTI Base Class Array'
	DD	FLAT:??_R1A@?0A@EA@_System_error@std@@8
	DD	FLAT:??_R1A@?0A@EA@runtime_error@std@@8
	DD	FLAT:??_R1A@?0A@EA@exception@std@@8
rdata$r	ENDS
;	COMDAT ??_R3system_error@std@@8
rdata$r	SEGMENT
??_R3system_error@std@@8 DD 00H				; std::system_error::`RTTI Class Hierarchy Descriptor'
	DD	00H
	DD	04H
	DD	FLAT:??_R2system_error@std@@8
rdata$r	ENDS
;	COMDAT ??_R4system_error@std@@6B@
rdata$r	SEGMENT
??_R4system_error@std@@6B@ DD 00H			; std::system_error::`RTTI Complete Object Locator'
	DD	00H
	DD	00H
	DD	FLAT:??_R0?AVsystem_error@std@@@8
	DD	FLAT:??_R3system_error@std@@8
rdata$r	ENDS
;	COMDAT ??_R1A@?0A@EA@_System_error@std@@8
rdata$r	SEGMENT
??_R1A@?0A@EA@_System_error@std@@8 DD FLAT:??_R0?AV_System_error@std@@@8 ; std::_System_error::`RTTI Base Class Descriptor at (0,-1,0,64)'
	DD	02H
	DD	00H
	DD	0ffffffffH
	DD	00H
	DD	040H
	DD	FLAT:??_R3_System_error@std@@8
rdata$r	ENDS
;	COMDAT ??_R2_System_error@std@@8
rdata$r	SEGMENT
??_R2_System_error@std@@8 DD FLAT:??_R1A@?0A@EA@_System_error@std@@8 ; std::_System_error::`RTTI Base Class Array'
	DD	FLAT:??_R1A@?0A@EA@runtime_error@std@@8
	DD	FLAT:??_R1A@?0A@EA@exception@std@@8
rdata$r	ENDS
;	COMDAT ??_R3_System_error@std@@8
rdata$r	SEGMENT
??_R3_System_error@std@@8 DD 00H			; std::_System_error::`RTTI Class Hierarchy Descriptor'
	DD	00H
	DD	03H
	DD	FLAT:??_R2_System_error@std@@8
rdata$r	ENDS
;	COMDAT ??_R4_System_error@std@@6B@
rdata$r	SEGMENT
??_R4_System_error@std@@6B@ DD 00H			; std::_System_error::`RTTI Complete Object Locator'
	DD	00H
	DD	00H
	DD	FLAT:??_R0?AV_System_error@std@@@8
	DD	FLAT:??_R3_System_error@std@@8
rdata$r	ENDS
;	COMDAT ??_R1A@?0A@EA@error_category@std@@8
rdata$r	SEGMENT
??_R1A@?0A@EA@error_category@std@@8 DD FLAT:??_R0?AVerror_category@std@@@8 ; std::error_category::`RTTI Base Class Descriptor at (0,-1,0,64)'
	DD	00H
	DD	00H
	DD	0ffffffffH
	DD	00H
	DD	040H
	DD	FLAT:??_R3error_category@std@@8
rdata$r	ENDS
;	COMDAT ??_R2error_category@std@@8
rdata$r	SEGMENT
??_R2error_category@std@@8 DD FLAT:??_R1A@?0A@EA@error_category@std@@8 ; std::error_category::`RTTI Base Class Array'
rdata$r	ENDS
;	COMDAT ??_R3error_category@std@@8
rdata$r	SEGMENT
??_R3error_category@std@@8 DD 00H			; std::error_category::`RTTI Class Hierarchy Descriptor'
	DD	00H
	DD	01H
	DD	FLAT:??_R2error_category@std@@8
rdata$r	ENDS
;	COMDAT ??_R0?AVerror_category@std@@@8
data$rs	SEGMENT
??_R0?AVerror_category@std@@@8 DD FLAT:??_7type_info@@6B@ ; std::error_category `RTTI Type Descriptor'
	DD	00H
	DB	'.?AVerror_category@std@@', 00H
data$rs	ENDS
;	COMDAT ??_R1A@?0A@EA@runtime_error@std@@8
rdata$r	SEGMENT
??_R1A@?0A@EA@runtime_error@std@@8 DD FLAT:??_R0?AVruntime_error@std@@@8 ; std::runtime_error::`RTTI Base Class Descriptor at (0,-1,0,64)'
	DD	01H
	DD	00H
	DD	0ffffffffH
	DD	00H
	DD	040H
	DD	FLAT:??_R3runtime_error@std@@8
rdata$r	ENDS
;	COMDAT ??_R2runtime_error@std@@8
rdata$r	SEGMENT
??_R2runtime_error@std@@8 DD FLAT:??_R1A@?0A@EA@runtime_error@std@@8 ; std::runtime_error::`RTTI Base Class Array'
	DD	FLAT:??_R1A@?0A@EA@exception@std@@8
rdata$r	ENDS
;	COMDAT ??_R3runtime_error@std@@8
rdata$r	SEGMENT
??_R3runtime_error@std@@8 DD 00H			; std::runtime_error::`RTTI Class Hierarchy Descriptor'
	DD	00H
	DD	02H
	DD	FLAT:??_R2runtime_error@std@@8
rdata$r	ENDS
;	COMDAT ??_R4runtime_error@std@@6B@
rdata$r	SEGMENT
??_R4runtime_error@std@@6B@ DD 00H			; std::runtime_error::`RTTI Complete Object Locator'
	DD	00H
	DD	00H
	DD	FLAT:??_R0?AVruntime_error@std@@@8
	DD	FLAT:??_R3runtime_error@std@@8
rdata$r	ENDS
;	COMDAT ??_R4bad_alloc@std@@6B@
rdata$r	SEGMENT
??_R4bad_alloc@std@@6B@ DD 00H				; std::bad_alloc::`RTTI Complete Object Locator'
	DD	00H
	DD	00H
	DD	FLAT:??_R0?AVbad_alloc@std@@@8
	DD	FLAT:??_R3bad_alloc@std@@8
rdata$r	ENDS
;	COMDAT ??_R2bad_alloc@std@@8
rdata$r	SEGMENT
??_R2bad_alloc@std@@8 DD FLAT:??_R1A@?0A@EA@bad_alloc@std@@8 ; std::bad_alloc::`RTTI Base Class Array'
	DD	FLAT:??_R1A@?0A@EA@exception@std@@8
rdata$r	ENDS
;	COMDAT ??_R3bad_alloc@std@@8
rdata$r	SEGMENT
??_R3bad_alloc@std@@8 DD 00H				; std::bad_alloc::`RTTI Class Hierarchy Descriptor'
	DD	00H
	DD	02H
	DD	FLAT:??_R2bad_alloc@std@@8
rdata$r	ENDS
;	COMDAT ??_R1A@?0A@EA@bad_alloc@std@@8
rdata$r	SEGMENT
??_R1A@?0A@EA@bad_alloc@std@@8 DD FLAT:??_R0?AVbad_alloc@std@@@8 ; std::bad_alloc::`RTTI Base Class Descriptor at (0,-1,0,64)'
	DD	01H
	DD	00H
	DD	0ffffffffH
	DD	00H
	DD	040H
	DD	FLAT:??_R3bad_alloc@std@@8
rdata$r	ENDS
;	COMDAT ??_R1A@?0A@EA@bad_array_new_length@std@@8
rdata$r	SEGMENT
??_R1A@?0A@EA@bad_array_new_length@std@@8 DD FLAT:??_R0?AVbad_array_new_length@std@@@8 ; std::bad_array_new_length::`RTTI Base Class Descriptor at (0,-1,0,64)'
	DD	02H
	DD	00H
	DD	0ffffffffH
	DD	00H
	DD	040H
	DD	FLAT:??_R3bad_array_new_length@std@@8
rdata$r	ENDS
;	COMDAT ??_R2bad_array_new_length@std@@8
rdata$r	SEGMENT
??_R2bad_array_new_length@std@@8 DD FLAT:??_R1A@?0A@EA@bad_array_new_length@std@@8 ; std::bad_array_new_length::`RTTI Base Class Array'
	DD	FLAT:??_R1A@?0A@EA@bad_alloc@std@@8
	DD	FLAT:??_R1A@?0A@EA@exception@std@@8
rdata$r	ENDS
;	COMDAT ??_R3bad_array_new_length@std@@8
rdata$r	SEGMENT
??_R3bad_array_new_length@std@@8 DD 00H			; std::bad_array_new_length::`RTTI Class Hierarchy Descriptor'
	DD	00H
	DD	03H
	DD	FLAT:??_R2bad_array_new_length@std@@8
rdata$r	ENDS
;	COMDAT ??_R4bad_array_new_length@std@@6B@
rdata$r	SEGMENT
??_R4bad_array_new_length@std@@6B@ DD 00H		; std::bad_array_new_length::`RTTI Complete Object Locator'
	DD	00H
	DD	00H
	DD	FLAT:??_R0?AVbad_array_new_length@std@@@8
	DD	FLAT:??_R3bad_array_new_length@std@@8
rdata$r	ENDS
;	COMDAT ??_R1A@?0A@EA@exception@std@@8
rdata$r	SEGMENT
??_R1A@?0A@EA@exception@std@@8 DD FLAT:??_R0?AVexception@std@@@8 ; std::exception::`RTTI Base Class Descriptor at (0,-1,0,64)'
	DD	00H
	DD	00H
	DD	0ffffffffH
	DD	00H
	DD	040H
	DD	FLAT:??_R3exception@std@@8
rdata$r	ENDS
;	COMDAT ??_R2exception@std@@8
rdata$r	SEGMENT
??_R2exception@std@@8 DD FLAT:??_R1A@?0A@EA@exception@std@@8 ; std::exception::`RTTI Base Class Array'
rdata$r	ENDS
;	COMDAT ??_R3exception@std@@8
rdata$r	SEGMENT
??_R3exception@std@@8 DD 00H				; std::exception::`RTTI Class Hierarchy Descriptor'
	DD	00H
	DD	01H
	DD	FLAT:??_R2exception@std@@8
rdata$r	ENDS
;	COMDAT ??_R4exception@std@@6B@
rdata$r	SEGMENT
??_R4exception@std@@6B@ DD 00H				; std::exception::`RTTI Complete Object Locator'
	DD	00H
	DD	00H
	DD	FLAT:??_R0?AVexception@std@@@8
	DD	FLAT:??_R3exception@std@@8
rdata$r	ENDS
;	COMDAT ??_C@_0BI@CFPLBAOH@invalid?5string?5position@
CONST	SEGMENT
??_C@_0BI@CFPLBAOH@invalid?5string?5position@ DB 'invalid string position'
	DB	00H						; `string'
CONST	ENDS
;	COMDAT ??_C@_01LFCBOECM@?4@
CONST	SEGMENT
??_C@_01LFCBOECM@?4@ DB '.', 00H			; `string'
CONST	ENDS
;	COMDAT ??_C@_02OOPEBDOJ@pP@
CONST	SEGMENT
??_C@_02OOPEBDOJ@pP@ DB 'pP', 00H			; `string'
CONST	ENDS
;	COMDAT ??_C@_02MDKMJEGG@eE@
CONST	SEGMENT
??_C@_02MDKMJEGG@eE@ DB 'eE', 00H			; `string'
CONST	ENDS
;	COMDAT ??_7?$numpunct@D@std@@6B@
CONST	SEGMENT
??_7?$numpunct@D@std@@6B@ DD FLAT:??_R4?$numpunct@D@std@@6B@ ; std::numpunct<char>::`vftable'
	DD	FLAT:??_E?$numpunct@D@std@@MAEPAXI@Z
	DD	FLAT:?_Incref@facet@locale@std@@UAEXXZ
	DD	FLAT:?_Decref@facet@locale@std@@UAEPAV_Facet_base@3@XZ
	DD	FLAT:?do_decimal_point@?$numpunct@D@std@@MBEDXZ
	DD	FLAT:?do_thousands_sep@?$numpunct@D@std@@MBEDXZ
	DD	FLAT:?do_grouping@?$numpunct@D@std@@MBE?AV?$basic_string@DU?$char_traits@D@std@@V?$allocator@D@2@@2@XZ
	DD	FLAT:?do_falsename@?$numpunct@D@std@@MBE?AV?$basic_string@DU?$char_traits@D@std@@V?$allocator@D@2@@2@XZ
	DD	FLAT:?do_truename@?$numpunct@D@std@@MBE?AV?$basic_string@DU?$char_traits@D@std@@V?$allocator@D@2@@2@XZ
CONST	ENDS
;	COMDAT ??_C@_02EAOCLKAK@ld@
CONST	SEGMENT
??_C@_02EAOCLKAK@ld@ DB 'ld', 00H			; `string'
CONST	ENDS
;	COMDAT ??_C@_02BDDLJJBK@lu@
CONST	SEGMENT
??_C@_02BDDLJJBK@lu@ DB 'lu', 00H			; `string'
CONST	ENDS
;	COMDAT ??_C@_02HIKPPMOK@Ld@
CONST	SEGMENT
??_C@_02HIKPPMOK@Ld@ DB 'Ld', 00H			; `string'
CONST	ENDS
;	COMDAT ??_C@_02CLHGNPPK@Lu@
CONST	SEGMENT
??_C@_02CLHGNPPK@Lu@ DB 'Lu', 00H			; `string'
CONST	ENDS
;	COMDAT ??_C@_02BBAHNLBA@?$CFp@
CONST	SEGMENT
??_C@_02BBAHNLBA@?$CFp@ DB '%p', 00H			; `string'
CONST	ENDS
;	COMDAT ??_7?$num_put@DV?$ostreambuf_iterator@DU?$char_traits@D@std@@@std@@@std@@6B@
CONST	SEGMENT
??_7?$num_put@DV?$ostreambuf_iterator@DU?$char_traits@D@std@@@std@@@std@@6B@ DD FLAT:??_R4?$num_put@DV?$ostreambuf_iterator@DU?$char_traits@D@std@@@std@@@std@@6B@ ; std::num_put<char,std::ostreambuf_iterator<char,std::char_traits<char> > >::`vftable'
	DD	FLAT:??_E?$num_put@DV?$ostreambuf_iterator@DU?$char_traits@D@std@@@std@@@std@@MAEPAXI@Z
	DD	FLAT:?_Incref@facet@locale@std@@UAEXXZ
	DD	FLAT:?_Decref@facet@locale@std@@UAEPAV_Facet_base@3@XZ
	DD	FLAT:?do_put@?$num_put@DV?$ostreambuf_iterator@DU?$char_traits@D@std@@@std@@@std@@MBE?AV?$ostreambuf_iterator@DU?$char_traits@D@std@@@2@V32@AAVios_base@2@DPBX@Z
	DD	FLAT:?do_put@?$num_put@DV?$ostreambuf_iterator@DU?$char_traits@D@std@@@std@@@std@@MBE?AV?$ostreambuf_iterator@DU?$char_traits@D@std@@@2@V32@AAVios_base@2@DO@Z
	DD	FLAT:?do_put@?$num_put@DV?$ostreambuf_iterator@DU?$char_traits@D@std@@@std@@@std@@MBE?AV?$ostreambuf_iterator@DU?$char_traits@D@std@@@2@V32@AAVios_base@2@DN@Z
	DD	FLAT:?do_put@?$num_put@DV?$ostreambuf_iterator@DU?$char_traits@D@std@@@std@@@std@@MBE?AV?$ostreambuf_iterator@DU?$char_traits@D@std@@@2@V32@AAVios_base@2@D_K@Z
	DD	FLAT:?do_put@?$num_put@DV?$ostreambuf_iterator@DU?$char_traits@D@std@@@std@@@std@@MBE?AV?$ostreambuf_iterator@DU?$char_traits@D@std@@@2@V32@AAVios_base@2@D_J@Z
	DD	FLAT:?do_put@?$num_put@DV?$ostreambuf_iterator@DU?$char_traits@D@std@@@std@@@std@@MBE?AV?$ostreambuf_iterator@DU?$char_traits@D@std@@@2@V32@AAVios_base@2@DK@Z
	DD	FLAT:?do_put@?$num_put@DV?$ostreambuf_iterator@DU?$char_traits@D@std@@@std@@@std@@MBE?AV?$ostreambuf_iterator@DU?$char_traits@D@std@@@2@V32@AAVios_base@2@DJ@Z
	DD	FLAT:?do_put@?$num_put@DV?$ostreambuf_iterator@DU?$char_traits@D@std@@@std@@@std@@MBE?AV?$ostreambuf_iterator@DU?$char_traits@D@std@@@2@V32@AAVios_base@2@D_N@Z
CONST	ENDS
;	COMDAT ?_Static@?1???$_Immortalize_memcpy_image@V_Iostream_error_category2@std@@@std@@YAABV_Iostream_error_category2@1@XZ@4U?$_Constexpr_immortalize_impl@V_Iostream_error_category2@std@@@1@A
_DATA	SEGMENT
?_Static@?1???$_Immortalize_memcpy_image@V_Iostream_error_category2@std@@@std@@YAABV_Iostream_error_category2@1@XZ@4U?$_Constexpr_immortalize_impl@V_Iostream_error_category2@std@@@1@A DD FLAT:??_7_Iostream_error_category2@std@@6B@ ; `std::_Immortalize_memcpy_image<std::_Iostream_error_category2>'::`2'::_Static
	DD	05H
_DATA	ENDS
;	COMDAT ??_C@_0BP@KAKKMLPM@Failed?5to?5open?5driver?5device?3?5@
CONST	SEGMENT
??_C@_0BP@KAKKMLPM@Failed?5to?5open?5driver?5device?3?5@ DB 'Failed to op'
	DB	'en driver device: ', 00H			; `string'
CONST	ENDS
;	COMDAT ??_C@_01EEMJAFIK@?6@
CONST	SEGMENT
??_C@_01EEMJAFIK@?6@ DB 0aH, 00H			; `string'
CONST	ENDS
;	COMDAT ??_C@_1EI@LABCAMFO@?$AA?2?$AA?2?$AA?4?$AA?2?$AAE?$AAz?$AAA?$AAn?$AAt?$AAi?$AAA?$AAn?$AAt?$AAi?$AAC@
CONST	SEGMENT
??_C@_1EI@LABCAMFO@?$AA?2?$AA?2?$AA?4?$AA?2?$AAE?$AAz?$AAA?$AAn?$AAt?$AAi?$AAA?$AAn?$AAt?$AAi?$AAC@ DB '\'
	DB	00H, '\', 00H, '.', 00H, '\', 00H, 'E', 00H, 'z', 00H, 'A', 00H
	DB	'n', 00H, 't', 00H, 'i', 00H, 'A', 00H, 'n', 00H, 't', 00H, 'i'
	DB	00H, 'C', 00H, 'h', 00H, 'e', 00H, 'a', 00H, 't', 00H, '-', 00H
	DB	'x', 00H, '8', 00H, '6', 00H, '-', 00H, 'R', 00H, 'e', 00H, 'l'
	DB	00H, 'e', 00H, 'a', 00H, 's', 00H, 'e', 00H, '.', 00H, 'e', 00H
	DB	'x', 00H, 'e', 00H, 00H, 00H			; `string'
CONST	ENDS
;	COMDAT __CT??_R0?AVfailure@ios_base@std@@@8??0failure@ios_base@std@@QAE@ABV012@@Z20
xdata$x	SEGMENT
__CT??_R0?AVfailure@ios_base@std@@@8??0failure@ios_base@std@@QAE@ABV012@@Z20 DD 00H
	DD	FLAT:??_R0?AVfailure@ios_base@std@@@8
	DD	00H
	DD	0ffffffffH
	ORG $+4
	DD	014H
	DD	FLAT:??0failure@ios_base@std@@QAE@ABV012@@Z
xdata$x	ENDS
;	COMDAT ??_R0?AVfailure@ios_base@std@@@8
data$r	SEGMENT
??_R0?AVfailure@ios_base@std@@@8 DD FLAT:??_7type_info@@6B@ ; std::ios_base::failure `RTTI Type Descriptor'
	DD	00H
	DB	'.?AVfailure@ios_base@std@@', 00H
data$r	ENDS
;	COMDAT __CTA5?AVfailure@ios_base@std@@
xdata$x	SEGMENT
__CTA5?AVfailure@ios_base@std@@ DD 05H
	DD	FLAT:__CT??_R0?AVfailure@ios_base@std@@@8??0failure@ios_base@std@@QAE@ABV012@@Z20
	DD	FLAT:__CT??_R0?AVsystem_error@std@@@8??0system_error@std@@QAE@ABV01@@Z20
	DD	FLAT:__CT??_R0?AV_System_error@std@@@8??0_System_error@std@@QAE@ABV01@@Z20
	DD	FLAT:__CT??_R0?AVruntime_error@std@@@8??0runtime_error@std@@QAE@ABV01@@Z12
	DD	FLAT:__CT??_R0?AVexception@std@@@8??0exception@std@@QAE@ABV01@@Z12
xdata$x	ENDS
;	COMDAT __TI5?AVfailure@ios_base@std@@
xdata$x	SEGMENT
__TI5?AVfailure@ios_base@std@@ DD 00H
	DD	FLAT:??1failure@ios_base@std@@UAE@XZ
	DD	00H
	DD	FLAT:__CTA5?AVfailure@ios_base@std@@
xdata$x	ENDS
;	COMDAT ??_C@_0BF@OOHOMBOF@ios_base?3?3eofbit?5set@
CONST	SEGMENT
??_C@_0BF@OOHOMBOF@ios_base?3?3eofbit?5set@ DB 'ios_base::eofbit set', 00H ; `string'
CONST	ENDS
;	COMDAT ??_C@_0BG@FMKFHCIL@ios_base?3?3failbit?5set@
CONST	SEGMENT
??_C@_0BG@FMKFHCIL@ios_base?3?3failbit?5set@ DB 'ios_base::failbit set', 00H ; `string'
CONST	ENDS
;	COMDAT ??_C@_0BF@PHHKMMFD@ios_base?3?3badbit?5set@
CONST	SEGMENT
??_C@_0BF@PHHKMMFD@ios_base?3?3badbit?5set@ DB 'ios_base::badbit set', 00H ; `string'
CONST	ENDS
;	COMDAT ??_7failure@ios_base@std@@6B@
CONST	SEGMENT
??_7failure@ios_base@std@@6B@ DD FLAT:??_R4failure@ios_base@std@@6B@ ; std::ios_base::failure::`vftable'
	DD	FLAT:??_Efailure@ios_base@std@@UAEPAXI@Z
	DD	FLAT:?what@exception@std@@UBEPBDXZ
CONST	ENDS
;	COMDAT ??_7?$ctype@D@std@@6B@
CONST	SEGMENT
??_7?$ctype@D@std@@6B@ DD FLAT:??_R4?$ctype@D@std@@6B@	; std::ctype<char>::`vftable'
	DD	FLAT:??_E?$ctype@D@std@@MAEPAXI@Z
	DD	FLAT:?_Incref@facet@locale@std@@UAEXXZ
	DD	FLAT:?_Decref@facet@locale@std@@UAEPAV_Facet_base@3@XZ
	DD	FLAT:?do_tolower@?$ctype@D@std@@MBEPBDPADPBD@Z
	DD	FLAT:?do_tolower@?$ctype@D@std@@MBEDD@Z
	DD	FLAT:?do_toupper@?$ctype@D@std@@MBEPBDPADPBD@Z
	DD	FLAT:?do_toupper@?$ctype@D@std@@MBEDD@Z
	DD	FLAT:?do_widen@?$ctype@D@std@@MBEPBDPBD0PAD@Z
	DD	FLAT:?do_widen@?$ctype@D@std@@MBEDD@Z
	DD	FLAT:?do_narrow@?$ctype@D@std@@MBEPBDPBD0DPAD@Z
	DD	FLAT:?do_narrow@?$ctype@D@std@@MBEDDD@Z
CONST	ENDS
;	COMDAT ??_7ctype_base@std@@6B@
CONST	SEGMENT
??_7ctype_base@std@@6B@ DD FLAT:??_R4ctype_base@std@@6B@ ; std::ctype_base::`vftable'
	DD	FLAT:??_Ectype_base@std@@UAEPAXI@Z
	DD	FLAT:?_Incref@facet@locale@std@@UAEXXZ
	DD	FLAT:?_Decref@facet@locale@std@@UAEPAV_Facet_base@3@XZ
CONST	ENDS
;	COMDAT ??_C@_00CNPNBAHC@@
CONST	SEGMENT
??_C@_00CNPNBAHC@@ DB 00H				; `string'
CONST	ENDS
;	COMDAT ??_7facet@locale@std@@6B@
CONST	SEGMENT
??_7facet@locale@std@@6B@ DD FLAT:??_R4facet@locale@std@@6B@ ; std::locale::facet::`vftable'
	DD	FLAT:??_Efacet@locale@std@@MAEPAXI@Z
	DD	FLAT:?_Incref@facet@locale@std@@UAEXXZ
	DD	FLAT:?_Decref@facet@locale@std@@UAEPAV_Facet_base@3@XZ
CONST	ENDS
;	COMDAT ??_C@_04LOAJBDKD@true@
CONST	SEGMENT
??_C@_04LOAJBDKD@true@ DB 'true', 00H			; `string'
CONST	ENDS
;	COMDAT ??_C@_05LAPONLG@false@
CONST	SEGMENT
??_C@_05LAPONLG@false@ DB 'false', 00H			; `string'
CONST	ENDS
;	COMDAT ??_C@_0BA@ELKIONDK@bad?5locale?5name@
CONST	SEGMENT
??_C@_0BA@ELKIONDK@bad?5locale?5name@ DB 'bad locale name', 00H ; `string'
CONST	ENDS
;	COMDAT ??_7_Facet_base@std@@6B@
CONST	SEGMENT
??_7_Facet_base@std@@6B@ DD FLAT:??_R4_Facet_base@std@@6B@ ; std::_Facet_base::`vftable'
	DD	FLAT:??_E_Facet_base@std@@UAEPAXI@Z
	DD	FLAT:__purecall
	DD	FLAT:__purecall
CONST	ENDS
;	COMDAT __CT??_R0?AVbad_cast@std@@@8??0bad_cast@std@@QAE@ABV01@@Z12
xdata$x	SEGMENT
__CT??_R0?AVbad_cast@std@@@8??0bad_cast@std@@QAE@ABV01@@Z12 DD 00H
	DD	FLAT:??_R0?AVbad_cast@std@@@8
	DD	00H
	DD	0ffffffffH
	ORG $+4
	DD	0cH
	DD	FLAT:??0bad_cast@std@@QAE@ABV01@@Z
xdata$x	ENDS
;	COMDAT ??_R0?AVbad_cast@std@@@8
data$r	SEGMENT
??_R0?AVbad_cast@std@@@8 DD FLAT:??_7type_info@@6B@	; std::bad_cast `RTTI Type Descriptor'
	DD	00H
	DB	'.?AVbad_cast@std@@', 00H
data$r	ENDS
;	COMDAT __CTA2?AVbad_cast@std@@
xdata$x	SEGMENT
__CTA2?AVbad_cast@std@@ DD 02H
	DD	FLAT:__CT??_R0?AVbad_cast@std@@@8??0bad_cast@std@@QAE@ABV01@@Z12
	DD	FLAT:__CT??_R0?AVexception@std@@@8??0exception@std@@QAE@ABV01@@Z12
xdata$x	ENDS
;	COMDAT __TI2?AVbad_cast@std@@
xdata$x	SEGMENT
__TI2?AVbad_cast@std@@ DD 00H
	DD	FLAT:??1bad_cast@std@@UAE@XZ
	DD	00H
	DD	FLAT:__CTA2?AVbad_cast@std@@
xdata$x	ENDS
;	COMDAT ??_C@_08EPJLHIJG@bad?5cast@
CONST	SEGMENT
??_C@_08EPJLHIJG@bad?5cast@ DB 'bad cast', 00H		; `string'
CONST	ENDS
;	COMDAT ??_7bad_cast@std@@6B@
CONST	SEGMENT
??_7bad_cast@std@@6B@ DD FLAT:??_R4bad_cast@std@@6B@	; std::bad_cast::`vftable'
	DD	FLAT:??_Ebad_cast@std@@UAEPAXI@Z
	DD	FLAT:?what@exception@std@@UBEPBDXZ
CONST	ENDS
;	COMDAT ?_Iostream_error@?4??message@_Iostream_error_category2@std@@UBE?AV?$basic_string@DU?$char_traits@D@std@@V?$allocator@D@2@@3@H@Z@4QBDB
CONST	SEGMENT
?_Iostream_error@?4??message@_Iostream_error_category2@std@@UBE?AV?$basic_string@DU?$char_traits@D@std@@V?$allocator@D@2@@3@H@Z@4QBDB DB 069H ; `std::_Iostream_error_category2::message'::`5'::_Iostream_error
	DB	06fH
	DB	073H
	DB	074H
	DB	072H
	DB	065H
	DB	061H
	DB	06dH
	DB	020H
	DB	073H
	DB	074H
	DB	072H
	DB	065H
	DB	061H
	DB	06dH
	DB	020H
	DB	065H
	DB	072H
	DB	072H
	DB	06fH
	DB	072H
	DB	00H
CONST	ENDS
;	COMDAT ??_C@_08LLGCOLLL@iostream@
CONST	SEGMENT
??_C@_08LLGCOLLL@iostream@ DB 'iostream', 00H		; `string'
CONST	ENDS
;	COMDAT ??_7_Iostream_error_category2@std@@6B@
CONST	SEGMENT
??_7_Iostream_error_category2@std@@6B@ DD FLAT:??_R4_Iostream_error_category2@std@@6B@ ; std::_Iostream_error_category2::`vftable'
	DD	FLAT:??_E_Iostream_error_category2@std@@UAEPAXI@Z
	DD	FLAT:?name@_Iostream_error_category2@std@@UBEPBDXZ
	DD	FLAT:?message@_Iostream_error_category2@std@@UBE?AV?$basic_string@DU?$char_traits@D@std@@V?$allocator@D@2@@2@H@Z
	DD	FLAT:?default_error_condition@error_category@std@@UBE?AVerror_condition@2@H@Z
	DD	FLAT:?equivalent@error_category@std@@UBE_NABVerror_code@2@H@Z
	DD	FLAT:?equivalent@error_category@std@@UBE_NHABVerror_condition@2@@Z
CONST	ENDS
;	COMDAT __CT??_R0?AV_System_error@std@@@8??0_System_error@std@@QAE@ABV01@@Z20
xdata$x	SEGMENT
__CT??_R0?AV_System_error@std@@@8??0_System_error@std@@QAE@ABV01@@Z20 DD 00H
	DD	FLAT:??_R0?AV_System_error@std@@@8
	DD	00H
	DD	0ffffffffH
	ORG $+4
	DD	014H
	DD	FLAT:??0_System_error@std@@QAE@ABV01@@Z
xdata$x	ENDS
;	COMDAT ??_R0?AV_System_error@std@@@8
data$r	SEGMENT
??_R0?AV_System_error@std@@@8 DD FLAT:??_7type_info@@6B@ ; std::_System_error `RTTI Type Descriptor'
	DD	00H
	DB	'.?AV_System_error@std@@', 00H
data$r	ENDS
;	COMDAT __CT??_R0?AVsystem_error@std@@@8??0system_error@std@@QAE@ABV01@@Z20
xdata$x	SEGMENT
__CT??_R0?AVsystem_error@std@@@8??0system_error@std@@QAE@ABV01@@Z20 DD 00H
	DD	FLAT:??_R0?AVsystem_error@std@@@8
	DD	00H
	DD	0ffffffffH
	ORG $+4
	DD	014H
	DD	FLAT:??0system_error@std@@QAE@ABV01@@Z
xdata$x	ENDS
;	COMDAT ??_R0?AVsystem_error@std@@@8
data$r	SEGMENT
??_R0?AVsystem_error@std@@@8 DD FLAT:??_7type_info@@6B@	; std::system_error `RTTI Type Descriptor'
	DD	00H
	DB	'.?AVsystem_error@std@@', 00H
data$r	ENDS
;	COMDAT ??_7system_error@std@@6B@
CONST	SEGMENT
??_7system_error@std@@6B@ DD FLAT:??_R4system_error@std@@6B@ ; std::system_error::`vftable'
	DD	FLAT:??_Esystem_error@std@@UAEPAXI@Z
	DD	FLAT:?what@exception@std@@UBEPBDXZ
CONST	ENDS
;	COMDAT ??_C@_02LMMGGCAJ@?3?5@
CONST	SEGMENT
??_C@_02LMMGGCAJ@?3?5@ DB ': ', 00H			; `string'
CONST	ENDS
;	COMDAT ??_7_System_error@std@@6B@
CONST	SEGMENT
??_7_System_error@std@@6B@ DD FLAT:??_R4_System_error@std@@6B@ ; std::_System_error::`vftable'
	DD	FLAT:??_E_System_error@std@@UAEPAXI@Z
	DD	FLAT:?what@exception@std@@UBEPBDXZ
CONST	ENDS
;	COMDAT __CT??_R0?AVruntime_error@std@@@8??0runtime_error@std@@QAE@ABV01@@Z12
xdata$x	SEGMENT
__CT??_R0?AVruntime_error@std@@@8??0runtime_error@std@@QAE@ABV01@@Z12 DD 00H
	DD	FLAT:??_R0?AVruntime_error@std@@@8
	DD	00H
	DD	0ffffffffH
	ORG $+4
	DD	0cH
	DD	FLAT:??0runtime_error@std@@QAE@ABV01@@Z
xdata$x	ENDS
;	COMDAT ??_R0?AVruntime_error@std@@@8
data$r	SEGMENT
??_R0?AVruntime_error@std@@@8 DD FLAT:??_7type_info@@6B@ ; std::runtime_error `RTTI Type Descriptor'
	DD	00H
	DB	'.?AVruntime_error@std@@', 00H
data$r	ENDS
;	COMDAT ??_7runtime_error@std@@6B@
CONST	SEGMENT
??_7runtime_error@std@@6B@ DD FLAT:??_R4runtime_error@std@@6B@ ; std::runtime_error::`vftable'
	DD	FLAT:??_Eruntime_error@std@@UAEPAXI@Z
	DD	FLAT:?what@exception@std@@UBEPBDXZ
CONST	ENDS
;	COMDAT ??_C@_0BA@JFNIOLAK@string?5too?5long@
CONST	SEGMENT
??_C@_0BA@JFNIOLAK@string?5too?5long@ DB 'string too long', 00H ; `string'
CONST	ENDS
;	COMDAT __CT??_R0?AVbad_alloc@std@@@8??0bad_alloc@std@@QAE@ABV01@@Z12
xdata$x	SEGMENT
__CT??_R0?AVbad_alloc@std@@@8??0bad_alloc@std@@QAE@ABV01@@Z12 DD 010H
	DD	FLAT:??_R0?AVbad_alloc@std@@@8
	DD	00H
	DD	0ffffffffH
	ORG $+4
	DD	0cH
	DD	FLAT:??0bad_alloc@std@@QAE@ABV01@@Z
xdata$x	ENDS
;	COMDAT ??_R0?AVbad_alloc@std@@@8
data$r	SEGMENT
??_R0?AVbad_alloc@std@@@8 DD FLAT:??_7type_info@@6B@	; std::bad_alloc `RTTI Type Descriptor'
	DD	00H
	DB	'.?AVbad_alloc@std@@', 00H
data$r	ENDS
;	COMDAT __CT??_R0?AVbad_array_new_length@std@@@8??0bad_array_new_length@std@@QAE@ABV01@@Z12
xdata$x	SEGMENT
__CT??_R0?AVbad_array_new_length@std@@@8??0bad_array_new_length@std@@QAE@ABV01@@Z12 DD 00H
	DD	FLAT:??_R0?AVbad_array_new_length@std@@@8
	DD	00H
	DD	0ffffffffH
	ORG $+4
	DD	0cH
	DD	FLAT:??0bad_array_new_length@std@@QAE@ABV01@@Z
xdata$x	ENDS
;	COMDAT ??_R0?AVbad_array_new_length@std@@@8
data$r	SEGMENT
??_R0?AVbad_array_new_length@std@@@8 DD FLAT:??_7type_info@@6B@ ; std::bad_array_new_length `RTTI Type Descriptor'
	DD	00H
	DB	'.?AVbad_array_new_length@std@@', 00H
data$r	ENDS
;	COMDAT __CTA3?AVbad_array_new_length@std@@
xdata$x	SEGMENT
__CTA3?AVbad_array_new_length@std@@ DD 03H
	DD	FLAT:__CT??_R0?AVbad_array_new_length@std@@@8??0bad_array_new_length@std@@QAE@ABV01@@Z12
	DD	FLAT:__CT??_R0?AVbad_alloc@std@@@8??0bad_alloc@std@@QAE@ABV01@@Z12
	DD	FLAT:__CT??_R0?AVexception@std@@@8??0exception@std@@QAE@ABV01@@Z12
xdata$x	ENDS
;	COMDAT __TI3?AVbad_array_new_length@std@@
xdata$x	SEGMENT
__TI3?AVbad_array_new_length@std@@ DD 00H
	DD	FLAT:??1bad_array_new_length@std@@UAE@XZ
	DD	00H
	DD	FLAT:__CTA3?AVbad_array_new_length@std@@
xdata$x	ENDS
;	COMDAT __CT??_R0?AVexception@std@@@8??0exception@std@@QAE@ABV01@@Z12
xdata$x	SEGMENT
__CT??_R0?AVexception@std@@@8??0exception@std@@QAE@ABV01@@Z12 DD 00H
	DD	FLAT:??_R0?AVexception@std@@@8
	DD	00H
	DD	0ffffffffH
	ORG $+4
	DD	0cH
	DD	FLAT:??0exception@std@@QAE@ABV01@@Z
xdata$x	ENDS
;	COMDAT ??_R0?AVexception@std@@@8
data$r	SEGMENT
??_R0?AVexception@std@@@8 DD FLAT:??_7type_info@@6B@	; std::exception `RTTI Type Descriptor'
	DD	00H
	DB	'.?AVexception@std@@', 00H
data$r	ENDS
;	COMDAT ??_C@_0BF@KINCDENJ@bad?5array?5new?5length@
CONST	SEGMENT
??_C@_0BF@KINCDENJ@bad?5array?5new?5length@ DB 'bad array new length', 00H ; `string'
CONST	ENDS
;	COMDAT ??_7bad_array_new_length@std@@6B@
CONST	SEGMENT
??_7bad_array_new_length@std@@6B@ DD FLAT:??_R4bad_array_new_length@std@@6B@ ; std::bad_array_new_length::`vftable'
	DD	FLAT:??_Ebad_array_new_length@std@@UAEPAXI@Z
	DD	FLAT:?what@exception@std@@UBEPBDXZ
CONST	ENDS
;	COMDAT ??_7bad_alloc@std@@6B@
CONST	SEGMENT
??_7bad_alloc@std@@6B@ DD FLAT:??_R4bad_alloc@std@@6B@	; std::bad_alloc::`vftable'
	DD	FLAT:??_Ebad_alloc@std@@UAEPAXI@Z
	DD	FLAT:?what@exception@std@@UBEPBDXZ
CONST	ENDS
;	COMDAT ??_C@_0BC@EOODALEL@Unknown?5exception@
CONST	SEGMENT
??_C@_0BC@EOODALEL@Unknown?5exception@ DB 'Unknown exception', 00H ; `string'
CONST	ENDS
;	COMDAT ??_7exception@std@@6B@
CONST	SEGMENT
??_7exception@std@@6B@ DD FLAT:??_R4exception@std@@6B@	; std::exception::`vftable'
	DD	FLAT:??_Eexception@std@@UAEPAXI@Z
	DD	FLAT:?what@exception@std@@UBEPBDXZ
CONST	ENDS
;	COMDAT xdata$x
xdata$x	SEGMENT
__unwindtable$?_Init@?$numpunct@D@std@@IAEXABV_Locinfo@2@_N@Z DD 0ffffffffH
	DD	FLAT:__unwindfunclet$?_Init@?$numpunct@D@std@@IAEXABV_Locinfo@2@_N@Z$0
__ehfuncinfo$?_Init@?$numpunct@D@std@@IAEXABV_Locinfo@2@_N@Z DD 019930522H
	DD	01H
	DD	FLAT:__unwindtable$?_Init@?$numpunct@D@std@@IAEXABV_Locinfo@2@_N@Z
	DD	2 DUP(00H)
	DD	2 DUP(00H)
	DD	00H
	DD	01H
xdata$x	ENDS
;	COMDAT xdata$x
xdata$x	SEGMENT
__ehfuncinfo$?_Getcat@?$numpunct@D@std@@SAIPAPBVfacet@locale@2@PBV42@@Z DD 019930522H
	DD	05H
	DD	FLAT:__unwindtable$?_Getcat@?$numpunct@D@std@@SAIPAPBVfacet@locale@2@PBV42@@Z
	DD	2 DUP(00H)
	DD	2 DUP(00H)
	DD	00H
	DD	01H
__unwindtable$?_Getcat@?$numpunct@D@std@@SAIPAPBVfacet@locale@2@PBV42@@Z DD 0ffffffffH
	DD	FLAT:__unwindfunclet$?_Getcat@?$numpunct@D@std@@SAIPAPBVfacet@locale@2@PBV42@@Z$0
	DD	00H
	DD	FLAT:__unwindfunclet$?_Getcat@?$numpunct@D@std@@SAIPAPBVfacet@locale@2@PBV42@@Z$1
	DD	01H
	DD	FLAT:__unwindfunclet$?_Getcat@?$numpunct@D@std@@SAIPAPBVfacet@locale@2@PBV42@@Z$2
	DD	02H
	DD	FLAT:__unwindfunclet$?_Getcat@?$numpunct@D@std@@SAIPAPBVfacet@locale@2@PBV42@@Z$4
	DD	0ffffffffH
	DD	FLAT:__unwindfunclet$?_Getcat@?$numpunct@D@std@@SAIPAPBVfacet@locale@2@PBV42@@Z$1
xdata$x	ENDS
;	COMDAT xdata$x
xdata$x	SEGMENT
__unwindtable$??0?$numpunct@D@std@@QAE@ABV_Locinfo@1@I_N@Z DD 0ffffffffH
	DD	FLAT:__unwindfunclet$??0?$numpunct@D@std@@QAE@ABV_Locinfo@1@I_N@Z$0
	DD	00H
	DD	FLAT:__unwindfunclet$??0?$numpunct@D@std@@QAE@ABV_Locinfo@1@I_N@Z$2
__ehfuncinfo$??0?$numpunct@D@std@@QAE@ABV_Locinfo@1@I_N@Z DD 019930522H
	DD	02H
	DD	FLAT:__unwindtable$??0?$numpunct@D@std@@QAE@ABV_Locinfo@1@I_N@Z
	DD	2 DUP(00H)
	DD	2 DUP(00H)
	DD	00H
	DD	01H
xdata$x	ENDS
;	COMDAT xdata$x
xdata$x	SEGMENT
__ehfuncinfo$??$use_facet@V?$numpunct@D@std@@@std@@YAABV?$numpunct@D@0@ABVlocale@0@@Z DD 019930522H
	DD	07H
	DD	FLAT:__unwindtable$??$use_facet@V?$numpunct@D@std@@@std@@YAABV?$numpunct@D@0@ABVlocale@0@@Z
	DD	2 DUP(00H)
	DD	2 DUP(00H)
	DD	00H
	DD	01H
__unwindtable$??$use_facet@V?$numpunct@D@std@@@std@@YAABV?$numpunct@D@0@ABVlocale@0@@Z DD 0ffffffffH
	DD	FLAT:__unwindfunclet$??$use_facet@V?$numpunct@D@std@@@std@@YAABV?$numpunct@D@0@ABVlocale@0@@Z$0
	DD	00H
	DD	FLAT:__unwindfunclet$??$use_facet@V?$numpunct@D@std@@@std@@YAABV?$numpunct@D@0@ABVlocale@0@@Z$2
	DD	01H
	DD	FLAT:__unwindfunclet$??$use_facet@V?$numpunct@D@std@@@std@@YAABV?$numpunct@D@0@ABVlocale@0@@Z$3
	DD	02H
	DD	FLAT:__unwindfunclet$??$use_facet@V?$numpunct@D@std@@@std@@YAABV?$numpunct@D@0@ABVlocale@0@@Z$4
	DD	03H
	DD	FLAT:__unwindfunclet$??$use_facet@V?$numpunct@D@std@@@std@@YAABV?$numpunct@D@0@ABVlocale@0@@Z$6
	DD	00H
	DD	FLAT:__unwindfunclet$??$use_facet@V?$numpunct@D@std@@@std@@YAABV?$numpunct@D@0@ABVlocale@0@@Z$3
	DD	00H
	DD	FLAT:__unwindfunclet$??$use_facet@V?$numpunct@D@std@@@std@@YAABV?$numpunct@D@0@ABVlocale@0@@Z$1
xdata$x	ENDS
;	COMDAT xdata$x
xdata$x	SEGMENT
__unwindtable$??$_Fput_v3@$0A@@?$num_put@DV?$ostreambuf_iterator@DU?$char_traits@D@std@@@std@@@std@@ABE?AV?$ostreambuf_iterator@DU?$char_traits@D@std@@@1@V21@AAVios_base@1@DPBDI_N@Z DD 0ffffffffH
	DD	FLAT:__unwindfunclet$??$_Fput_v3@$0A@@?$num_put@DV?$ostreambuf_iterator@DU?$char_traits@D@std@@@std@@@std@@ABE?AV?$ostreambuf_iterator@DU?$char_traits@D@std@@@1@V21@AAVios_base@1@DPBDI_N@Z$0
	DD	0ffffffffH
	DD	FLAT:__unwindfunclet$??$_Fput_v3@$0A@@?$num_put@DV?$ostreambuf_iterator@DU?$char_traits@D@std@@@std@@@std@@ABE?AV?$ostreambuf_iterator@DU?$char_traits@D@std@@@1@V21@AAVios_base@1@DPBDI_N@Z$1
	DD	01H
	DD	FLAT:__unwindfunclet$??$_Fput_v3@$0A@@?$num_put@DV?$ostreambuf_iterator@DU?$char_traits@D@std@@@std@@@std@@ABE?AV?$ostreambuf_iterator@DU?$char_traits@D@std@@@1@V21@AAVios_base@1@DPBDI_N@Z$2
	DD	01H
	DD	FLAT:__unwindfunclet$??$_Fput_v3@$0A@@?$num_put@DV?$ostreambuf_iterator@DU?$char_traits@D@std@@@std@@@std@@ABE?AV?$ostreambuf_iterator@DU?$char_traits@D@std@@@1@V21@AAVios_base@1@DPBDI_N@Z$3
__ehfuncinfo$??$_Fput_v3@$0A@@?$num_put@DV?$ostreambuf_iterator@DU?$char_traits@D@std@@@std@@@std@@ABE?AV?$ostreambuf_iterator@DU?$char_traits@D@std@@@1@V21@AAVios_base@1@DPBDI_N@Z DD 019930522H
	DD	04H
	DD	FLAT:__unwindtable$??$_Fput_v3@$0A@@?$num_put@DV?$ostreambuf_iterator@DU?$char_traits@D@std@@@std@@@std@@ABE?AV?$ostreambuf_iterator@DU?$char_traits@D@std@@@1@V21@AAVios_base@1@DPBDI_N@Z
	DD	2 DUP(00H)
	DD	2 DUP(00H)
	DD	00H
	DD	01H
xdata$x	ENDS
;	COMDAT xdata$x
xdata$x	SEGMENT
__unwindtable$?_Iput@?$num_put@DV?$ostreambuf_iterator@DU?$char_traits@D@std@@@std@@@std@@ABA?AV?$ostreambuf_iterator@DU?$char_traits@D@std@@@2@V32@AAVios_base@2@DPADI@Z DD 0ffffffffH
	DD	FLAT:__unwindfunclet$?_Iput@?$num_put@DV?$ostreambuf_iterator@DU?$char_traits@D@std@@@std@@@std@@ABA?AV?$ostreambuf_iterator@DU?$char_traits@D@std@@@2@V32@AAVios_base@2@DPADI@Z$0
	DD	0ffffffffH
	DD	FLAT:__unwindfunclet$?_Iput@?$num_put@DV?$ostreambuf_iterator@DU?$char_traits@D@std@@@std@@@std@@ABA?AV?$ostreambuf_iterator@DU?$char_traits@D@std@@@2@V32@AAVios_base@2@DPADI@Z$1
	DD	01H
	DD	FLAT:__unwindfunclet$?_Iput@?$num_put@DV?$ostreambuf_iterator@DU?$char_traits@D@std@@@std@@@std@@ABA?AV?$ostreambuf_iterator@DU?$char_traits@D@std@@@2@V32@AAVios_base@2@DPADI@Z$2
	DD	01H
	DD	FLAT:__unwindfunclet$?_Iput@?$num_put@DV?$ostreambuf_iterator@DU?$char_traits@D@std@@@std@@@std@@ABA?AV?$ostreambuf_iterator@DU?$char_traits@D@std@@@2@V32@AAVios_base@2@DPADI@Z$3
__ehfuncinfo$?_Iput@?$num_put@DV?$ostreambuf_iterator@DU?$char_traits@D@std@@@std@@@std@@ABA?AV?$ostreambuf_iterator@DU?$char_traits@D@std@@@2@V32@AAVios_base@2@DPADI@Z DD 019930522H
	DD	04H
	DD	FLAT:__unwindtable$?_Iput@?$num_put@DV?$ostreambuf_iterator@DU?$char_traits@D@std@@@std@@@std@@ABA?AV?$ostreambuf_iterator@DU?$char_traits@D@std@@@2@V32@AAVios_base@2@DPADI@Z
	DD	2 DUP(00H)
	DD	2 DUP(00H)
	DD	00H
	DD	01H
xdata$x	ENDS
;	COMDAT xdata$x
xdata$x	SEGMENT
__unwindtable$?do_put@?$num_put@DV?$ostreambuf_iterator@DU?$char_traits@D@std@@@std@@@std@@MBE?AV?$ostreambuf_iterator@DU?$char_traits@D@std@@@2@V32@AAVios_base@2@DO@Z DD 0ffffffffH
	DD	FLAT:__unwindfunclet$?do_put@?$num_put@DV?$ostreambuf_iterator@DU?$char_traits@D@std@@@std@@@std@@MBE?AV?$ostreambuf_iterator@DU?$char_traits@D@std@@@2@V32@AAVios_base@2@DO@Z$0
__ehfuncinfo$?do_put@?$num_put@DV?$ostreambuf_iterator@DU?$char_traits@D@std@@@std@@@std@@MBE?AV?$ostreambuf_iterator@DU?$char_traits@D@std@@@2@V32@AAVios_base@2@DO@Z DD 019930522H
	DD	01H
	DD	FLAT:__unwindtable$?do_put@?$num_put@DV?$ostreambuf_iterator@DU?$char_traits@D@std@@@std@@@std@@MBE?AV?$ostreambuf_iterator@DU?$char_traits@D@std@@@2@V32@AAVios_base@2@DO@Z
	DD	2 DUP(00H)
	DD	2 DUP(00H)
	DD	00H
	DD	01H
xdata$x	ENDS
;	COMDAT xdata$x
xdata$x	SEGMENT
__unwindtable$?do_put@?$num_put@DV?$ostreambuf_iterator@DU?$char_traits@D@std@@@std@@@std@@MBE?AV?$ostreambuf_iterator@DU?$char_traits@D@std@@@2@V32@AAVios_base@2@DN@Z DD 0ffffffffH
	DD	FLAT:__unwindfunclet$?do_put@?$num_put@DV?$ostreambuf_iterator@DU?$char_traits@D@std@@@std@@@std@@MBE?AV?$ostreambuf_iterator@DU?$char_traits@D@std@@@2@V32@AAVios_base@2@DN@Z$0
__ehfuncinfo$?do_put@?$num_put@DV?$ostreambuf_iterator@DU?$char_traits@D@std@@@std@@@std@@MBE?AV?$ostreambuf_iterator@DU?$char_traits@D@std@@@2@V32@AAVios_base@2@DN@Z DD 019930522H
	DD	01H
	DD	FLAT:__unwindtable$?do_put@?$num_put@DV?$ostreambuf_iterator@DU?$char_traits@D@std@@@std@@@std@@MBE?AV?$ostreambuf_iterator@DU?$char_traits@D@std@@@2@V32@AAVios_base@2@DN@Z
	DD	2 DUP(00H)
	DD	2 DUP(00H)
	DD	00H
	DD	01H
xdata$x	ENDS
;	COMDAT xdata$x
xdata$x	SEGMENT
__unwindtable$?do_put@?$num_put@DV?$ostreambuf_iterator@DU?$char_traits@D@std@@@std@@@std@@MBE?AV?$ostreambuf_iterator@DU?$char_traits@D@std@@@2@V32@AAVios_base@2@D_N@Z DD 0ffffffffH
	DD	FLAT:__unwindfunclet$?do_put@?$num_put@DV?$ostreambuf_iterator@DU?$char_traits@D@std@@@std@@@std@@MBE?AV?$ostreambuf_iterator@DU?$char_traits@D@std@@@2@V32@AAVios_base@2@D_N@Z$0
	DD	0ffffffffH
	DD	FLAT:__unwindfunclet$?do_put@?$num_put@DV?$ostreambuf_iterator@DU?$char_traits@D@std@@@std@@@std@@MBE?AV?$ostreambuf_iterator@DU?$char_traits@D@std@@@2@V32@AAVios_base@2@D_N@Z$1
__ehfuncinfo$?do_put@?$num_put@DV?$ostreambuf_iterator@DU?$char_traits@D@std@@@std@@@std@@MBE?AV?$ostreambuf_iterator@DU?$char_traits@D@std@@@2@V32@AAVios_base@2@D_N@Z DD 019930522H
	DD	02H
	DD	FLAT:__unwindtable$?do_put@?$num_put@DV?$ostreambuf_iterator@DU?$char_traits@D@std@@@std@@@std@@MBE?AV?$ostreambuf_iterator@DU?$char_traits@D@std@@@2@V32@AAVios_base@2@D_N@Z
	DD	2 DUP(00H)
	DD	2 DUP(00H)
	DD	00H
	DD	01H
xdata$x	ENDS
;	COMDAT xdata$x
xdata$x	SEGMENT
__unwindtable$?_Getcat@?$num_put@DV?$ostreambuf_iterator@DU?$char_traits@D@std@@@std@@@std@@SAIPAPBVfacet@locale@2@PBV42@@Z DD 0ffffffffH
	DD	FLAT:__unwindfunclet$?_Getcat@?$num_put@DV?$ostreambuf_iterator@DU?$char_traits@D@std@@@std@@@std@@SAIPAPBVfacet@locale@2@PBV42@@Z$0
__ehfuncinfo$?_Getcat@?$num_put@DV?$ostreambuf_iterator@DU?$char_traits@D@std@@@std@@@std@@SAIPAPBVfacet@locale@2@PBV42@@Z DD 019930522H
	DD	01H
	DD	FLAT:__unwindtable$?_Getcat@?$num_put@DV?$ostreambuf_iterator@DU?$char_traits@D@std@@@std@@@std@@SAIPAPBVfacet@locale@2@PBV42@@Z
	DD	2 DUP(00H)
	DD	2 DUP(00H)
	DD	00H
	DD	01H
xdata$x	ENDS
;	COMDAT xdata$x
xdata$x	SEGMENT
__unwindtable$??$use_facet@V?$num_put@DV?$ostreambuf_iterator@DU?$char_traits@D@std@@@std@@@std@@@std@@YAABV?$num_put@DV?$ostreambuf_iterator@DU?$char_traits@D@std@@@std@@@0@ABVlocale@0@@Z DD 0ffffffffH
	DD	FLAT:__unwindfunclet$??$use_facet@V?$num_put@DV?$ostreambuf_iterator@DU?$char_traits@D@std@@@std@@@std@@@std@@YAABV?$num_put@DV?$ostreambuf_iterator@DU?$char_traits@D@std@@@std@@@0@ABVlocale@0@@Z$0
	DD	00H
	DD	FLAT:__unwindfunclet$??$use_facet@V?$num_put@DV?$ostreambuf_iterator@DU?$char_traits@D@std@@@std@@@std@@@std@@YAABV?$num_put@DV?$ostreambuf_iterator@DU?$char_traits@D@std@@@std@@@0@ABVlocale@0@@Z$2
	DD	00H
	DD	FLAT:__unwindfunclet$??$use_facet@V?$num_put@DV?$ostreambuf_iterator@DU?$char_traits@D@std@@@std@@@std@@@std@@YAABV?$num_put@DV?$ostreambuf_iterator@DU?$char_traits@D@std@@@std@@@0@ABVlocale@0@@Z$1
__ehfuncinfo$??$use_facet@V?$num_put@DV?$ostreambuf_iterator@DU?$char_traits@D@std@@@std@@@std@@@std@@YAABV?$num_put@DV?$ostreambuf_iterator@DU?$char_traits@D@std@@@std@@@0@ABVlocale@0@@Z DD 019930522H
	DD	03H
	DD	FLAT:__unwindtable$??$use_facet@V?$num_put@DV?$ostreambuf_iterator@DU?$char_traits@D@std@@@std@@@std@@@std@@YAABV?$num_put@DV?$ostreambuf_iterator@DU?$char_traits@D@std@@@std@@@0@ABVlocale@0@@Z
	DD	2 DUP(00H)
	DD	2 DUP(00H)
	DD	00H
	DD	01H
xdata$x	ENDS
;	COMDAT xdata$x
xdata$x	SEGMENT
__unwindtable$??1sentry@?$basic_ostream@DU?$char_traits@D@std@@@std@@QAE@XZ DD 0ffffffffH
	DD	FLAT:___std_terminate
__ehfuncinfo$??1sentry@?$basic_ostream@DU?$char_traits@D@std@@@std@@QAE@XZ DD 019930522H
	DD	01H
	DD	FLAT:__unwindtable$??1sentry@?$basic_ostream@DU?$char_traits@D@std@@@std@@QAE@XZ
	DD	2 DUP(00H)
	DD	2 DUP(00H)
	DD	00H
	DD	05H
xdata$x	ENDS
;	COMDAT xdata$x
xdata$x	SEGMENT
__unwindtable$??0sentry@?$basic_ostream@DU?$char_traits@D@std@@@std@@QAE@AAV12@@Z DD 0ffffffffH
	DD	FLAT:__unwindfunclet$??0sentry@?$basic_ostream@DU?$char_traits@D@std@@@std@@QAE@AAV12@@Z$0
__ehfuncinfo$??0sentry@?$basic_ostream@DU?$char_traits@D@std@@@std@@QAE@AAV12@@Z DD 019930522H
	DD	01H
	DD	FLAT:__unwindtable$??0sentry@?$basic_ostream@DU?$char_traits@D@std@@@std@@QAE@AAV12@@Z
	DD	2 DUP(00H)
	DD	2 DUP(00H)
	DD	00H
	DD	01H
xdata$x	ENDS
;	COMDAT xdata$x
xdata$x	SEGMENT
__ehfuncinfo$??1_Sentry_base@?$basic_ostream@DU?$char_traits@D@std@@@std@@QAE@XZ DD 019930522H
	DD	00H
	DD	00H
	DD	2 DUP(00H)
	DD	2 DUP(00H)
	DD	00H
	DD	05H
xdata$x	ENDS
;	COMDAT xdata$x
xdata$x	SEGMENT
__catchsym$??$?6U?$char_traits@D@std@@@std@@YAAAV?$basic_ostream@DU?$char_traits@D@std@@@0@AAV10@PBD@Z$5 DD 040H
	DD	00H
	DD	00H
	DD	FLAT:__catch$??$?6U?$char_traits@D@std@@@std@@YAAAV?$basic_ostream@DU?$char_traits@D@std@@@0@AAV10@PBD@Z$0
__tryblocktable$??$?6U?$char_traits@D@std@@@std@@YAAAV?$basic_ostream@DU?$char_traits@D@std@@@0@AAV10@PBD@Z DD 01H
	DD	01H
	DD	02H
	DD	01H
	DD	FLAT:__catchsym$??$?6U?$char_traits@D@std@@@std@@YAAAV?$basic_ostream@DU?$char_traits@D@std@@@0@AAV10@PBD@Z$5
__unwindtable$??$?6U?$char_traits@D@std@@@std@@YAAAV?$basic_ostream@DU?$char_traits@D@std@@@0@AAV10@PBD@Z DD 0ffffffffH
	DD	FLAT:__unwindfunclet$??$?6U?$char_traits@D@std@@@std@@YAAAV?$basic_ostream@DU?$char_traits@D@std@@@0@AAV10@PBD@Z$2
	DD	00H
	DD	00H
	DD	00H
	DD	00H
	DD	0ffffffffH
	DD	FLAT:___std_terminate
__ehfuncinfo$??$?6U?$char_traits@D@std@@@std@@YAAAV?$basic_ostream@DU?$char_traits@D@std@@@0@AAV10@PBD@Z DD 019930522H
	DD	04H
	DD	FLAT:__unwindtable$??$?6U?$char_traits@D@std@@@std@@YAAAV?$basic_ostream@DU?$char_traits@D@std@@@0@AAV10@PBD@Z
	DD	01H
	DD	FLAT:__tryblocktable$??$?6U?$char_traits@D@std@@@std@@YAAAV?$basic_ostream@DU?$char_traits@D@std@@@0@AAV10@PBD@Z
	DD	2 DUP(00H)
	DD	00H
	DD	01H
xdata$x	ENDS
;	COMDAT xdata$x
xdata$x	SEGMENT
__catchsym$?flush@?$basic_ostream@DU?$char_traits@D@std@@@std@@QAEAAV12@XZ$12 DD 040H
	DD	00H
	DD	00H
	DD	FLAT:__catch$?flush@?$basic_ostream@DU?$char_traits@D@std@@@std@@QAEAAV12@XZ$0
__tryblocktable$?flush@?$basic_ostream@DU?$char_traits@D@std@@@std@@QAEAAV12@XZ DD 01H
	DD	01H
	DD	02H
	DD	01H
	DD	FLAT:__catchsym$?flush@?$basic_ostream@DU?$char_traits@D@std@@@std@@QAEAAV12@XZ$12
__unwindtable$?flush@?$basic_ostream@DU?$char_traits@D@std@@@std@@QAEAAV12@XZ DD 0ffffffffH
	DD	FLAT:__unwindfunclet$?flush@?$basic_ostream@DU?$char_traits@D@std@@@std@@QAEAAV12@XZ$2
	DD	00H
	DD	00H
	DD	00H
	DD	00H
	DD	0ffffffffH
	DD	FLAT:___std_terminate
__ehfuncinfo$?flush@?$basic_ostream@DU?$char_traits@D@std@@@std@@QAEAAV12@XZ DD 019930522H
	DD	04H
	DD	FLAT:__unwindtable$?flush@?$basic_ostream@DU?$char_traits@D@std@@@std@@QAEAAV12@XZ
	DD	01H
	DD	FLAT:__tryblocktable$?flush@?$basic_ostream@DU?$char_traits@D@std@@@std@@QAEAAV12@XZ
	DD	2 DUP(00H)
	DD	00H
	DD	01H
xdata$x	ENDS
;	COMDAT xdata$x
xdata$x	SEGMENT
__catchsym$??6?$basic_ostream@DU?$char_traits@D@std@@@std@@QAEAAV01@K@Z$7 DD 040H
	DD	00H
	DD	00H
	DD	FLAT:__catch$??6?$basic_ostream@DU?$char_traits@D@std@@@std@@QAEAAV01@K@Z$0
__tryblocktable$??6?$basic_ostream@DU?$char_traits@D@std@@@std@@QAEAAV01@K@Z DD 02H
	DD	02H
	DD	03H
	DD	01H
	DD	FLAT:__catchsym$??6?$basic_ostream@DU?$char_traits@D@std@@@std@@QAEAAV01@K@Z$7
__ehfuncinfo$??6?$basic_ostream@DU?$char_traits@D@std@@@std@@QAEAAV01@K@Z DD 019930522H
	DD	05H
	DD	FLAT:__unwindtable$??6?$basic_ostream@DU?$char_traits@D@std@@@std@@QAEAAV01@K@Z
	DD	01H
	DD	FLAT:__tryblocktable$??6?$basic_ostream@DU?$char_traits@D@std@@@std@@QAEAAV01@K@Z
	DD	2 DUP(00H)
	DD	00H
	DD	01H
__unwindtable$??6?$basic_ostream@DU?$char_traits@D@std@@@std@@QAEAAV01@K@Z DD 0ffffffffH
	DD	FLAT:__unwindfunclet$??6?$basic_ostream@DU?$char_traits@D@std@@@std@@QAEAAV01@K@Z$2
	DD	00H
	DD	FLAT:__unwindfunclet$??6?$basic_ostream@DU?$char_traits@D@std@@@std@@QAEAAV01@K@Z$3
	DD	00H
	DD	00H
	DD	00H
	DD	00H
	DD	0ffffffffH
	DD	FLAT:___std_terminate
xdata$x	ENDS
;	COMDAT xdata$x
xdata$x	SEGMENT
__catchsym$?_Osfx@?$basic_ostream@DU?$char_traits@D@std@@@std@@QAEXXZ$2 DD 040H
	DD	00H
	DD	00H
	DD	FLAT:__catch$?_Osfx@?$basic_ostream@DU?$char_traits@D@std@@@std@@QAEXXZ$0
__unwindtable$?_Osfx@?$basic_ostream@DU?$char_traits@D@std@@@std@@QAEXXZ DD 0ffffffffH
	DD	00H
	DD	0ffffffffH
	DD	00H
__tryblocktable$?_Osfx@?$basic_ostream@DU?$char_traits@D@std@@@std@@QAEXXZ DD 00H
	DD	00H
	DD	01H
	DD	01H
	DD	FLAT:__catchsym$?_Osfx@?$basic_ostream@DU?$char_traits@D@std@@@std@@QAEXXZ$2
__ehfuncinfo$?_Osfx@?$basic_ostream@DU?$char_traits@D@std@@@std@@QAEXXZ DD 019930522H
	DD	02H
	DD	FLAT:__unwindtable$?_Osfx@?$basic_ostream@DU?$char_traits@D@std@@@std@@QAEXXZ
	DD	01H
	DD	FLAT:__tryblocktable$?_Osfx@?$basic_ostream@DU?$char_traits@D@std@@@std@@QAEXXZ
	DD	2 DUP(00H)
	DD	00H
	DD	05H
xdata$x	ENDS
;	COMDAT xdata$x
xdata$x	SEGMENT
__unwindtable$??0failure@ios_base@std@@QAE@PBDABVerror_code@2@@Z DD 0ffffffffH
	DD	FLAT:__unwindfunclet$??0failure@ios_base@std@@QAE@PBDABVerror_code@2@@Z$1
__ehfuncinfo$??0failure@ios_base@std@@QAE@PBDABVerror_code@2@@Z DD 019930522H
	DD	01H
	DD	FLAT:__unwindtable$??0failure@ios_base@std@@QAE@PBDABVerror_code@2@@Z
	DD	2 DUP(00H)
	DD	2 DUP(00H)
	DD	00H
	DD	01H
xdata$x	ENDS
;	COMDAT xdata$x
xdata$x	SEGMENT
__unwindtable$??$use_facet@V?$ctype@D@std@@@std@@YAABV?$ctype@D@0@ABVlocale@0@@Z DD 0ffffffffH
	DD	FLAT:__unwindfunclet$??$use_facet@V?$ctype@D@std@@@std@@YAABV?$ctype@D@0@ABVlocale@0@@Z$0
	DD	00H
	DD	FLAT:__unwindfunclet$??$use_facet@V?$ctype@D@std@@@std@@YAABV?$ctype@D@0@ABVlocale@0@@Z$2
	DD	00H
	DD	FLAT:__unwindfunclet$??$use_facet@V?$ctype@D@std@@@std@@YAABV?$ctype@D@0@ABVlocale@0@@Z$1
__ehfuncinfo$??$use_facet@V?$ctype@D@std@@@std@@YAABV?$ctype@D@0@ABVlocale@0@@Z DD 019930522H
	DD	03H
	DD	FLAT:__unwindtable$??$use_facet@V?$ctype@D@std@@@std@@YAABV?$ctype@D@0@ABVlocale@0@@Z
	DD	2 DUP(00H)
	DD	2 DUP(00H)
	DD	00H
	DD	01H
xdata$x	ENDS
;	COMDAT xdata$x
xdata$x	SEGMENT
__unwindtable$?_Getcat@?$ctype@D@std@@SAIPAPBVfacet@locale@2@PBV42@@Z DD 0ffffffffH
	DD	FLAT:__unwindfunclet$?_Getcat@?$ctype@D@std@@SAIPAPBVfacet@locale@2@PBV42@@Z$0
__ehfuncinfo$?_Getcat@?$ctype@D@std@@SAIPAPBVfacet@locale@2@PBV42@@Z DD 019930522H
	DD	01H
	DD	FLAT:__unwindtable$?_Getcat@?$ctype@D@std@@SAIPAPBVfacet@locale@2@PBV42@@Z
	DD	2 DUP(00H)
	DD	2 DUP(00H)
	DD	00H
	DD	01H
xdata$x	ENDS
;	COMDAT xdata$x
xdata$x	SEGMENT
__ehfuncinfo$??1_Locinfo@std@@QAE@XZ DD 019930522H
	DD	00H
	DD	00H
	DD	2 DUP(00H)
	DD	2 DUP(00H)
	DD	00H
	DD	05H
xdata$x	ENDS
;	COMDAT xdata$x
xdata$x	SEGMENT
__ehfuncinfo$??0_Locinfo@std@@QAE@PBD@Z DD 019930522H
	DD	07H
	DD	FLAT:__unwindtable$??0_Locinfo@std@@QAE@PBD@Z
	DD	2 DUP(00H)
	DD	2 DUP(00H)
	DD	00H
	DD	01H
__unwindtable$??0_Locinfo@std@@QAE@PBD@Z DD 0ffffffffH
	DD	FLAT:__unwindfunclet$??0_Locinfo@std@@QAE@PBD@Z$0
	DD	00H
	DD	FLAT:__unwindfunclet$??0_Locinfo@std@@QAE@PBD@Z$1
	DD	01H
	DD	FLAT:__unwindfunclet$??0_Locinfo@std@@QAE@PBD@Z$2
	DD	02H
	DD	FLAT:__unwindfunclet$??0_Locinfo@std@@QAE@PBD@Z$3
	DD	03H
	DD	FLAT:__unwindfunclet$??0_Locinfo@std@@QAE@PBD@Z$4
	DD	04H
	DD	FLAT:__unwindfunclet$??0_Locinfo@std@@QAE@PBD@Z$5
	DD	05H
	DD	FLAT:__unwindfunclet$??0_Locinfo@std@@QAE@PBD@Z$6
xdata$x	ENDS
;	COMDAT xdata$x
xdata$x	SEGMENT
__unwindtable$??0system_error@std@@QAE@Verror_code@1@PBD@Z DD 0ffffffffH
	DD	FLAT:__unwindfunclet$??0system_error@std@@QAE@Verror_code@1@PBD@Z$0
__ehfuncinfo$??0system_error@std@@QAE@Verror_code@1@PBD@Z DD 019930522H
	DD	01H
	DD	FLAT:__unwindtable$??0system_error@std@@QAE@Verror_code@1@PBD@Z
	DD	2 DUP(00H)
	DD	2 DUP(00H)
	DD	00H
	DD	01H
xdata$x	ENDS
;	COMDAT xdata$x
xdata$x	SEGMENT
__unwindtable$??0_System_error@std@@IAE@Verror_code@1@ABV?$basic_string@DU?$char_traits@D@std@@V?$allocator@D@2@@1@@Z DD 0ffffffffH
	DD	FLAT:__unwindfunclet$??0_System_error@std@@IAE@Verror_code@1@ABV?$basic_string@DU?$char_traits@D@std@@V?$allocator@D@2@@1@@Z$5
	DD	00H
	DD	FLAT:__unwindfunclet$??0_System_error@std@@IAE@Verror_code@1@ABV?$basic_string@DU?$char_traits@D@std@@V?$allocator@D@2@@1@@Z$6
__ehfuncinfo$??0_System_error@std@@IAE@Verror_code@1@ABV?$basic_string@DU?$char_traits@D@std@@V?$allocator@D@2@@1@@Z DD 019930522H
	DD	02H
	DD	FLAT:__unwindtable$??0_System_error@std@@IAE@Verror_code@1@ABV?$basic_string@DU?$char_traits@D@std@@V?$allocator@D@2@@1@@Z
	DD	2 DUP(00H)
	DD	2 DUP(00H)
	DD	00H
	DD	01H
xdata$x	ENDS
;	COMDAT xdata$x
xdata$x	SEGMENT
__unwindtable$?_Makestr@_System_error@std@@CA?AV?$basic_string@DU?$char_traits@D@std@@V?$allocator@D@2@@2@Verror_code@2@V32@@Z DD 0ffffffffH
	DD	FLAT:__unwindfunclet$?_Makestr@_System_error@std@@CA?AV?$basic_string@DU?$char_traits@D@std@@V?$allocator@D@2@@2@Verror_code@2@V32@@Z$0
	DD	00H
	DD	FLAT:__unwindfunclet$?_Makestr@_System_error@std@@CA?AV?$basic_string@DU?$char_traits@D@std@@V?$allocator@D@2@@2@Verror_code@2@V32@@Z$1
__ehfuncinfo$?_Makestr@_System_error@std@@CA?AV?$basic_string@DU?$char_traits@D@std@@V?$allocator@D@2@@2@Verror_code@2@V32@@Z DD 019930522H
	DD	02H
	DD	FLAT:__unwindtable$?_Makestr@_System_error@std@@CA?AV?$basic_string@DU?$char_traits@D@std@@V?$allocator@D@2@@2@Verror_code@2@V32@@Z
	DD	2 DUP(00H)
	DD	2 DUP(00H)
	DD	00H
	DD	01H
xdata$x	ENDS
; Function compile flags: /Ogtp
; File C:\Program Files\Microsoft Visual Studio\2022\Community\VC\Tools\MSVC\14.44.35207\include\xlocale
;	COMDAT ??$_Maklocchr@D@std@@YADDPADABU_Cvtvec@@@Z
_TEXT	SEGMENT
__Byte$ = 8						; size = 1
___formal$ = 12						; size = 4
___formal$ = 16						; size = 4
??$_Maklocchr@D@std@@YADDPADABU_Cvtvec@@@Z PROC		; std::_Maklocchr<char>, COMDAT

; 500  : _Elem __CRTDECL _Maklocchr(char _Byte, _Elem*, const _Locinfo::_Cvtvec&) {

  00000	55		 push	 ebp
  00001	8b ec		 mov	 ebp, esp

; 501  :     // convert char to _Elem using _Cvtvec
; 502  :     return static_cast<_Elem>(static_cast<unsigned char>(_Byte));

  00003	8a 45 08	 mov	 al, BYTE PTR __Byte$[ebp]

; 503  : }

  00006	5d		 pop	 ebp
  00007	c3		 ret	 0
??$_Maklocchr@D@std@@YADDPADABU_Cvtvec@@@Z ENDP		; std::_Maklocchr<char>
_TEXT	ENDS
; Function compile flags: /Ogtp
; File C:\Program Files\Microsoft Visual Studio\2022\Community\VC\Tools\MSVC\14.44.35207\include\xlocale
;	COMDAT ??$_Maklocstr@D@std@@YAPADPBDPADABU_Cvtvec@@@Z
_TEXT	SEGMENT
__Ptr$ = 8						; size = 4
___formal$ = 12						; size = 4
___formal$ = 16						; size = 4
??$_Maklocstr@D@std@@YAPADPBDPADABU_Cvtvec@@@Z PROC	; std::_Maklocstr<char>, COMDAT

; 526  : _Elem* __CRTDECL _Maklocstr(const char* _Ptr, _Elem*, const _Locinfo::_Cvtvec&) {

  00000	55		 push	 ebp
  00001	8b ec		 mov	 ebp, esp

; 527  :     // convert C string to _Elem sequence using _Cvtvec
; 528  :     size_t _Count = _CSTD strlen(_Ptr) + 1;

  00003	8b 45 08	 mov	 eax, DWORD PTR __Ptr$[ebp]
  00006	8d 50 01	 lea	 edx, DWORD PTR [eax+1]
  00009	0f 1f 80 00 00
	00 00		 npad	 7
$LL11@Maklocstr:
  00010	8a 08		 mov	 cl, BYTE PTR [eax]
  00012	40		 inc	 eax
  00013	84 c9		 test	 cl, cl
  00015	75 f9		 jne	 SHORT $LL11@Maklocstr
  00017	56		 push	 esi
  00018	2b c2		 sub	 eax, edx
  0001a	57		 push	 edi

; 529  : 
; 530  :     _Elem* _Ptrdest = static_cast<_Elem*>(_calloc_dbg(_Count, sizeof(_Elem), _CRT_BLOCK, __FILE__, __LINE__));

  0001b	6a 01		 push	 1
  0001d	8d 78 01	 lea	 edi, DWORD PTR [eax+1]
  00020	57		 push	 edi
  00021	e8 00 00 00 00	 call	 _calloc
  00026	8b f0		 mov	 esi, eax
  00028	83 c4 08	 add	 esp, 8

; 531  : 
; 532  :     if (!_Ptrdest) {

  0002b	85 f6		 test	 esi, esi
  0002d	74 17		 je	 SHORT $LN17@Maklocstr

; 534  :     }
; 535  : 
; 536  :     for (_Elem* _Ptrnext = _Ptrdest; 0 < _Count; --_Count, ++_Ptrnext, ++_Ptr) {

  0002f	85 ff		 test	 edi, edi
  00031	74 0d		 je	 SHORT $LN4@Maklocstr
  00033	57		 push	 edi
  00034	ff 75 08	 push	 DWORD PTR __Ptr$[ebp]
  00037	56		 push	 esi
  00038	e8 00 00 00 00	 call	 _memcpy
  0003d	83 c4 0c	 add	 esp, 12			; 0000000cH
$LN4@Maklocstr:

; 537  :         *_Ptrnext = static_cast<_Elem>(static_cast<unsigned char>(*_Ptr));
; 538  :     }
; 539  : 
; 540  :     return _Ptrdest;
; 541  : }

  00040	5f		 pop	 edi
  00041	8b c6		 mov	 eax, esi
  00043	5e		 pop	 esi
  00044	5d		 pop	 ebp
  00045	c3		 ret	 0
$LN17@Maklocstr:

; 533  :         _Xbad_alloc();

  00046	e8 00 00 00 00	 call	 ?_Xbad_alloc@std@@YAXXZ	; std::_Xbad_alloc
$LN15@Maklocstr:
  0004b	cc		 int	 3
??$_Maklocstr@D@std@@YAPADPBDPADABU_Cvtvec@@@Z ENDP	; std::_Maklocstr<char>
_TEXT	ENDS
; Function compile flags: /Ogtp
; File C:\Program Files\Microsoft Visual Studio\2022\Community\VC\Tools\MSVC\14.44.35207\include\xmemory
; File C:\Program Files\Microsoft Visual Studio\2022\Community\VC\Tools\MSVC\14.44.35207\include\xlocnum
; File C:\Program Files\Microsoft Visual Studio\2022\Community\VC\Tools\MSVC\14.44.35207\include\xmemory
;	COMDAT ??1?$_Tidy_guard@V?$numpunct@D@std@@@std@@QAE@XZ
_TEXT	SEGMENT
??1?$_Tidy_guard@V?$numpunct@D@std@@@std@@QAE@XZ PROC	; std::_Tidy_guard<std::numpunct<char> >::~_Tidy_guard<std::numpunct<char> >, COMDAT
; _this$ = ecx

; 86   :     _CONSTEXPR20 ~_Tidy_guard() {

  00000	56		 push	 esi

; 87   :         if (_Target) {

  00001	8b 31		 mov	 esi, DWORD PTR [ecx]
  00003	85 f6		 test	 esi, esi
  00005	74 1b		 je	 SHORT $LN6@Tidy_guard
; File C:\Program Files\Microsoft Visual Studio\2022\Community\VC\Tools\MSVC\14.44.35207\include\xlocnum

; 202  :         _CSTD free(const_cast<char*>(_Grouping));

  00007	ff 76 08	 push	 DWORD PTR [esi+8]
  0000a	e8 00 00 00 00	 call	 _free

; 203  :         _CSTD free(const_cast<_Elem*>(_Falsename));

  0000f	ff 76 10	 push	 DWORD PTR [esi+16]
  00012	e8 00 00 00 00	 call	 _free

; 204  :         _CSTD free(const_cast<_Elem*>(_Truename));

  00017	ff 76 14	 push	 DWORD PTR [esi+20]
  0001a	e8 00 00 00 00	 call	 _free
  0001f	83 c4 0c	 add	 esp, 12			; 0000000cH
$LN6@Tidy_guard:
  00022	5e		 pop	 esi
; File C:\Program Files\Microsoft Visual Studio\2022\Community\VC\Tools\MSVC\14.44.35207\include\xmemory

; 90   :     }

  00023	c3		 ret	 0
??1?$_Tidy_guard@V?$numpunct@D@std@@@std@@QAE@XZ ENDP	; std::_Tidy_guard<std::numpunct<char> >::~_Tidy_guard<std::numpunct<char> >
_TEXT	ENDS
; Function compile flags: /Ogtp
; File C:\Program Files\Microsoft Visual Studio\2022\Community\VC\Tools\MSVC\14.44.35207\include\xmemory
;	COMDAT ??$_Allocate_manually_vector_aligned@U_Default_allocate_traits@std@@@std@@YAPAXI@Z
_TEXT	SEGMENT
__Bytes$ = 8						; size = 4
??$_Allocate_manually_vector_aligned@U_Default_allocate_traits@std@@@std@@YAPAXI@Z PROC ; std::_Allocate_manually_vector_aligned<std::_Default_allocate_traits>, COMDAT

; 182  : __declspec(allocator) void* _Allocate_manually_vector_aligned(const size_t _Bytes) {

  00000	55		 push	 ebp
  00001	8b ec		 mov	 ebp, esp

; 183  :     // allocate _Bytes manually aligned to at least _Big_allocation_alignment
; 184  :     const size_t _Block_size = _Non_user_size + _Bytes;

  00003	8b 45 08	 mov	 eax, DWORD PTR __Bytes$[ebp]
  00006	8d 48 23	 lea	 ecx, DWORD PTR [eax+35]

; 185  :     if (_Block_size <= _Bytes) {

  00009	3b c8		 cmp	 ecx, eax
  0000b	0f 86 00 00 00
	00		 jbe	 ?_Throw_bad_array_new_length@std@@YAXXZ ; std::_Throw_bad_array_new_length

; 136  :         return ::operator new(_Bytes);

  00011	51		 push	 ecx
  00012	0f ae e8	 lfence
  00015	e8 00 00 00 00	 call	 ??2@YAPAXI@Z		; operator new

; 186  :         _Throw_bad_array_new_length(); // add overflow
; 187  :     }
; 188  : 
; 189  :     const uintptr_t _Ptr_container = reinterpret_cast<uintptr_t>(_Traits::_Allocate(_Block_size));

  0001a	8b c8		 mov	 ecx, eax

; 136  :         return ::operator new(_Bytes);

  0001c	83 c4 04	 add	 esp, 4

; 190  :     _STL_VERIFY(_Ptr_container != 0, "invalid argument"); // validate even in release since we're doing p[-1]

  0001f	85 c9		 test	 ecx, ecx
  00021	74 0e		 je	 SHORT $LN9@Allocate_m

; 191  :     void* const _Ptr = reinterpret_cast<void*>((_Ptr_container + _Non_user_size) & ~(_Big_allocation_alignment - 1));

  00023	8d 41 23	 lea	 eax, DWORD PTR [ecx+35]
  00026	83 e0 e0	 and	 eax, -32		; ffffffe0H
  00029	0f ae e8	 lfence

; 192  :     static_cast<uintptr_t*>(_Ptr)[-1] = _Ptr_container;

  0002c	89 48 fc	 mov	 DWORD PTR [eax-4], ecx

; 193  : 
; 194  : #ifdef _DEBUG
; 195  :     static_cast<uintptr_t*>(_Ptr)[-2] = _Big_allocation_sentinel;
; 196  : #endif // defined(_DEBUG)
; 197  :     return _Ptr;
; 198  : }

  0002f	5d		 pop	 ebp
  00030	c3		 ret	 0
$LN9@Allocate_m:

; 190  :     _STL_VERIFY(_Ptr_container != 0, "invalid argument"); // validate even in release since we're doing p[-1]

  00031	6a 00		 push	 0
  00033	6a 00		 push	 0
  00035	6a 00		 push	 0
  00037	6a 00		 push	 0
  00039	6a 00		 push	 0
  0003b	e8 00 00 00 00	 call	 __invoke_watson
$LN7@Allocate_m:
  00040	cc		 int	 3
??$_Allocate_manually_vector_aligned@U_Default_allocate_traits@std@@@std@@YAPAXI@Z ENDP ; std::_Allocate_manually_vector_aligned<std::_Default_allocate_traits>
_TEXT	ENDS
; Function compile flags: /Ogtp
; File C:\Program Files\Microsoft Visual Studio\2022\Community\VC\Tools\MSVC\14.44.35207\include\xmemory
;	COMDAT ??$_Allocate@$07U_Default_allocate_traits@std@@@std@@YAPAXI@Z
_TEXT	SEGMENT
__Bytes$ = 8						; size = 4
??$_Allocate@$07U_Default_allocate_traits@std@@@std@@YAPAXI@Z PROC ; std::_Allocate<8,std::_Default_allocate_traits>, COMDAT

; 225  : __declspec(allocator) _CONSTEXPR20 void* _Allocate(const size_t _Bytes) {

  00000	55		 push	 ebp
  00001	8b ec		 mov	 ebp, esp

; 226  :     // allocate _Bytes
; 227  :     if (_Bytes == 0) {

  00003	8b 45 08	 mov	 eax, DWORD PTR __Bytes$[ebp]
  00006	85 c0		 test	 eax, eax
  00008	75 02		 jne	 SHORT $LN2@Allocate

; 252  :             // boost the alignment of big allocations to help autovectorization
; 253  :             return _Allocate_manually_vector_aligned<_Traits>(_Bytes);
; 254  :         }
; 255  : #endif // defined(_M_IX86) || defined(_M_X64)
; 256  :         return _Traits::_Allocate(_Bytes);
; 257  :     }
; 258  : }

  0000a	5d		 pop	 ebp
  0000b	c3		 ret	 0
$LN2@Allocate:

; 228  :         return nullptr;
; 229  :     }
; 230  : 
; 231  : #if _HAS_CXX20 // TRANSITION, GH-1532
; 232  :     if (_STD is_constant_evaluated()) {
; 233  :         return _Traits::_Allocate(_Bytes);
; 234  :     }
; 235  : #endif // _HAS_CXX20
; 236  : 
; 237  : #ifdef __cpp_aligned_new
; 238  :     if constexpr (_Align > __STDCPP_DEFAULT_NEW_ALIGNMENT__) {
; 239  :         size_t _Passed_align = _Align;
; 240  : #if defined(_M_IX86) || defined(_M_X64)
; 241  :         if (_Bytes >= _Big_allocation_threshold) {
; 242  :             // boost the alignment of big allocations to help autovectorization
; 243  :             _Passed_align = (_STD max)(_Align, _Big_allocation_alignment);
; 244  :         }
; 245  : #endif // defined(_M_IX86) || defined(_M_X64)
; 246  :         return _Traits::_Allocate_aligned(_Bytes, _Passed_align);
; 247  :     } else
; 248  : #endif // defined(__cpp_aligned_new)
; 249  :     {
; 250  : #if defined(_M_IX86) || defined(_M_X64)
; 251  :         if (_Bytes >= _Big_allocation_threshold) {

  0000c	3d 00 10 00 00	 cmp	 eax, 4096		; 00001000H
  00011	72 2b		 jb	 SHORT $LN3@Allocate

; 184  :     const size_t _Block_size = _Non_user_size + _Bytes;

  00013	8d 48 23	 lea	 ecx, DWORD PTR [eax+35]

; 185  :     if (_Block_size <= _Bytes) {

  00016	3b c8		 cmp	 ecx, eax
  00018	0f 86 00 00 00
	00		 jbe	 ?_Throw_bad_array_new_length@std@@YAXXZ ; std::_Throw_bad_array_new_length

; 136  :         return ::operator new(_Bytes);

  0001e	51		 push	 ecx
  0001f	0f ae e8	 lfence
  00022	e8 00 00 00 00	 call	 ??2@YAPAXI@Z		; operator new

; 189  :     const uintptr_t _Ptr_container = reinterpret_cast<uintptr_t>(_Traits::_Allocate(_Block_size));

  00027	8b c8		 mov	 ecx, eax

; 136  :         return ::operator new(_Bytes);

  00029	83 c4 04	 add	 esp, 4

; 190  :     _STL_VERIFY(_Ptr_container != 0, "invalid argument"); // validate even in release since we're doing p[-1]

  0002c	85 c9		 test	 ecx, ecx
  0002e	74 1a		 je	 SHORT $LN17@Allocate

; 191  :     void* const _Ptr = reinterpret_cast<void*>((_Ptr_container + _Non_user_size) & ~(_Big_allocation_alignment - 1));

  00030	8d 41 23	 lea	 eax, DWORD PTR [ecx+35]
  00033	83 e0 e0	 and	 eax, -32		; ffffffe0H
  00036	0f ae e8	 lfence

; 192  :     static_cast<uintptr_t*>(_Ptr)[-1] = _Ptr_container;

  00039	89 48 fc	 mov	 DWORD PTR [eax-4], ecx

; 252  :             // boost the alignment of big allocations to help autovectorization
; 253  :             return _Allocate_manually_vector_aligned<_Traits>(_Bytes);
; 254  :         }
; 255  : #endif // defined(_M_IX86) || defined(_M_X64)
; 256  :         return _Traits::_Allocate(_Bytes);
; 257  :     }
; 258  : }

  0003c	5d		 pop	 ebp
  0003d	c3		 ret	 0
$LN3@Allocate:

; 136  :         return ::operator new(_Bytes);

  0003e	0f ae e8	 lfence
  00041	89 45 08	 mov	 DWORD PTR __Bytes$[ebp], eax

; 252  :             // boost the alignment of big allocations to help autovectorization
; 253  :             return _Allocate_manually_vector_aligned<_Traits>(_Bytes);
; 254  :         }
; 255  : #endif // defined(_M_IX86) || defined(_M_X64)
; 256  :         return _Traits::_Allocate(_Bytes);
; 257  :     }
; 258  : }

  00044	5d		 pop	 ebp

; 136  :         return ::operator new(_Bytes);

  00045	e9 00 00 00 00	 jmp	 ??2@YAPAXI@Z		; operator new
$LN17@Allocate:

; 190  :     _STL_VERIFY(_Ptr_container != 0, "invalid argument"); // validate even in release since we're doing p[-1]

  0004a	6a 00		 push	 0
  0004c	6a 00		 push	 0
  0004e	6a 00		 push	 0
  00050	6a 00		 push	 0
  00052	6a 00		 push	 0
  00054	e8 00 00 00 00	 call	 __invoke_watson
$LN15@Allocate:
  00059	cc		 int	 3
??$_Allocate@$07U_Default_allocate_traits@std@@@std@@YAPAXI@Z ENDP ; std::_Allocate<8,std::_Default_allocate_traits>
_TEXT	ENDS
; Function compile flags: /Ogtp
; File C:\Program Files\Microsoft Visual Studio\2022\Community\VC\Tools\MSVC\14.44.35207\include\xlocnum
;	COMDAT ??_G?$numpunct@D@std@@MAEPAXI@Z
_TEXT	SEGMENT
___flags$ = 8						; size = 4
??_G?$numpunct@D@std@@MAEPAXI@Z PROC			; std::numpunct<char>::`scalar deleting destructor', COMDAT
; _this$ = ecx
  00000	55		 push	 ebp
  00001	8b ec		 mov	 ebp, esp

; 142  :     __CLR_OR_THIS_CALL ~numpunct() noexcept override {

  00003	56		 push	 esi
  00004	8b f1		 mov	 esi, ecx

; 202  :         _CSTD free(const_cast<char*>(_Grouping));

  00006	ff 76 08	 push	 DWORD PTR [esi+8]

; 142  :     __CLR_OR_THIS_CALL ~numpunct() noexcept override {

  00009	c7 06 00 00 00
	00		 mov	 DWORD PTR [esi], OFFSET ??_7?$numpunct@D@std@@6B@

; 202  :         _CSTD free(const_cast<char*>(_Grouping));

  0000f	e8 00 00 00 00	 call	 _free

; 203  :         _CSTD free(const_cast<_Elem*>(_Falsename));

  00014	ff 76 10	 push	 DWORD PTR [esi+16]
  00017	e8 00 00 00 00	 call	 _free

; 204  :         _CSTD free(const_cast<_Elem*>(_Truename));

  0001c	ff 76 14	 push	 DWORD PTR [esi+20]
  0001f	e8 00 00 00 00	 call	 _free
  00024	83 c4 0c	 add	 esp, 12			; 0000000cH

; 144  :     }

  00027	c7 06 00 00 00
	00		 mov	 DWORD PTR [esi], OFFSET ??_7_Facet_base@std@@6B@
  0002d	f6 45 08 01	 test	 BYTE PTR ___flags$[ebp], 1
  00031	74 0b		 je	 SHORT $LN13@scalar
  00033	6a 18		 push	 24			; 00000018H
  00035	56		 push	 esi
  00036	e8 00 00 00 00	 call	 ??3@YAXPAXI@Z		; operator delete
  0003b	83 c4 08	 add	 esp, 8
$LN13@scalar:
  0003e	8b c6		 mov	 eax, esi
  00040	5e		 pop	 esi
  00041	5d		 pop	 ebp
  00042	c2 04 00	 ret	 4
??_G?$numpunct@D@std@@MAEPAXI@Z ENDP			; std::numpunct<char>::`scalar deleting destructor'
_TEXT	ENDS
; Function compile flags: /Ogtp
; File C:\Program Files\Microsoft Visual Studio\2022\Community\VC\Tools\MSVC\14.44.35207\include\xlocnum
; File C:\Program Files\Microsoft Visual Studio\2022\Community\VC\Tools\MSVC\14.44.35207\include\xstring
; File C:\Program Files\Microsoft Visual Studio\2022\Community\VC\Tools\MSVC\14.44.35207\include\__msvc_string_view.hpp
; File C:\Program Files\Microsoft Visual Studio\2022\Community\VC\Tools\MSVC\14.44.35207\include\xlocnum
; File C:\Program Files\Microsoft Visual Studio\2022\Community\VC\Tools\MSVC\14.44.35207\include\xstring
; File C:\Program Files\Microsoft Visual Studio\2022\Community\VC\Tools\MSVC\14.44.35207\include\__msvc_string_view.hpp
; File C:\Program Files\Microsoft Visual Studio\2022\Community\VC\Tools\MSVC\14.44.35207\include\xstring
; File C:\Program Files\Microsoft Visual Studio\2022\Community\VC\Tools\MSVC\14.44.35207\include\__msvc_string_view.hpp
; File C:\Program Files\Microsoft Visual Studio\2022\Community\VC\Tools\MSVC\14.44.35207\include\xstring
; File C:\Program Files\Microsoft Visual Studio\2022\Community\VC\Tools\MSVC\14.44.35207\include\xlocnum
;	COMDAT ?do_truename@?$numpunct@D@std@@MBE?AV?$basic_string@DU?$char_traits@D@std@@V?$allocator@D@2@@2@XZ
_TEXT	SEGMENT
___$ReturnUdt$ = 8					; size = 4
?do_truename@?$numpunct@D@std@@MBE?AV?$basic_string@DU?$char_traits@D@std@@V?$allocator@D@2@@2@XZ PROC ; std::numpunct<char>::do_truename, COMDAT
; _this$ = ecx

; 196  :     virtual string_type __CLR_OR_THIS_CALL do_truename() const {

  00000	55		 push	 ebp
  00001	8b ec		 mov	 ebp, esp
  00003	51		 push	 ecx

; 197  :         return string_type{_Truename};

  00004	8b 51 14	 mov	 edx, DWORD PTR [ecx+20]
  00007	0f 57 c0	 xorps	 xmm0, xmm0
  0000a	56		 push	 esi
; File C:\Program Files\Microsoft Visual Studio\2022\Community\VC\Tools\MSVC\14.44.35207\include\xstring

; 493  :         _CONSTEXPR20 _Bxty() noexcept : _Buf() {} // user-provided, for fancy pointers

  0000b	8b 75 08	 mov	 esi, DWORD PTR ___$ReturnUdt$[ebp]
; File C:\Program Files\Microsoft Visual Studio\2022\Community\VC\Tools\MSVC\14.44.35207\include\__msvc_string_view.hpp

; 456  :             return __builtin_strlen(_First);

  0000e	8b ca		 mov	 ecx, edx
; File C:\Program Files\Microsoft Visual Studio\2022\Community\VC\Tools\MSVC\14.44.35207\include\xlocnum

; 196  :     virtual string_type __CLR_OR_THIS_CALL do_truename() const {

  00010	57		 push	 edi
; File C:\Program Files\Microsoft Visual Studio\2022\Community\VC\Tools\MSVC\14.44.35207\include\xstring

; 493  :         _CONSTEXPR20 _Bxty() noexcept : _Buf() {} // user-provided, for fancy pointers

  00011	0f 11 06	 movups	 XMMWORD PTR [esi], xmm0

; 517  :     size_type _Mysize = 0; // current length of string (size)

  00014	c7 46 10 00 00
	00 00		 mov	 DWORD PTR [esi+16], 0
; File C:\Program Files\Microsoft Visual Studio\2022\Community\VC\Tools\MSVC\14.44.35207\include\__msvc_string_view.hpp

; 456  :             return __builtin_strlen(_First);

  0001b	8d 79 01	 lea	 edi, DWORD PTR [ecx+1]
; File C:\Program Files\Microsoft Visual Studio\2022\Community\VC\Tools\MSVC\14.44.35207\include\xstring

; 518  :     size_type _Myres  = 0; // current storage reserved for string (capacity)

  0001e	c7 46 14 00 00
	00 00		 mov	 DWORD PTR [esi+20], 0
$LL23@do_truenam:
; File C:\Program Files\Microsoft Visual Studio\2022\Community\VC\Tools\MSVC\14.44.35207\include\__msvc_string_view.hpp

; 456  :             return __builtin_strlen(_First);

  00025	8a 01		 mov	 al, BYTE PTR [ecx]
  00027	41		 inc	 ecx
  00028	84 c0		 test	 al, al
  0002a	75 f9		 jne	 SHORT $LL23@do_truenam
  0002c	2b cf		 sub	 ecx, edi
; File C:\Program Files\Microsoft Visual Studio\2022\Community\VC\Tools\MSVC\14.44.35207\include\xstring

; 769  :         _Construct<_Construct_strategy::_From_ptr>(_Ptr, _Convert_size<size_type>(_Traits::length(_Ptr)));

  0002e	51		 push	 ecx
  0002f	52		 push	 edx
  00030	8b ce		 mov	 ecx, esi
  00032	e8 00 00 00 00	 call	 ??$_Construct@$00PBD@?$basic_string@DU?$char_traits@D@std@@V?$allocator@D@2@@std@@AAEXQBDI@Z ; std::basic_string<char,std::char_traits<char>,std::allocator<char> >::_Construct<1,char const *>
; File C:\Program Files\Microsoft Visual Studio\2022\Community\VC\Tools\MSVC\14.44.35207\include\xlocnum

; 197  :         return string_type{_Truename};

  00037	5f		 pop	 edi
  00038	8b c6		 mov	 eax, esi
  0003a	5e		 pop	 esi

; 198  :     }

  0003b	8b e5		 mov	 esp, ebp
  0003d	5d		 pop	 ebp
  0003e	c2 04 00	 ret	 4
?do_truename@?$numpunct@D@std@@MBE?AV?$basic_string@DU?$char_traits@D@std@@V?$allocator@D@2@@2@XZ ENDP ; std::numpunct<char>::do_truename
_TEXT	ENDS
; Function compile flags: /Ogtp
; File C:\Program Files\Microsoft Visual Studio\2022\Community\VC\Tools\MSVC\14.44.35207\include\xlocnum
; File C:\Program Files\Microsoft Visual Studio\2022\Community\VC\Tools\MSVC\14.44.35207\include\xstring
; File C:\Program Files\Microsoft Visual Studio\2022\Community\VC\Tools\MSVC\14.44.35207\include\__msvc_string_view.hpp
; File C:\Program Files\Microsoft Visual Studio\2022\Community\VC\Tools\MSVC\14.44.35207\include\xlocnum
; File C:\Program Files\Microsoft Visual Studio\2022\Community\VC\Tools\MSVC\14.44.35207\include\xstring
; File C:\Program Files\Microsoft Visual Studio\2022\Community\VC\Tools\MSVC\14.44.35207\include\__msvc_string_view.hpp
; File C:\Program Files\Microsoft Visual Studio\2022\Community\VC\Tools\MSVC\14.44.35207\include\xstring
; File C:\Program Files\Microsoft Visual Studio\2022\Community\VC\Tools\MSVC\14.44.35207\include\__msvc_string_view.hpp
; File C:\Program Files\Microsoft Visual Studio\2022\Community\VC\Tools\MSVC\14.44.35207\include\xstring
; File C:\Program Files\Microsoft Visual Studio\2022\Community\VC\Tools\MSVC\14.44.35207\include\xlocnum
;	COMDAT ?do_falsename@?$numpunct@D@std@@MBE?AV?$basic_string@DU?$char_traits@D@std@@V?$allocator@D@2@@2@XZ
_TEXT	SEGMENT
___$ReturnUdt$ = 8					; size = 4
?do_falsename@?$numpunct@D@std@@MBE?AV?$basic_string@DU?$char_traits@D@std@@V?$allocator@D@2@@2@XZ PROC ; std::numpunct<char>::do_falsename, COMDAT
; _this$ = ecx

; 192  :     virtual string_type __CLR_OR_THIS_CALL do_falsename() const {

  00000	55		 push	 ebp
  00001	8b ec		 mov	 ebp, esp
  00003	51		 push	 ecx

; 193  :         return string_type{_Falsename};

  00004	8b 51 10	 mov	 edx, DWORD PTR [ecx+16]
  00007	0f 57 c0	 xorps	 xmm0, xmm0
  0000a	56		 push	 esi
; File C:\Program Files\Microsoft Visual Studio\2022\Community\VC\Tools\MSVC\14.44.35207\include\xstring

; 493  :         _CONSTEXPR20 _Bxty() noexcept : _Buf() {} // user-provided, for fancy pointers

  0000b	8b 75 08	 mov	 esi, DWORD PTR ___$ReturnUdt$[ebp]
; File C:\Program Files\Microsoft Visual Studio\2022\Community\VC\Tools\MSVC\14.44.35207\include\__msvc_string_view.hpp

; 456  :             return __builtin_strlen(_First);

  0000e	8b ca		 mov	 ecx, edx
; File C:\Program Files\Microsoft Visual Studio\2022\Community\VC\Tools\MSVC\14.44.35207\include\xlocnum

; 192  :     virtual string_type __CLR_OR_THIS_CALL do_falsename() const {

  00010	57		 push	 edi
; File C:\Program Files\Microsoft Visual Studio\2022\Community\VC\Tools\MSVC\14.44.35207\include\xstring

; 493  :         _CONSTEXPR20 _Bxty() noexcept : _Buf() {} // user-provided, for fancy pointers

  00011	0f 11 06	 movups	 XMMWORD PTR [esi], xmm0

; 517  :     size_type _Mysize = 0; // current length of string (size)

  00014	c7 46 10 00 00
	00 00		 mov	 DWORD PTR [esi+16], 0
; File C:\Program Files\Microsoft Visual Studio\2022\Community\VC\Tools\MSVC\14.44.35207\include\__msvc_string_view.hpp

; 456  :             return __builtin_strlen(_First);

  0001b	8d 79 01	 lea	 edi, DWORD PTR [ecx+1]
; File C:\Program Files\Microsoft Visual Studio\2022\Community\VC\Tools\MSVC\14.44.35207\include\xstring

; 518  :     size_type _Myres  = 0; // current storage reserved for string (capacity)

  0001e	c7 46 14 00 00
	00 00		 mov	 DWORD PTR [esi+20], 0
$LL23@do_falsena:
; File C:\Program Files\Microsoft Visual Studio\2022\Community\VC\Tools\MSVC\14.44.35207\include\__msvc_string_view.hpp

; 456  :             return __builtin_strlen(_First);

  00025	8a 01		 mov	 al, BYTE PTR [ecx]
  00027	41		 inc	 ecx
  00028	84 c0		 test	 al, al
  0002a	75 f9		 jne	 SHORT $LL23@do_falsena
  0002c	2b cf		 sub	 ecx, edi
; File C:\Program Files\Microsoft Visual Studio\2022\Community\VC\Tools\MSVC\14.44.35207\include\xstring

; 769  :         _Construct<_Construct_strategy::_From_ptr>(_Ptr, _Convert_size<size_type>(_Traits::length(_Ptr)));

  0002e	51		 push	 ecx
  0002f	52		 push	 edx
  00030	8b ce		 mov	 ecx, esi
  00032	e8 00 00 00 00	 call	 ??$_Construct@$00PBD@?$basic_string@DU?$char_traits@D@std@@V?$allocator@D@2@@std@@AAEXQBDI@Z ; std::basic_string<char,std::char_traits<char>,std::allocator<char> >::_Construct<1,char const *>
; File C:\Program Files\Microsoft Visual Studio\2022\Community\VC\Tools\MSVC\14.44.35207\include\xlocnum

; 193  :         return string_type{_Falsename};

  00037	5f		 pop	 edi
  00038	8b c6		 mov	 eax, esi
  0003a	5e		 pop	 esi

; 194  :     }

  0003b	8b e5		 mov	 esp, ebp
  0003d	5d		 pop	 ebp
  0003e	c2 04 00	 ret	 4
?do_falsename@?$numpunct@D@std@@MBE?AV?$basic_string@DU?$char_traits@D@std@@V?$allocator@D@2@@2@XZ ENDP ; std::numpunct<char>::do_falsename
_TEXT	ENDS
; Function compile flags: /Ogtp
; File C:\Program Files\Microsoft Visual Studio\2022\Community\VC\Tools\MSVC\14.44.35207\include\xlocnum
; File C:\Program Files\Microsoft Visual Studio\2022\Community\VC\Tools\MSVC\14.44.35207\include\xstring
; File C:\Program Files\Microsoft Visual Studio\2022\Community\VC\Tools\MSVC\14.44.35207\include\__msvc_string_view.hpp
; File C:\Program Files\Microsoft Visual Studio\2022\Community\VC\Tools\MSVC\14.44.35207\include\xlocnum
; File C:\Program Files\Microsoft Visual Studio\2022\Community\VC\Tools\MSVC\14.44.35207\include\xstring
; File C:\Program Files\Microsoft Visual Studio\2022\Community\VC\Tools\MSVC\14.44.35207\include\__msvc_string_view.hpp
; File C:\Program Files\Microsoft Visual Studio\2022\Community\VC\Tools\MSVC\14.44.35207\include\xstring
; File C:\Program Files\Microsoft Visual Studio\2022\Community\VC\Tools\MSVC\14.44.35207\include\__msvc_string_view.hpp
; File C:\Program Files\Microsoft Visual Studio\2022\Community\VC\Tools\MSVC\14.44.35207\include\xstring
; File C:\Program Files\Microsoft Visual Studio\2022\Community\VC\Tools\MSVC\14.44.35207\include\xlocnum
;	COMDAT ?do_grouping@?$numpunct@D@std@@MBE?AV?$basic_string@DU?$char_traits@D@std@@V?$allocator@D@2@@2@XZ
_TEXT	SEGMENT
___$ReturnUdt$ = 8					; size = 4
?do_grouping@?$numpunct@D@std@@MBE?AV?$basic_string@DU?$char_traits@D@std@@V?$allocator@D@2@@2@XZ PROC ; std::numpunct<char>::do_grouping, COMDAT
; _this$ = ecx

; 188  :     virtual string __CLR_OR_THIS_CALL do_grouping() const {

  00000	55		 push	 ebp
  00001	8b ec		 mov	 ebp, esp
  00003	51		 push	 ecx

; 189  :         return string{_Grouping};

  00004	8b 51 08	 mov	 edx, DWORD PTR [ecx+8]
  00007	0f 57 c0	 xorps	 xmm0, xmm0
  0000a	56		 push	 esi
; File C:\Program Files\Microsoft Visual Studio\2022\Community\VC\Tools\MSVC\14.44.35207\include\xstring

; 493  :         _CONSTEXPR20 _Bxty() noexcept : _Buf() {} // user-provided, for fancy pointers

  0000b	8b 75 08	 mov	 esi, DWORD PTR ___$ReturnUdt$[ebp]
; File C:\Program Files\Microsoft Visual Studio\2022\Community\VC\Tools\MSVC\14.44.35207\include\__msvc_string_view.hpp

; 456  :             return __builtin_strlen(_First);

  0000e	8b ca		 mov	 ecx, edx
; File C:\Program Files\Microsoft Visual Studio\2022\Community\VC\Tools\MSVC\14.44.35207\include\xlocnum

; 188  :     virtual string __CLR_OR_THIS_CALL do_grouping() const {

  00010	57		 push	 edi
; File C:\Program Files\Microsoft Visual Studio\2022\Community\VC\Tools\MSVC\14.44.35207\include\xstring

; 493  :         _CONSTEXPR20 _Bxty() noexcept : _Buf() {} // user-provided, for fancy pointers

  00011	0f 11 06	 movups	 XMMWORD PTR [esi], xmm0

; 517  :     size_type _Mysize = 0; // current length of string (size)

  00014	c7 46 10 00 00
	00 00		 mov	 DWORD PTR [esi+16], 0
; File C:\Program Files\Microsoft Visual Studio\2022\Community\VC\Tools\MSVC\14.44.35207\include\__msvc_string_view.hpp

; 456  :             return __builtin_strlen(_First);

  0001b	8d 79 01	 lea	 edi, DWORD PTR [ecx+1]
; File C:\Program Files\Microsoft Visual Studio\2022\Community\VC\Tools\MSVC\14.44.35207\include\xstring

; 518  :     size_type _Myres  = 0; // current storage reserved for string (capacity)

  0001e	c7 46 14 00 00
	00 00		 mov	 DWORD PTR [esi+20], 0
$LL23@do_groupin:
; File C:\Program Files\Microsoft Visual Studio\2022\Community\VC\Tools\MSVC\14.44.35207\include\__msvc_string_view.hpp

; 456  :             return __builtin_strlen(_First);

  00025	8a 01		 mov	 al, BYTE PTR [ecx]
  00027	41		 inc	 ecx
  00028	84 c0		 test	 al, al
  0002a	75 f9		 jne	 SHORT $LL23@do_groupin
  0002c	2b cf		 sub	 ecx, edi
; File C:\Program Files\Microsoft Visual Studio\2022\Community\VC\Tools\MSVC\14.44.35207\include\xstring

; 769  :         _Construct<_Construct_strategy::_From_ptr>(_Ptr, _Convert_size<size_type>(_Traits::length(_Ptr)));

  0002e	51		 push	 ecx
  0002f	52		 push	 edx
  00030	8b ce		 mov	 ecx, esi
  00032	e8 00 00 00 00	 call	 ??$_Construct@$00PBD@?$basic_string@DU?$char_traits@D@std@@V?$allocator@D@2@@std@@AAEXQBDI@Z ; std::basic_string<char,std::char_traits<char>,std::allocator<char> >::_Construct<1,char const *>
; File C:\Program Files\Microsoft Visual Studio\2022\Community\VC\Tools\MSVC\14.44.35207\include\xlocnum

; 189  :         return string{_Grouping};

  00037	5f		 pop	 edi
  00038	8b c6		 mov	 eax, esi
  0003a	5e		 pop	 esi

; 190  :     }

  0003b	8b e5		 mov	 esp, ebp
  0003d	5d		 pop	 ebp
  0003e	c2 04 00	 ret	 4
?do_grouping@?$numpunct@D@std@@MBE?AV?$basic_string@DU?$char_traits@D@std@@V?$allocator@D@2@@2@XZ ENDP ; std::numpunct<char>::do_grouping
_TEXT	ENDS
; Function compile flags: /Ogtp
; File C:\Program Files\Microsoft Visual Studio\2022\Community\VC\Tools\MSVC\14.44.35207\include\xlocnum
;	COMDAT ?do_thousands_sep@?$numpunct@D@std@@MBEDXZ
_TEXT	SEGMENT
?do_thousands_sep@?$numpunct@D@std@@MBEDXZ PROC		; std::numpunct<char>::do_thousands_sep, COMDAT
; _this$ = ecx

; 185  :         return _Kseparator;

  00000	8a 41 0d	 mov	 al, BYTE PTR [ecx+13]

; 186  :     }

  00003	c3		 ret	 0
?do_thousands_sep@?$numpunct@D@std@@MBEDXZ ENDP		; std::numpunct<char>::do_thousands_sep
_TEXT	ENDS
; Function compile flags: /Ogtp
; File C:\Program Files\Microsoft Visual Studio\2022\Community\VC\Tools\MSVC\14.44.35207\include\xlocnum
;	COMDAT ?do_decimal_point@?$numpunct@D@std@@MBEDXZ
_TEXT	SEGMENT
?do_decimal_point@?$numpunct@D@std@@MBEDXZ PROC		; std::numpunct<char>::do_decimal_point, COMDAT
; _this$ = ecx

; 181  :         return _Dp;

  00000	8a 41 0c	 mov	 al, BYTE PTR [ecx+12]

; 182  :     }

  00003	c3		 ret	 0
?do_decimal_point@?$numpunct@D@std@@MBEDXZ ENDP		; std::numpunct<char>::do_decimal_point
_TEXT	ENDS
; Function compile flags: /Ogtp
; File C:\Program Files\Microsoft Visual Studio\2022\Community\VC\Tools\MSVC\14.44.35207\include\xlocnum
;	COMDAT ??1?$numpunct@D@std@@MAE@XZ
_TEXT	SEGMENT
??1?$numpunct@D@std@@MAE@XZ PROC			; std::numpunct<char>::~numpunct<char>, COMDAT
; _this$ = ecx

; 142  :     __CLR_OR_THIS_CALL ~numpunct() noexcept override {

  00000	56		 push	 esi
  00001	8b f1		 mov	 esi, ecx

; 202  :         _CSTD free(const_cast<char*>(_Grouping));

  00003	ff 76 08	 push	 DWORD PTR [esi+8]

; 142  :     __CLR_OR_THIS_CALL ~numpunct() noexcept override {

  00006	c7 06 00 00 00
	00		 mov	 DWORD PTR [esi], OFFSET ??_7?$numpunct@D@std@@6B@

; 202  :         _CSTD free(const_cast<char*>(_Grouping));

  0000c	e8 00 00 00 00	 call	 _free

; 203  :         _CSTD free(const_cast<_Elem*>(_Falsename));

  00011	ff 76 10	 push	 DWORD PTR [esi+16]
  00014	e8 00 00 00 00	 call	 _free

; 204  :         _CSTD free(const_cast<_Elem*>(_Truename));

  00019	ff 76 14	 push	 DWORD PTR [esi+20]
  0001c	e8 00 00 00 00	 call	 _free
  00021	83 c4 0c	 add	 esp, 12			; 0000000cH

; 143  :         _Tidy();
; 144  :     }

  00024	c7 06 00 00 00
	00		 mov	 DWORD PTR [esi], OFFSET ??_7_Facet_base@std@@6B@
  0002a	5e		 pop	 esi
  0002b	c3		 ret	 0
??1?$numpunct@D@std@@MAE@XZ ENDP			; std::numpunct<char>::~numpunct<char>
_TEXT	ENDS
; Function compile flags: /Ogtp
; File C:\Program Files\Microsoft Visual Studio\2022\Community\VC\Tools\MSVC\14.44.35207\include\xlocale
; File C:\Program Files\Microsoft Visual Studio\2022\Community\VC\Tools\MSVC\14.44.35207\include\xlocnum
; File C:\Program Files\Microsoft Visual Studio\2022\Community\VC\Tools\MSVC\14.44.35207\include\xlocale
; File C:\Program Files\Microsoft Visual Studio\2022\Community\VC\Tools\MSVC\14.44.35207\include\xlocinfo
; File C:\Program Files\Microsoft Visual Studio\2022\Community\VC\Tools\MSVC\14.44.35207\include\xlocale
; File C:\Program Files\Microsoft Visual Studio\2022\Community\VC\Tools\MSVC\14.44.35207\include\xlocnum
; File C:\Program Files\Microsoft Visual Studio\2022\Community\VC\Tools\MSVC\14.44.35207\include\xlocale
; File C:\Program Files\Microsoft Visual Studio\2022\Community\VC\Tools\MSVC\14.44.35207\include\xlocnum
; File C:\Program Files\Microsoft Visual Studio\2022\Community\VC\Tools\MSVC\14.44.35207\include\xlocinfo
; File C:\Program Files\Microsoft Visual Studio\2022\Community\VC\Tools\MSVC\14.44.35207\include\xlocnum
; File C:\Program Files\Microsoft Visual Studio\2022\Community\VC\Tools\MSVC\14.44.35207\include\xlocale
; File C:\Program Files\Microsoft Visual Studio\2022\Community\VC\Tools\MSVC\14.44.35207\include\xlocnum
; File C:\Program Files\Microsoft Visual Studio\2022\Community\VC\Tools\MSVC\14.44.35207\include\xlocale
; File C:\Program Files\Microsoft Visual Studio\2022\Community\VC\Tools\MSVC\14.44.35207\include\xlocnum
; File C:\Program Files\Microsoft Visual Studio\2022\Community\VC\Tools\MSVC\14.44.35207\include\xlocale
; File C:\Program Files\Microsoft Visual Studio\2022\Community\VC\Tools\MSVC\14.44.35207\include\xlocnum
; File C:\Program Files\Microsoft Visual Studio\2022\Community\VC\Tools\MSVC\14.44.35207\include\xlocale
; File C:\Program Files\Microsoft Visual Studio\2022\Community\VC\Tools\MSVC\14.44.35207\include\xlocnum
; File C:\Program Files\Microsoft Visual Studio\2022\Community\VC\Tools\MSVC\14.44.35207\include\xmemory
; File C:\Program Files\Microsoft Visual Studio\2022\Community\VC\Tools\MSVC\14.44.35207\include\xlocale
;	COMDAT ??$use_facet@V?$numpunct@D@std@@@std@@YAABV?$numpunct@D@0@ABVlocale@0@@Z
_TEXT	SEGMENT
$T2 = -124						; size = 52
$T3 = -72						; size = 44
__Lock$4 = -28						; size = 4
$T5 = -24						; size = 4
__Psave$1$ = -24					; size = 4
__Lock$6 = -20						; size = 4
$T7 = -20						; size = 4
$T8 = -16						; size = 4
__$EHRec$ = -12						; size = 12
__Loc$ = 8						; size = 4
__Psave_guard$9 = 8					; size = 4
__Guard$10 = 8						; size = 4
??$use_facet@V?$numpunct@D@std@@@std@@YAABV?$numpunct@D@0@ABVlocale@0@@Z PROC ; std::use_facet<std::numpunct<char> >, COMDAT

; 435  : const _Facet& __CRTDECL use_facet(const locale& _Loc) { // get facet reference from locale

  00000	55		 push	 ebp
  00001	8b ec		 mov	 ebp, esp
  00003	6a ff		 push	 -1
  00005	68 00 00 00 00	 push	 __ehhandler$??$use_facet@V?$numpunct@D@std@@@std@@YAABV?$numpunct@D@0@ABVlocale@0@@Z
  0000a	64 a1 00 00 00
	00		 mov	 eax, DWORD PTR fs:0
  00010	50		 push	 eax
  00011	83 ec 70	 sub	 esp, 112		; 00000070H
  00014	53		 push	 ebx
  00015	56		 push	 esi
  00016	57		 push	 edi
  00017	a1 00 00 00 00	 mov	 eax, DWORD PTR ___security_cookie
  0001c	33 c5		 xor	 eax, ebp
  0001e	50		 push	 eax
  0001f	8d 45 f4	 lea	 eax, DWORD PTR __$EHRec$[ebp]
  00022	64 a3 00 00 00
	00		 mov	 DWORD PTR fs:0, eax
  00028	33 c0		 xor	 eax, eax

; 436  :     _BEGIN_LOCK(_LOCK_LOCALE) // the thread lock, make get atomic

  0002a	8d 4d e4	 lea	 ecx, DWORD PTR __Lock$4[ebp]
  0002d	50		 push	 eax
  0002e	89 45 f0	 mov	 DWORD PTR $T8[ebp], eax
  00031	89 45 e8	 mov	 DWORD PTR $T5[ebp], eax
  00034	e8 00 00 00 00	 call	 ??0_Lockit@std@@QAE@H@Z	; std::_Lockit::_Lockit

; 91   :             if (_Id == 0) { // still zero, allocate stamp

  00039	8b 3d 00 00 00
	00		 mov	 edi, DWORD PTR ?id@?$numpunct@D@std@@2V0locale@2@A ; std::numpunct<char>::id

; 437  :     const locale::facet* _Psave = _Facetptr<_Facet>::_Psave; // static pointer to lazy facet

  0003f	a1 00 00 00 00	 mov	 eax, DWORD PTR ?_Psave@?$_Facetptr@V?$numpunct@D@std@@@std@@2PBVfacet@locale@2@B ; std::_Facetptr<std::numpunct<char> >::_Psave
  00044	c7 45 fc 00 00
	00 00		 mov	 DWORD PTR __$EHRec$[ebp+8], 0
  0004b	89 45 e8	 mov	 DWORD PTR __Psave$1$[ebp], eax

; 91   :             if (_Id == 0) { // still zero, allocate stamp

  0004e	85 ff		 test	 edi, edi
  00050	75 2f		 jne	 SHORT $LN11@use_facet

; 92   :                 _BEGIN_LOCK(_LOCK_LOCALE)

  00052	57		 push	 edi
  00053	8d 4d ec	 lea	 ecx, DWORD PTR __Lock$6[ebp]
  00056	e8 00 00 00 00	 call	 ??0_Lockit@std@@QAE@H@Z	; std::_Lockit::_Lockit

; 93   :                 if (_Id == 0) {

  0005b	39 3d 00 00 00
	00		 cmp	 DWORD PTR ?id@?$numpunct@D@std@@2V0locale@2@A, edi ; std::numpunct<char>::id
  00061	75 10		 jne	 SHORT $LN12@use_facet

; 94   :                     _Id = static_cast<size_t>(++_Id_cnt);

  00063	a1 00 00 00 00	 mov	 eax, DWORD PTR ?_Id_cnt@id@locale@std@@0HA ; std::locale::id::_Id_cnt
  00068	40		 inc	 eax
  00069	a3 00 00 00 00	 mov	 DWORD PTR ?_Id_cnt@id@locale@std@@0HA, eax ; std::locale::id::_Id_cnt
  0006e	a3 00 00 00 00	 mov	 DWORD PTR ?id@?$numpunct@D@std@@2V0locale@2@A, eax ; std::numpunct<char>::id
$LN12@use_facet:

; 95   :                 }
; 96   :                 _END_LOCK()

  00073	8d 4d ec	 lea	 ecx, DWORD PTR __Lock$6[ebp]
  00076	e8 00 00 00 00	 call	 ??1_Lockit@std@@QAE@XZ	; std::_Lockit::~_Lockit
  0007b	8b 3d 00 00 00
	00		 mov	 edi, DWORD PTR ?id@?$numpunct@D@std@@2V0locale@2@A ; std::numpunct<char>::id
$LN11@use_facet:

; 377  :         const facet* _Facptr = _Id < _Ptr->_Facetcount ? _Ptr->_Facetvec[_Id] : nullptr; // null if id off end

  00081	8b 45 08	 mov	 eax, DWORD PTR __Loc$[ebp]
  00084	8d 1c bd 00 00
	00 00		 lea	 ebx, DWORD PTR [edi*4]
  0008b	8b 48 04	 mov	 ecx, DWORD PTR [eax+4]
  0008e	3b 79 0c	 cmp	 edi, DWORD PTR [ecx+12]
  00091	73 16		 jae	 SHORT $LN19@use_facet
  00093	0f ae e8	 lfence
  00096	8b 48 04	 mov	 ecx, DWORD PTR [eax+4]
  00099	8b 41 08	 mov	 eax, DWORD PTR [ecx+8]
  0009c	8b 34 03	 mov	 esi, DWORD PTR [ebx+eax]

; 378  :         if (_Facptr || !_Ptr->_Xparent) {

  0009f	85 f6		 test	 esi, esi
  000a1	0f 85 66 01 00
	00		 jne	 $LN109@use_facet
  000a7	eb 02		 jmp	 SHORT $LN125@use_facet
$LN19@use_facet:

; 374  :     }
; 375  : 
; 376  :     const facet* _Getfacet(size_t _Id) const { // look up a facet in locale object
; 377  :         const facet* _Facptr = _Id < _Ptr->_Facetcount ? _Ptr->_Facetvec[_Id] : nullptr; // null if id off end

  000a9	33 f6		 xor	 esi, esi
$LN125@use_facet:

; 378  :         if (_Facptr || !_Ptr->_Xparent) {

  000ab	80 79 14 00	 cmp	 BYTE PTR [ecx+20], 0
  000af	74 13		 je	 SHORT $LN14@use_facet

; 379  :             return _Facptr; // found facet or not transparent
; 380  :         }
; 381  : 
; 382  :         // look in current locale
; 383  :         locale::_Locimp* _Ptr0 = _Getgloballocale();

  000b1	e8 00 00 00 00	 call	 ?_Getgloballocale@locale@std@@CAPAV_Locimp@12@XZ ; std::locale::_Getgloballocale

; 384  :         if (_Id < _Ptr0->_Facetcount) {

  000b6	3b 78 0c	 cmp	 edi, DWORD PTR [eax+12]
  000b9	73 11		 jae	 SHORT $LN126@use_facet

; 385  :             return _Ptr0->_Facetvec[_Id]; // get from current locale

  000bb	0f ae e8	 lfence
  000be	8b 40 08	 mov	 eax, DWORD PTR [eax+8]
  000c1	8b 34 03	 mov	 esi, DWORD PTR [ebx+eax]
$LN14@use_facet:

; 438  : 
; 439  :     const size_t _Id         = _Facet::id._Get_index();
; 440  :     const locale::facet* _Pf = _Loc._Getfacet(_Id);
; 441  : 
; 442  :     if (!_Pf) {

  000c4	85 f6		 test	 esi, esi
  000c6	0f 85 41 01 00
	00		 jne	 $LN109@use_facet
$LN126@use_facet:

; 443  :         if (_Psave) {

  000cc	8b 45 e8	 mov	 eax, DWORD PTR __Psave$1$[ebp]
  000cf	85 c0		 test	 eax, eax
  000d1	74 07		 je	 SHORT $LN3@use_facet

; 444  :             _Pf = _Psave; // lazy facet already allocated

  000d3	8b f0		 mov	 esi, eax

; 445  :         } else if (_Facet::_Getcat(&_Psave, &_Loc) == static_cast<size_t>(-1)) {

  000d5	e9 33 01 00 00	 jmp	 $LN109@use_facet
$LN3@use_facet:
; File C:\Program Files\Microsoft Visual Studio\2022\Community\VC\Tools\MSVC\14.44.35207\include\xlocnum

; 136  :             *_Ppf = new numpunct<_Elem>(_Locinfo(_Ploc->_C_str()), 0, true);

  000da	6a 18		 push	 24			; 00000018H
  000dc	e8 00 00 00 00	 call	 ??2@YAPAXI@Z		; operator new
  000e1	8b f0		 mov	 esi, eax
  000e3	83 c4 04	 add	 esp, 4
  000e6	89 75 ec	 mov	 DWORD PTR $T7[ebp], esi
  000e9	c6 45 fc 01	 mov	 BYTE PTR __$EHRec$[ebp+8], 1
  000ed	85 f6		 test	 esi, esi
  000ef	0f 84 e4 00 00
	00		 je	 $LN24@use_facet
; File C:\Program Files\Microsoft Visual Studio\2022\Community\VC\Tools\MSVC\14.44.35207\include\xlocale

; 373  :         return _Ptr ? _Ptr->_Name.c_str() : "";

  000f5	8b 4d 08	 mov	 ecx, DWORD PTR __Loc$[ebp]
  000f8	8b 49 04	 mov	 ecx, DWORD PTR [ecx+4]
  000fb	85 c9		 test	 ecx, ecx
  000fd	74 0c		 je	 SHORT $LN32@use_facet
; File C:\Program Files\Microsoft Visual Studio\2022\Community\VC\Tools\MSVC\14.44.35207\include\xlocinfo

; 190  :         return _Myptr ? _Myptr : &_Nul;

  000ff	8b 41 18	 mov	 eax, DWORD PTR [ecx+24]
  00102	85 c0		 test	 eax, eax
  00104	75 0a		 jne	 SHORT $LN33@use_facet
  00106	8d 41 1c	 lea	 eax, DWORD PTR [ecx+28]
; File C:\Program Files\Microsoft Visual Studio\2022\Community\VC\Tools\MSVC\14.44.35207\include\xlocale

; 373  :         return _Ptr ? _Ptr->_Name.c_str() : "";

  00109	eb 05		 jmp	 SHORT $LN33@use_facet
$LN32@use_facet:
  0010b	b8 00 00 00 00	 mov	 eax, OFFSET ??_C@_00CNPNBAHC@@
$LN33@use_facet:
; File C:\Program Files\Microsoft Visual Studio\2022\Community\VC\Tools\MSVC\14.44.35207\include\xlocnum

; 136  :             *_Ppf = new numpunct<_Elem>(_Locinfo(_Ploc->_C_str()), 0, true);

  00110	50		 push	 eax
  00111	8d 4d 84	 lea	 ecx, DWORD PTR $T2[ebp]
  00114	e8 00 00 00 00	 call	 ??0_Locinfo@std@@QAE@PBD@Z ; std::_Locinfo::_Locinfo
  00119	b8 01 00 00 00	 mov	 eax, 1
; File C:\Program Files\Microsoft Visual Studio\2022\Community\VC\Tools\MSVC\14.44.35207\include\xlocale

; 143  :             : _Myrefs(static_cast<_Atomic_counter_t>(_Initrefs)) // non-atomic initialization

  0011e	c7 46 04 00 00
	00 00		 mov	 DWORD PTR [esi+4], 0
; File C:\Program Files\Microsoft Visual Studio\2022\Community\VC\Tools\MSVC\14.44.35207\include\xlocnum

; 136  :             *_Ppf = new numpunct<_Elem>(_Locinfo(_Ploc->_C_str()), 0, true);

  00125	89 45 f0	 mov	 DWORD PTR $T8[ebp], eax
  00128	89 45 e8	 mov	 DWORD PTR $T5[ebp], eax

; 129  :     numpunct(const _Locinfo& _Lobj, size_t _Refs = 0, bool _Isdef = false) : locale::facet(_Refs) {

  0012b	c7 45 fc 03 00
	00 00		 mov	 DWORD PTR __$EHRec$[ebp+8], 3
  00132	c7 06 00 00 00
	00		 mov	 DWORD PTR [esi], OFFSET ??_7?$numpunct@D@std@@6B@
; File C:\Program Files\Microsoft Visual Studio\2022\Community\VC\Tools\MSVC\14.44.35207\include\xlocinfo

; 285  :         return localeconv();

  00138	e8 00 00 00 00	 call	 _localeconv

; 281  :         return ::_Getcvt();

  0013d	8d 45 b8	 lea	 eax, DWORD PTR $T3[ebp]
  00140	50		 push	 eax
  00141	e8 00 00 00 00	 call	 __Getcvt
; File C:\Program Files\Microsoft Visual Studio\2022\Community\VC\Tools\MSVC\14.44.35207\include\xlocnum

; 156  :         _Grouping  = nullptr;

  00146	c7 46 08 00 00
	00 00		 mov	 DWORD PTR [esi+8], 0

; 157  :         _Falsename = nullptr;

  0014d	c7 46 10 00 00
	00 00		 mov	 DWORD PTR [esi+16], 0

; 158  :         _Truename  = nullptr;

  00154	c7 46 14 00 00
	00 00		 mov	 DWORD PTR [esi+20], 0

; 160  :         _Tidy_guard<numpunct> _Guard{this};

  0015b	89 75 08	 mov	 DWORD PTR __Guard$10[ebp], esi
; File C:\Program Files\Microsoft Visual Studio\2022\Community\VC\Tools\MSVC\14.44.35207\include\xlocale

; 530  :     _Elem* _Ptrdest = static_cast<_Elem*>(_calloc_dbg(_Count, sizeof(_Elem), _CRT_BLOCK, __FILE__, __LINE__));

  0015e	6a 01		 push	 1
  00160	6a 01		 push	 1
; File C:\Program Files\Microsoft Visual Studio\2022\Community\VC\Tools\MSVC\14.44.35207\include\xlocnum

; 160  :         _Tidy_guard<numpunct> _Guard{this};

  00162	c6 45 fc 04	 mov	 BYTE PTR __$EHRec$[ebp+8], 4
; File C:\Program Files\Microsoft Visual Studio\2022\Community\VC\Tools\MSVC\14.44.35207\include\xlocale

; 530  :     _Elem* _Ptrdest = static_cast<_Elem*>(_calloc_dbg(_Count, sizeof(_Elem), _CRT_BLOCK, __FILE__, __LINE__));

  00166	e8 00 00 00 00	 call	 _calloc
  0016b	83 c4 0c	 add	 esp, 12			; 0000000cH

; 531  : 
; 532  :     if (!_Ptrdest) {

  0016e	85 c0		 test	 eax, eax
  00170	0f 84 b3 00 00
	00		 je	 $LN131@use_facet

; 530  :     _Elem* _Ptrdest = static_cast<_Elem*>(_calloc_dbg(_Count, sizeof(_Elem), _CRT_BLOCK, __FILE__, __LINE__));

  00176	6a 01		 push	 1
  00178	6a 06		 push	 6

; 537  :         *_Ptrnext = static_cast<_Elem>(static_cast<unsigned char>(*_Ptr));

  0017a	c6 00 00	 mov	 BYTE PTR [eax], 0
; File C:\Program Files\Microsoft Visual Studio\2022\Community\VC\Tools\MSVC\14.44.35207\include\xlocnum

; 161  :         _Grouping      = _Maklocstr(_Isdef ? "" : _Ptr->grouping, static_cast<char*>(nullptr), _Cvt);

  0017d	89 46 08	 mov	 DWORD PTR [esi+8], eax
; File C:\Program Files\Microsoft Visual Studio\2022\Community\VC\Tools\MSVC\14.44.35207\include\xlocale

; 530  :     _Elem* _Ptrdest = static_cast<_Elem*>(_calloc_dbg(_Count, sizeof(_Elem), _CRT_BLOCK, __FILE__, __LINE__));

  00180	e8 00 00 00 00	 call	 _calloc
  00185	8b c8		 mov	 ecx, eax
  00187	83 c4 08	 add	 esp, 8

; 531  : 
; 532  :     if (!_Ptrdest) {

  0018a	85 c9		 test	 ecx, ecx
  0018c	0f 84 9c 00 00
	00		 je	 $LN132@use_facet

; 534  :     }
; 535  : 
; 536  :     for (_Elem* _Ptrnext = _Ptrdest; 0 < _Count; --_Count, ++_Ptrnext, ++_Ptr) {

  00192	a1 00 00 00 00	 mov	 eax, DWORD PTR ??_C@_05LAPONLG@false@
  00197	89 01		 mov	 DWORD PTR [ecx], eax
  00199	66 a1 04 00 00
	00		 mov	 ax, WORD PTR ??_C@_05LAPONLG@false@+4

; 530  :     _Elem* _Ptrdest = static_cast<_Elem*>(_calloc_dbg(_Count, sizeof(_Elem), _CRT_BLOCK, __FILE__, __LINE__));

  0019f	6a 01		 push	 1
  001a1	6a 05		 push	 5

; 536  :     for (_Elem* _Ptrnext = _Ptrdest; 0 < _Count; --_Count, ++_Ptrnext, ++_Ptr) {

  001a3	66 89 41 04	 mov	 WORD PTR [ecx+4], ax
; File C:\Program Files\Microsoft Visual Studio\2022\Community\VC\Tools\MSVC\14.44.35207\include\xlocnum

; 162  :         _Falsename     = _Maklocstr(_Lobj._Getfalse(), static_cast<_Elem*>(nullptr), _Cvt);

  001a7	89 4e 10	 mov	 DWORD PTR [esi+16], ecx
; File C:\Program Files\Microsoft Visual Studio\2022\Community\VC\Tools\MSVC\14.44.35207\include\xlocale

; 530  :     _Elem* _Ptrdest = static_cast<_Elem*>(_calloc_dbg(_Count, sizeof(_Elem), _CRT_BLOCK, __FILE__, __LINE__));

  001aa	e8 00 00 00 00	 call	 _calloc
  001af	8b c8		 mov	 ecx, eax
  001b1	83 c4 08	 add	 esp, 8

; 531  : 
; 532  :     if (!_Ptrdest) {

  001b4	85 c9		 test	 ecx, ecx
  001b6	74 7b		 je	 SHORT $LN133@use_facet

; 534  :     }
; 535  : 
; 536  :     for (_Elem* _Ptrnext = _Ptrdest; 0 < _Count; --_Count, ++_Ptrnext, ++_Ptr) {

  001b8	a1 00 00 00 00	 mov	 eax, DWORD PTR ??_C@_04LOAJBDKD@true@
  001bd	89 01		 mov	 DWORD PTR [ecx], eax
  001bf	a0 04 00 00 00	 mov	 al, BYTE PTR ??_C@_04LOAJBDKD@true@+4
  001c4	88 41 04	 mov	 BYTE PTR [ecx+4], al
; File C:\Program Files\Microsoft Visual Studio\2022\Community\VC\Tools\MSVC\14.44.35207\include\xlocnum

; 163  :         _Truename      = _Maklocstr(_Lobj._Gettrue(), static_cast<_Elem*>(nullptr), _Cvt);

  001c7	89 4e 14	 mov	 DWORD PTR [esi+20], ecx

; 164  :         _Guard._Target = nullptr;

  001ca	c7 45 08 00 00
	00 00		 mov	 DWORD PTR __Guard$10[ebp], 0

; 165  : 
; 166  :         if (_Isdef) { // apply defaults for required facets
; 167  :             _Dp         = _Maklocchr('.', static_cast<_Elem*>(nullptr), _Cvt);

  001d1	66 c7 46 0c 2e
	2c		 mov	 WORD PTR [esi+12], 11310 ; 00002c2eH

; 136  :             *_Ppf = new numpunct<_Elem>(_Locinfo(_Ploc->_C_str()), 0, true);

  001d7	eb 02		 jmp	 SHORT $LN25@use_facet
$LN24@use_facet:
  001d9	33 f6		 xor	 esi, esi
$LN25@use_facet:
  001db	f6 45 f0 01	 test	 BYTE PTR $T8[ebp], 1
  001df	c7 45 fc 00 00
	00 00		 mov	 DWORD PTR __$EHRec$[ebp+8], 0
  001e6	74 08		 je	 SHORT $LN29@use_facet
  001e8	8d 4d 84	 lea	 ecx, DWORD PTR $T2[ebp]
  001eb	e8 00 00 00 00	 call	 ??1_Locinfo@std@@QAE@XZ	; std::_Locinfo::~_Locinfo
$LN29@use_facet:
; File C:\Program Files\Microsoft Visual Studio\2022\Community\VC\Tools\MSVC\14.44.35207\include\xmemory

; 1531 :         : _Ty1(), _Myval2(_STD forward<_Other2>(_Val2)...) {}

  001f0	89 75 08	 mov	 DWORD PTR __Psave_guard$9[ebp], esi
; File C:\Program Files\Microsoft Visual Studio\2022\Community\VC\Tools\MSVC\14.44.35207\include\xlocale

; 458  :             _Facet_Register(_Pfmod);

  001f3	56		 push	 esi
  001f4	c6 45 fc 06	 mov	 BYTE PTR __$EHRec$[ebp+8], 6
  001f8	e8 00 00 00 00	 call	 ?_Facet_Register@std@@YAXPAV_Facet_base@1@@Z ; std::_Facet_Register

; 459  : #endif // ^^^ !defined(_M_CEE) ^^^
; 460  : 
; 461  :             _Pfmod->_Incref();

  001fd	8b 16		 mov	 edx, DWORD PTR [esi]
  001ff	83 c4 04	 add	 esp, 4
  00202	8b ce		 mov	 ecx, esi
  00204	ff 52 04	 call	 DWORD PTR [edx+4]

; 462  :             _Facetptr<_Facet>::_Psave = _Psave;

  00207	89 35 00 00 00
	00		 mov	 DWORD PTR ?_Psave@?$_Facetptr@V?$numpunct@D@std@@@std@@2PBVfacet@locale@2@B, esi ; std::_Facetptr<std::numpunct<char> >::_Psave
$LN109@use_facet:

; 463  :             _Pf                       = _Psave;
; 464  : 
; 465  :             (void) _Psave_guard.release();
; 466  :         }
; 467  :     }
; 468  : 
; 469  :     return static_cast<const _Facet&>(*_Pf); // should be dynamic_cast

  0020d	8d 4d e4	 lea	 ecx, DWORD PTR __Lock$4[ebp]
  00210	e8 00 00 00 00	 call	 ??1_Lockit@std@@QAE@XZ	; std::_Lockit::~_Lockit
  00215	8b c6		 mov	 eax, esi

; 470  :     _END_LOCK()
; 471  : } // end of use_facet body

  00217	8b 4d f4	 mov	 ecx, DWORD PTR __$EHRec$[ebp]
  0021a	64 89 0d 00 00
	00 00		 mov	 DWORD PTR fs:0, ecx
  00221	59		 pop	 ecx
  00222	5f		 pop	 edi
  00223	5e		 pop	 esi
  00224	5b		 pop	 ebx
  00225	8b e5		 mov	 esp, ebp
  00227	5d		 pop	 ebp
  00228	c3		 ret	 0
$LN131@use_facet:

; 533  :         _Xbad_alloc();

  00229	e8 00 00 00 00	 call	 ?_Xbad_alloc@std@@YAXXZ	; std::_Xbad_alloc
$LN132@use_facet:
  0022e	e8 00 00 00 00	 call	 ?_Xbad_alloc@std@@YAXXZ	; std::_Xbad_alloc
$LN133@use_facet:
  00233	e8 00 00 00 00	 call	 ?_Xbad_alloc@std@@YAXXZ	; std::_Xbad_alloc
$LN128@use_facet:
  00238	cc		 int	 3
_TEXT	ENDS
;	COMDAT text$x
text$x	SEGMENT
__unwindfunclet$??$use_facet@V?$numpunct@D@std@@@std@@YAABV?$numpunct@D@0@ABVlocale@0@@Z$0:
  00000	8d 4d e4	 lea	 ecx, DWORD PTR __Lock$4[ebp]
  00003	e9 00 00 00 00	 jmp	 ??1_Lockit@std@@QAE@XZ	; std::_Lockit::~_Lockit
__unwindfunclet$??$use_facet@V?$numpunct@D@std@@@std@@YAABV?$numpunct@D@0@ABVlocale@0@@Z$2:
  00008	6a 18		 push	 24			; 00000018H
  0000a	8b 45 ec	 mov	 eax, DWORD PTR $T7[ebp]
  0000d	50		 push	 eax
  0000e	e8 00 00 00 00	 call	 ??3@YAXPAXI@Z		; operator delete
  00013	83 c4 08	 add	 esp, 8
  00016	c3		 ret	 0
__unwindfunclet$??$use_facet@V?$numpunct@D@std@@@std@@YAABV?$numpunct@D@0@ABVlocale@0@@Z$3:
  00017	8b 45 e8	 mov	 eax, DWORD PTR $T5[ebp]
  0001a	83 e0 01	 and	 eax, 1
  0001d	0f 84 0c 00 00
	00		 je	 $LN28@use_facet
  00023	83 65 e8 fe	 and	 DWORD PTR $T5[ebp], -2	; fffffffeH
  00027	8d 4d 84	 lea	 ecx, DWORD PTR $T2[ebp]
  0002a	e9 00 00 00 00	 jmp	 ??1_Locinfo@std@@QAE@XZ	; std::_Locinfo::~_Locinfo
$LN28@use_facet:
  0002f	c3		 ret	 0
__unwindfunclet$??$use_facet@V?$numpunct@D@std@@@std@@YAABV?$numpunct@D@0@ABVlocale@0@@Z$4:
  00030	8b 4d ec	 mov	 ecx, DWORD PTR $T7[ebp]
  00033	e9 00 00 00 00	 jmp	 ??1facet@locale@std@@MAE@XZ ; std::locale::facet::~facet
__unwindfunclet$??$use_facet@V?$numpunct@D@std@@@std@@YAABV?$numpunct@D@0@ABVlocale@0@@Z$6:
  00038	8d 4d 08	 lea	 ecx, DWORD PTR __Guard$10[ebp]
  0003b	e9 00 00 00 00	 jmp	 ??1?$_Tidy_guard@V?$numpunct@D@std@@@std@@QAE@XZ ; std::_Tidy_guard<std::numpunct<char> >::~_Tidy_guard<std::numpunct<char> >
__unwindfunclet$??$use_facet@V?$numpunct@D@std@@@std@@YAABV?$numpunct@D@0@ABVlocale@0@@Z$1:
  00040	8d 4d 08	 lea	 ecx, DWORD PTR __Psave_guard$9[ebp]
  00043	e9 00 00 00 00	 jmp	 ??1?$unique_ptr@V_Facet_base@std@@U?$default_delete@V_Facet_base@std@@@2@@std@@QAE@XZ ; std::unique_ptr<std::_Facet_base,std::default_delete<std::_Facet_base> >::~unique_ptr<std::_Facet_base,std::default_delete<std::_Facet_base> >
  00048	cc		 int	 3
  00049	cc		 int	 3
  0004a	cc		 int	 3
  0004b	cc		 int	 3
  0004c	cc		 int	 3
__ehhandler$??$use_facet@V?$numpunct@D@std@@@std@@YAABV?$numpunct@D@0@ABVlocale@0@@Z:
  0004d	90		 npad	 1
  0004e	90		 npad	 1
  0004f	8b 54 24 08	 mov	 edx, DWORD PTR [esp+8]
  00053	8d 42 0c	 lea	 eax, DWORD PTR [edx+12]
  00056	8b 4a 80	 mov	 ecx, DWORD PTR [edx-128]
  00059	33 c8		 xor	 ecx, eax
  0005b	e8 00 00 00 00	 call	 @__security_check_cookie@4
  00060	b8 00 00 00 00	 mov	 eax, OFFSET __ehfuncinfo$??$use_facet@V?$numpunct@D@std@@@std@@YAABV?$numpunct@D@0@ABVlocale@0@@Z
  00065	e9 00 00 00 00	 jmp	 ___CxxFrameHandler3
text$x	ENDS
??$use_facet@V?$numpunct@D@std@@@std@@YAABV?$numpunct@D@0@ABVlocale@0@@Z ENDP ; std::use_facet<std::numpunct<char> >
; Function compile flags: /Ogtp
; File C:\Program Files\Microsoft Visual Studio\2022\Community\VC\Tools\MSVC\14.44.35207\include\xlocnum
;	COMDAT ??$_Float_put_desired_precision@N@std@@YAH_JH@Z
_TEXT	SEGMENT
__Precision$ = 8					; size = 8
__Float_flags$ = 16					; size = 4
??$_Float_put_desired_precision@N@std@@YAH_JH@Z PROC	; std::_Float_put_desired_precision<double>, COMDAT

; 1178 : int _Float_put_desired_precision(const streamsize _Precision, const ios_base::fmtflags _Float_flags) {

  00000	55		 push	 ebp
  00001	8b ec		 mov	 ebp, esp
  00003	8b 4d 10	 mov	 ecx, DWORD PTR __Float_flags$[ebp]

; 1179 :     // return the effective precision determined by N4950 [facet.num.put.virtuals]/2.1 and printf's rules
; 1180 :     const bool _Is_hex = _Float_flags == (ios_base::fixed | ios_base::scientific);

  00006	81 f9 00 30 00
	00		 cmp	 ecx, 12288		; 00003000H

; 1181 :     if (_Is_hex) {

  0000c	75 07		 jne	 SHORT $LN2@Float_put_

; 1182 :         // return the number of hexits needed (after the radix point) to represent the floating-point value exactly
; 1183 :         if constexpr (is_same_v<_Ty, double>) {
; 1184 :             return ((DBL_MANT_DIG - 1) + 3) / 4;

  0000e	b8 0d 00 00 00	 mov	 eax, 13			; 0000000dH

; 1204 :     }
; 1205 : }

  00013	5d		 pop	 ebp
  00014	c3		 ret	 0
$LN2@Float_put_:

; 1185 :         } else if constexpr (is_same_v<_Ty, long double>) {
; 1186 :             return ((LDBL_MANT_DIG - 1) + 3) / 4;
; 1187 :         } else {
; 1188 :             _STL_INTERNAL_STATIC_ASSERT(false); // unexpected type; shouldn't be float
; 1189 :         }
; 1190 :     }
; 1191 : 
; 1192 :     if (_Precision > 0) {

  00015	8b 55 0c	 mov	 edx, DWORD PTR __Precision$[ebp+4]
  00018	8b 45 08	 mov	 eax, DWORD PTR __Precision$[ebp]
  0001b	85 d2		 test	 edx, edx
  0001d	7c 06		 jl	 SHORT $LN3@Float_put_
  0001f	7f 14		 jg	 SHORT $LN6@Float_put_
  00021	85 c0		 test	 eax, eax
  00023	75 10		 jne	 SHORT $LN6@Float_put_
$LN3@Float_put_:

; 1193 :         return static_cast<int>(_Precision);
; 1194 :     } else if (_Precision == 0) {

  00025	0b c2		 or	 eax, edx
  00027	75 07		 jne	 SHORT $LN5@Float_put_

; 1195 :         const bool _Is_default_float = _Float_flags == 0;

  00029	85 c9		 test	 ecx, ecx
  0002b	0f 94 c0	 sete	 al

; 1204 :     }
; 1205 : }

  0002e	5d		 pop	 ebp
  0002f	c3		 ret	 0
$LN5@Float_put_:

; 1196 :         if (_Is_default_float) {
; 1197 :             return 1;
; 1198 :         } else {
; 1199 :             return 0;
; 1200 :         }
; 1201 :     } else {
; 1202 :         constexpr int _Default_precision = 6;
; 1203 :         return _Default_precision;

  00030	b8 06 00 00 00	 mov	 eax, 6
$LN6@Float_put_:

; 1204 :     }
; 1205 : }

  00035	5d		 pop	 ebp
  00036	c3		 ret	 0
??$_Float_put_desired_precision@N@std@@YAH_JH@Z ENDP	; std::_Float_put_desired_precision<double>
_TEXT	ENDS
; Function compile flags: /Ogtp
; File C:\Program Files\Microsoft Visual Studio\2022\Community\VC\Tools\MSVC\14.44.35207\include\xlocnum
; File C:\Program Files\Microsoft Visual Studio\2022\Community\VC\Tools\MSVC\14.44.35207\include\xiosbase
; File C:\Program Files\Microsoft Visual Studio\2022\Community\VC\Tools\MSVC\14.44.35207\include\xlocale
; File C:\Program Files\Microsoft Visual Studio\2022\Community\VC\Tools\MSVC\14.44.35207\include\xlocnum
; File C:\Program Files\Microsoft Visual Studio\2022\Community\VC\Tools\MSVC\14.44.35207\include\xlocale
; File C:\Program Files\Microsoft Visual Studio\2022\Community\VC\Tools\MSVC\14.44.35207\include\xlocnum
; File C:\Program Files\Microsoft Visual Studio\2022\Community\VC\Tools\MSVC\14.44.35207\include\xstring
; File C:\Program Files\Microsoft Visual Studio\2022\Community\VC\Tools\MSVC\14.44.35207\include\xlocale
; File C:\Program Files\Microsoft Visual Studio\2022\Community\VC\Tools\MSVC\14.44.35207\include\xstring
; File C:\Program Files\Microsoft Visual Studio\2022\Community\VC\Tools\MSVC\14.44.35207\include\xlocale
; File C:\Program Files\Microsoft Visual Studio\2022\Community\VC\Tools\MSVC\14.44.35207\include\xlocnum
; File C:\Program Files\Microsoft Visual Studio\2022\Community\VC\Tools\MSVC\14.44.35207\include\xlocale
; File C:\Program Files\Microsoft Visual Studio\2022\Community\VC\Tools\MSVC\14.44.35207\include\xlocnum
; File C:\Program Files\Microsoft Visual Studio\2022\Community\VC\Tools\MSVC\14.44.35207\include\xlocale
; File C:\Program Files\Microsoft Visual Studio\2022\Community\VC\Tools\MSVC\14.44.35207\include\xlocnum
; File C:\Program Files\Microsoft Visual Studio\2022\Community\VC\Tools\MSVC\14.44.35207\include\xlocale
; File C:\Program Files\Microsoft Visual Studio\2022\Community\VC\Tools\MSVC\14.44.35207\include\xiosbase
; File C:\Program Files\Microsoft Visual Studio\2022\Community\VC\Tools\MSVC\14.44.35207\include\xlocale
; File C:\Program Files\Microsoft Visual Studio\2022\Community\VC\Tools\MSVC\14.44.35207\include\xlocnum
; File C:\Program Files\Microsoft Visual Studio\2022\Community\VC\Tools\MSVC\14.44.35207\include\xlocale
; File C:\Program Files\Microsoft Visual Studio\2022\Community\VC\Tools\MSVC\14.44.35207\include\xlocnum
; File C:\Program Files\Microsoft Visual Studio\2022\Community\VC\Tools\MSVC\14.44.35207\include\xstring
; File C:\Program Files\Microsoft Visual Studio\2022\Community\VC\Tools\MSVC\14.44.35207\include\xlocnum
; File C:\Program Files\Microsoft Visual Studio\2022\Community\VC\Tools\MSVC\14.44.35207\include\xstring
; File C:\Program Files\Microsoft Visual Studio\2022\Community\VC\Tools\MSVC\14.44.35207\include\xlocnum
; File C:\Program Files\Microsoft Visual Studio\2022\Community\VC\Tools\MSVC\14.44.35207\include\xstring
; File C:\Program Files\Microsoft Visual Studio\2022\Community\VC\Tools\MSVC\14.44.35207\include\xlocnum
; File C:\Program Files\Microsoft Visual Studio\2022\Community\VC\Tools\MSVC\14.44.35207\include\xstring
; File C:\Program Files\Microsoft Visual Studio\2022\Community\VC\Tools\MSVC\14.44.35207\include\xlocnum
; File C:\Program Files\Microsoft Visual Studio\2022\Community\VC\Tools\MSVC\14.44.35207\include\xstring
; File C:\Program Files\Microsoft Visual Studio\2022\Community\VC\Tools\MSVC\14.44.35207\include\xlocnum
; File C:\Program Files\Microsoft Visual Studio\2022\Community\VC\Tools\MSVC\14.44.35207\include\xstring
; File C:\Program Files\Microsoft Visual Studio\2022\Community\VC\Tools\MSVC\14.44.35207\include\xlocnum
; File C:\Program Files\Microsoft Visual Studio\2022\Community\VC\Tools\MSVC\14.44.35207\include\xstring
; File C:\Program Files\Microsoft Visual Studio\2022\Community\VC\Tools\MSVC\14.44.35207\include\xlocnum
; File C:\Program Files\Microsoft Visual Studio\2022\Community\VC\Tools\MSVC\14.44.35207\include\xstring
; File C:\Program Files\Microsoft Visual Studio\2022\Community\VC\Tools\MSVC\14.44.35207\include\xlocnum
; File C:\Program Files\Microsoft Visual Studio\2022\Community\VC\Tools\MSVC\14.44.35207\include\xstring
; File C:\Program Files\Microsoft Visual Studio\2022\Community\VC\Tools\MSVC\14.44.35207\include\xlocnum
; File C:\Program Files\Microsoft Visual Studio\2022\Community\VC\Tools\MSVC\14.44.35207\include\xstring
; File C:\Program Files\Microsoft Visual Studio\2022\Community\VC\Tools\MSVC\14.44.35207\include\xlocnum
; File C:\Program Files\Microsoft Visual Studio\2022\Community\VC\Tools\MSVC\14.44.35207\include\xstring
; File C:\Program Files\Microsoft Visual Studio\2022\Community\VC\Tools\MSVC\14.44.35207\include\xlocnum
; File C:\Program Files\Microsoft Visual Studio\2022\Community\VC\Tools\MSVC\14.44.35207\include\xstring
; File C:\Program Files\Microsoft Visual Studio\2022\Community\VC\Tools\MSVC\14.44.35207\include\xlocnum
; File C:\Program Files\Microsoft Visual Studio\2022\Community\VC\Tools\MSVC\14.44.35207\include\xstring
; File C:\Program Files\Microsoft Visual Studio\2022\Community\VC\Tools\MSVC\14.44.35207\include\xlocnum
; File C:\Program Files\Microsoft Visual Studio\2022\Community\VC\Tools\MSVC\14.44.35207\include\xiosbase
; File C:\Program Files\Microsoft Visual Studio\2022\Community\VC\Tools\MSVC\14.44.35207\include\xlocnum
; File C:\Program Files\Microsoft Visual Studio\2022\Community\VC\Tools\MSVC\14.44.35207\include\xstring
; File C:\Program Files\Microsoft Visual Studio\2022\Community\VC\Tools\MSVC\14.44.35207\include\xlocnum
; File C:\Program Files\Microsoft Visual Studio\2022\Community\VC\Tools\MSVC\14.44.35207\include\xstring
; File C:\Program Files\Microsoft Visual Studio\2022\Community\VC\Tools\MSVC\14.44.35207\include\xmemory
; File C:\Program Files\Microsoft Visual Studio\2022\Community\VC\Tools\MSVC\14.44.35207\include\xstring
; File C:\Program Files\Microsoft Visual Studio\2022\Community\VC\Tools\MSVC\14.44.35207\include\xmemory
; File C:\Program Files\Microsoft Visual Studio\2022\Community\VC\Tools\MSVC\14.44.35207\include\xstring
; File C:\Program Files\Microsoft Visual Studio\2022\Community\VC\Tools\MSVC\14.44.35207\include\xmemory
; File C:\Program Files\Microsoft Visual Studio\2022\Community\VC\Tools\MSVC\14.44.35207\include\xstring
; File C:\Program Files\Microsoft Visual Studio\2022\Community\VC\Tools\MSVC\14.44.35207\include\xmemory
; File C:\Program Files\Microsoft Visual Studio\2022\Community\VC\Tools\MSVC\14.44.35207\include\xlocnum
; File C:\Program Files\Microsoft Visual Studio\2022\Community\VC\Tools\MSVC\14.44.35207\include\xmemory
; File C:\Program Files\Microsoft Visual Studio\2022\Community\VC\Tools\MSVC\14.44.35207\include\xlocnum
;	COMDAT ??$_Fput_v3@$0A@@?$num_put@DV?$ostreambuf_iterator@DU?$char_traits@D@std@@@std@@@std@@ABE?AV?$ostreambuf_iterator@DU?$char_traits@D@std@@@1@V21@AAVios_base@1@DPBDI_N@Z
_TEXT	SEGMENT
___$ReturnUdt$GSCopy$1$ = -116				; size = 4
$T2 = -112						; size = 8
$T3 = -108						; size = 4
$T4 = -104						; size = 8
__Ctype_fac$1$ = -100					; size = 4
$T5 = -96						; size = 8
__Eoff$1$ = -92						; size = 4
__Count$GSCopy$2$ = -92					; size = 4
__Count$GSCopy$1$ = -88					; size = 4
$T6 = -84						; size = 8
$T7 = -84						; size = 8
$T8 = -84						; size = 8
$T9 = -84						; size = 8
$T10 = -84						; size = 8
__Kseparator$ = -80					; size = 1
__Buf$GSCopy$1$ = -80					; size = 4
$T11 = -80						; size = 4
__Dp$ = -76						; size = 2
_this$1$ = -72						; size = 4
__Iosbase$GSCopy$1$ = -68				; size = 4
__Dest$7$ = -68						; size = 4
__Grouping$ = -64					; size = 24
__Groupstring$ = -40					; size = 24
__$ArrayPad$ = -16					; size = 4
__$EHRec$ = -12						; size = 12
___$ReturnUdt$ = 8					; size = 4
__Dest$ = 12						; size = 8
__Iosbase$ = 20						; size = 4
__Fill$ = 24						; size = 1
__Buf$ = 28						; size = 4
__Count$ = 32						; size = 4
__Is_finite_val$ = 36					; size = 1
??$_Fput_v3@$0A@@?$num_put@DV?$ostreambuf_iterator@DU?$char_traits@D@std@@@std@@@std@@ABE?AV?$ostreambuf_iterator@DU?$char_traits@D@std@@@1@V21@AAVios_base@1@DPBDI_N@Z PROC ; std::num_put<char,std::ostreambuf_iterator<char,std::char_traits<char> > >::_Fput_v3<0>, COMDAT
; _this$ = ecx

; 1470 :         bool _Is_finite_val) const { // put formatted floating-point to _Dest

  00000	55		 push	 ebp
  00001	8b ec		 mov	 ebp, esp
  00003	6a ff		 push	 -1
  00005	68 00 00 00 00	 push	 __ehhandler$??$_Fput_v3@$0A@@?$num_put@DV?$ostreambuf_iterator@DU?$char_traits@D@std@@@std@@@std@@ABE?AV?$ostreambuf_iterator@DU?$char_traits@D@std@@@1@V21@AAVios_base@1@DPBDI_N@Z
  0000a	64 a1 00 00 00
	00		 mov	 eax, DWORD PTR fs:0
  00010	50		 push	 eax
  00011	83 ec 68	 sub	 esp, 104		; 00000068H
  00014	a1 00 00 00 00	 mov	 eax, DWORD PTR ___security_cookie
  00019	33 c5		 xor	 eax, ebp
  0001b	89 45 f0	 mov	 DWORD PTR __$ArrayPad$[ebp], eax
  0001e	53		 push	 ebx
  0001f	56		 push	 esi
  00020	57		 push	 edi
  00021	50		 push	 eax
  00022	8d 45 f4	 lea	 eax, DWORD PTR __$EHRec$[ebp]
  00025	64 a3 00 00 00
	00		 mov	 DWORD PTR fs:0, eax
  0002b	89 4d b8	 mov	 DWORD PTR _this$1$[ebp], ecx
  0002e	8b 75 20	 mov	 esi, DWORD PTR __Count$[ebp]
  00031	8b 45 08	 mov	 eax, DWORD PTR ___$ReturnUdt$[ebp]
  00034	8b 4d 14	 mov	 ecx, DWORD PTR __Iosbase$[ebp]
  00037	8b 7d 1c	 mov	 edi, DWORD PTR __Buf$[ebp]
  0003a	89 45 8c	 mov	 DWORD PTR ___$ReturnUdt$GSCopy$1$[ebp], eax
  0003d	89 4d bc	 mov	 DWORD PTR __Iosbase$GSCopy$1$[ebp], ecx
  00040	89 7d b0	 mov	 DWORD PTR __Buf$GSCopy$1$[ebp], edi
  00043	89 75 a8	 mov	 DWORD PTR __Count$GSCopy$1$[ebp], esi

; 1471 :         auto _Prefix = static_cast<size_t>(0 < _Count && (*_Buf == '+' || *_Buf == '-'));

  00046	85 f6		 test	 esi, esi
  00048	74 11		 je	 SHORT $LN20@Fput_v3
  0004a	8a 07		 mov	 al, BYTE PTR [edi]
  0004c	3c 2b		 cmp	 al, 43			; 0000002bH
  0004e	74 04		 je	 SHORT $LN19@Fput_v3
  00050	3c 2d		 cmp	 al, 45			; 0000002dH
  00052	75 07		 jne	 SHORT $LN20@Fput_v3
$LN19@Fput_v3:
  00054	bb 01 00 00 00	 mov	 ebx, 1
  00059	eb 02		 jmp	 SHORT $LN21@Fput_v3
$LN20@Fput_v3:
  0005b	33 db		 xor	 ebx, ebx
$LN21@Fput_v3:

; 1472 :         const char* _Exps;
; 1473 :         if ((_Iosbase.flags() & ios_base::floatfield) != (ios_base::scientific | ios_base::fixed)) {

  0005d	8b 41 14	 mov	 eax, DWORD PTR [ecx+20]
  00060	25 00 30 00 00	 and	 eax, 12288		; 00003000H
  00065	3d 00 30 00 00	 cmp	 eax, 12288		; 00003000H
  0006a	74 07		 je	 SHORT $LN4@Fput_v3

; 1474 :             _Exps = "eE";

  0006c	ba 00 00 00 00	 mov	 edx, OFFSET ??_C@_02MDKMJEGG@eE@

; 1475 :         } else { // correct for hexadecimal floating-point

  00071	eb 22		 jmp	 SHORT $LN6@Fput_v3
$LN4@Fput_v3:

; 1476 :             _Exps = "pP";
; 1477 :             if (_Prefix + 2 <= _Count && _Buf[_Prefix] == '0'
; 1478 :                 && (_Buf[_Prefix + 1] == 'x' || _Buf[_Prefix + 1] == 'X')) {

  00073	8d 43 02	 lea	 eax, DWORD PTR [ebx+2]
  00076	ba 00 00 00 00	 mov	 edx, OFFSET ??_C@_02OOPEBDOJ@pP@
  0007b	3b c6		 cmp	 eax, esi
  0007d	77 16		 ja	 SHORT $LN6@Fput_v3
  0007f	80 3c 1f 30	 cmp	 BYTE PTR [edi+ebx], 48	; 00000030H
  00083	75 10		 jne	 SHORT $LN6@Fput_v3
  00085	8a 4c 1f 01	 mov	 cl, BYTE PTR [edi+ebx+1]
  00089	80 f9 78	 cmp	 cl, 120			; 00000078H
  0008c	74 05		 je	 SHORT $LN7@Fput_v3
  0008e	80 f9 58	 cmp	 cl, 88			; 00000058H
  00091	75 02		 jne	 SHORT $LN6@Fput_v3
$LN7@Fput_v3:

; 1479 :                 _Prefix += 2;

  00093	8b d8		 mov	 ebx, eax
$LN6@Fput_v3:

; 1480 :             }
; 1481 :         }
; 1482 :         const size_t _Eoff = _CSTD strcspn(&_Buf[0], _Exps); // find exponent

  00095	52		 push	 edx
  00096	57		 push	 edi
  00097	e8 00 00 00 00	 call	 _strcspn
  0009c	89 45 a4	 mov	 DWORD PTR __Eoff$1$[ebp], eax

; 1483 :         char _Dp[2]        = {"."};

  0009f	b8 2e 00 00 00	 mov	 eax, 46			; 0000002eH
  000a4	66 89 45 b4	 mov	 WORD PTR __Dp$[ebp], ax

; 1484 :         _Dp[0]             = (_CSTD localeconv())->decimal_point[0];

  000a8	e8 00 00 00 00	 call	 _localeconv
  000ad	8b 00		 mov	 eax, DWORD PTR [eax]
  000af	8a 00		 mov	 al, BYTE PTR [eax]
  000b1	88 45 b4	 mov	 BYTE PTR __Dp$[ebp], al

; 1485 :         const size_t _Poff = _CSTD strcspn(&_Buf[0], &_Dp[0]); // find decimal point

  000b4	8d 45 b4	 lea	 eax, DWORD PTR __Dp$[ebp]
  000b7	50		 push	 eax
  000b8	57		 push	 edi
  000b9	e8 00 00 00 00	 call	 _strcspn
  000be	8b f8		 mov	 edi, eax
  000c0	83 c4 10	 add	 esp, 16			; 00000010H
; File C:\Program Files\Microsoft Visual Studio\2022\Community\VC\Tools\MSVC\14.44.35207\include\xiosbase

; 289  :         return *_Ploc;

  000c3	8b 45 bc	 mov	 eax, DWORD PTR __Iosbase$GSCopy$1$[ebp]
  000c6	8b 40 30	 mov	 eax, DWORD PTR [eax+48]
; File C:\Program Files\Microsoft Visual Studio\2022\Community\VC\Tools\MSVC\14.44.35207\include\xlocale

; 268  :     locale(const locale& _Right) noexcept : _Ptr(_Right._Ptr) {

  000c9	8b 48 04	 mov	 ecx, DWORD PTR [eax+4]
  000cc	89 4d 94	 mov	 DWORD PTR $T3[ebp], ecx
  000cf	89 4d 9c	 mov	 DWORD PTR $T4[ebp+4], ecx

; 269  :         _Ptr->_Incref();

  000d2	8b 01		 mov	 eax, DWORD PTR [ecx]
  000d4	ff 50 04	 call	 DWORD PTR [eax+4]
; File C:\Program Files\Microsoft Visual Studio\2022\Community\VC\Tools\MSVC\14.44.35207\include\xlocnum

; 1487 :         const ctype<_Elem>& _Ctype_fac = _STD use_facet<ctype<_Elem>>(_Iosbase.getloc());

  000d7	8d 45 98	 lea	 eax, DWORD PTR $T4[ebp]
  000da	c7 45 fc 00 00
	00 00		 mov	 DWORD PTR __$EHRec$[ebp+8], 0
  000e1	50		 push	 eax
  000e2	e8 00 00 00 00	 call	 ??$use_facet@V?$ctype@D@std@@@std@@YAABV?$ctype@D@0@ABVlocale@0@@Z ; std::use_facet<std::ctype<char> >
  000e7	8b 4d 94	 mov	 ecx, DWORD PTR $T3[ebp]
  000ea	83 c4 04	 add	 esp, 4
  000ed	89 45 9c	 mov	 DWORD PTR __Ctype_fac$1$[ebp], eax
  000f0	c7 45 fc ff ff
	ff ff		 mov	 DWORD PTR __$EHRec$[ebp+8], -1
  000f7	85 c9		 test	 ecx, ecx
; File C:\Program Files\Microsoft Visual Studio\2022\Community\VC\Tools\MSVC\14.44.35207\include\xlocale

; 354  :         if (_Ptr) {

  000f9	74 11		 je	 SHORT $LN37@Fput_v3

; 355  :             delete _Ptr->_Decref();

  000fb	8b 01		 mov	 eax, DWORD PTR [ecx]
  000fd	ff 50 08	 call	 DWORD PTR [eax+8]
  00100	8b c8		 mov	 ecx, eax
  00102	85 c9		 test	 ecx, ecx
  00104	74 06		 je	 SHORT $LN37@Fput_v3
  00106	8b 01		 mov	 eax, DWORD PTR [ecx]
  00108	6a 01		 push	 1
  0010a	ff 10		 call	 DWORD PTR [eax]
$LN37@Fput_v3:
; File C:\Program Files\Microsoft Visual Studio\2022\Community\VC\Tools\MSVC\14.44.35207\include\xlocnum

; 1488 :         basic_string<_Elem> _Groupstring(_Count, _Elem(0)); // reserve space

  0010c	6a 00		 push	 0
  0010e	56		 push	 esi
  0010f	8d 4d d8	 lea	 ecx, DWORD PTR __Groupstring$[ebp]
  00112	e8 00 00 00 00	 call	 ??0?$basic_string@DU?$char_traits@D@std@@V?$allocator@D@2@@std@@QAE@ID@Z ; std::basic_string<char,std::char_traits<char>,std::allocator<char> >::basic_string<char,std::char_traits<char>,std::allocator<char> >
; File C:\Program Files\Microsoft Visual Studio\2022\Community\VC\Tools\MSVC\14.44.35207\include\xstring

; 453  :         return _Myres > _Small_string_capacity;

  00117	83 7d ec 0f	 cmp	 DWORD PTR __Groupstring$[ebp+20], 15 ; 0000000fH

; 435  :         value_type* _Result = _Bx._Buf;

  0011b	8d 4d d8	 lea	 ecx, DWORD PTR __Groupstring$[ebp]
; File C:\Program Files\Microsoft Visual Studio\2022\Community\VC\Tools\MSVC\14.44.35207\include\xlocale

; 2760 :         return do_widen(_First, _Last, _Dest);

  0011e	8b 45 9c	 mov	 eax, DWORD PTR __Ctype_fac$1$[ebp]
; File C:\Program Files\Microsoft Visual Studio\2022\Community\VC\Tools\MSVC\14.44.35207\include\xstring

; 436  :         if (_Large_mode_engaged()) {

  00121	0f 47 4d d8	 cmova	 ecx, DWORD PTR __Groupstring$[ebp]
; File C:\Program Files\Microsoft Visual Studio\2022\Community\VC\Tools\MSVC\14.44.35207\include\xlocale

; 2760 :         return do_widen(_First, _Last, _Dest);

  00125	51		 push	 ecx
; File C:\Program Files\Microsoft Visual Studio\2022\Community\VC\Tools\MSVC\14.44.35207\include\xlocnum

; 1489 :         _Ctype_fac.widen(_Buf, _Buf + _Count, &_Groupstring[0]);

  00126	8b 4d b0	 mov	 ecx, DWORD PTR __Buf$GSCopy$1$[ebp]
; File C:\Program Files\Microsoft Visual Studio\2022\Community\VC\Tools\MSVC\14.44.35207\include\xlocale

; 2760 :         return do_widen(_First, _Last, _Dest);

  00129	8b 00		 mov	 eax, DWORD PTR [eax]
; File C:\Program Files\Microsoft Visual Studio\2022\Community\VC\Tools\MSVC\14.44.35207\include\xlocnum

; 1488 :         basic_string<_Elem> _Groupstring(_Count, _Elem(0)); // reserve space

  0012b	c7 45 fc 01 00
	00 00		 mov	 DWORD PTR __$EHRec$[ebp+8], 1
; File C:\Program Files\Microsoft Visual Studio\2022\Community\VC\Tools\MSVC\14.44.35207\include\xlocale

; 2760 :         return do_widen(_First, _Last, _Dest);

  00132	8b 50 1c	 mov	 edx, DWORD PTR [eax+28]
; File C:\Program Files\Microsoft Visual Studio\2022\Community\VC\Tools\MSVC\14.44.35207\include\xlocnum

; 1489 :         _Ctype_fac.widen(_Buf, _Buf + _Count, &_Groupstring[0]);

  00135	8d 04 0e	 lea	 eax, DWORD PTR [esi+ecx]
; File C:\Program Files\Microsoft Visual Studio\2022\Community\VC\Tools\MSVC\14.44.35207\include\xlocale

; 2760 :         return do_widen(_First, _Last, _Dest);

  00138	50		 push	 eax
  00139	51		 push	 ecx
  0013a	8b 4d 9c	 mov	 ecx, DWORD PTR __Ctype_fac$1$[ebp]
  0013d	ff d2		 call	 edx
; File C:\Program Files\Microsoft Visual Studio\2022\Community\VC\Tools\MSVC\14.44.35207\include\xiosbase

; 289  :         return *_Ploc;

  0013f	8b 4d bc	 mov	 ecx, DWORD PTR __Iosbase$GSCopy$1$[ebp]
  00142	8b 41 30	 mov	 eax, DWORD PTR [ecx+48]
; File C:\Program Files\Microsoft Visual Studio\2022\Community\VC\Tools\MSVC\14.44.35207\include\xlocale

; 268  :     locale(const locale& _Right) noexcept : _Ptr(_Right._Ptr) {

  00145	8b 48 04	 mov	 ecx, DWORD PTR [eax+4]
  00148	89 4d b0	 mov	 DWORD PTR $T11[ebp], ecx
  0014b	89 4d 94	 mov	 DWORD PTR $T2[ebp+4], ecx

; 269  :         _Ptr->_Incref();

  0014e	8b 01		 mov	 eax, DWORD PTR [ecx]
  00150	ff 50 04	 call	 DWORD PTR [eax+4]
; File C:\Program Files\Microsoft Visual Studio\2022\Community\VC\Tools\MSVC\14.44.35207\include\xlocnum

; 1491 :         const auto& _Punct_fac  = _STD use_facet<numpunct<_Elem>>(_Iosbase.getloc());

  00153	8d 45 90	 lea	 eax, DWORD PTR $T2[ebp]
  00156	c6 45 fc 02	 mov	 BYTE PTR __$EHRec$[ebp+8], 2
  0015a	50		 push	 eax
  0015b	e8 00 00 00 00	 call	 ??$use_facet@V?$numpunct@D@std@@@std@@YAABV?$numpunct@D@0@ABVlocale@0@@Z ; std::use_facet<std::numpunct<char> >
  00160	8b 4d b0	 mov	 ecx, DWORD PTR $T11[ebp]
  00163	83 c4 04	 add	 esp, 4
  00166	c6 45 fc 01	 mov	 BYTE PTR __$EHRec$[ebp+8], 1
  0016a	8b f0		 mov	 esi, eax
  0016c	85 c9		 test	 ecx, ecx
; File C:\Program Files\Microsoft Visual Studio\2022\Community\VC\Tools\MSVC\14.44.35207\include\xlocale

; 354  :         if (_Ptr) {

  0016e	74 11		 je	 SHORT $LN63@Fput_v3

; 355  :             delete _Ptr->_Decref();

  00170	8b 01		 mov	 eax, DWORD PTR [ecx]
  00172	ff 50 08	 call	 DWORD PTR [eax+8]
  00175	8b c8		 mov	 ecx, eax
  00177	85 c9		 test	 ecx, ecx
  00179	74 06		 je	 SHORT $LN63@Fput_v3
  0017b	8b 01		 mov	 eax, DWORD PTR [ecx]
  0017d	6a 01		 push	 1
  0017f	ff 10		 call	 DWORD PTR [eax]
$LN63@Fput_v3:
; File C:\Program Files\Microsoft Visual Studio\2022\Community\VC\Tools\MSVC\14.44.35207\include\xlocnum

; 108  :         return do_grouping();

  00181	8b 06		 mov	 eax, DWORD PTR [esi]
  00183	8d 4d c0	 lea	 ecx, DWORD PTR __Grouping$[ebp]
  00186	51		 push	 ecx
  00187	8b ce		 mov	 ecx, esi
  00189	ff 50 14	 call	 DWORD PTR [eax+20]

; 104  :         return do_thousands_sep();

  0018c	8b 06		 mov	 eax, DWORD PTR [esi]
  0018e	8b ce		 mov	 ecx, esi

; 1492 :         const string _Grouping  = _Punct_fac.grouping();

  00190	c6 45 fc 03	 mov	 BYTE PTR __$EHRec$[ebp+8], 3

; 104  :         return do_thousands_sep();

  00194	8b 40 10	 mov	 eax, DWORD PTR [eax+16]
  00197	ff d0		 call	 eax

; 1493 :         const _Elem _Kseparator = _Punct_fac.thousands_sep();

  00199	88 45 b0	 mov	 BYTE PTR __Kseparator$[ebp], al

; 1494 : 
; 1495 :         if (_Poff != _Count) {

  0019c	8b 45 a8	 mov	 eax, DWORD PTR __Count$GSCopy$1$[ebp]
  0019f	3b f8		 cmp	 edi, eax
  001a1	74 1c		 je	 SHORT $LN8@Fput_v3

; 100  :         return do_decimal_point();

  001a3	8b 06		 mov	 eax, DWORD PTR [esi]
  001a5	8b ce		 mov	 ecx, esi
  001a7	8b 40 0c	 mov	 eax, DWORD PTR [eax+12]
  001aa	ff d0		 call	 eax
; File C:\Program Files\Microsoft Visual Studio\2022\Community\VC\Tools\MSVC\14.44.35207\include\xstring

; 453  :         return _Myres > _Small_string_capacity;

  001ac	83 7d ec 0f	 cmp	 DWORD PTR __Groupstring$[ebp+20], 15 ; 0000000fH
; File C:\Program Files\Microsoft Visual Studio\2022\Community\VC\Tools\MSVC\14.44.35207\include\xlocnum

; 100  :         return do_decimal_point();

  001b0	8a c8		 mov	 cl, al
; File C:\Program Files\Microsoft Visual Studio\2022\Community\VC\Tools\MSVC\14.44.35207\include\xstring

; 435  :         value_type* _Result = _Bx._Buf;

  001b2	8d 45 d8	 lea	 eax, DWORD PTR __Groupstring$[ebp]

; 436  :         if (_Large_mode_engaged()) {

  001b5	0f 47 45 d8	 cmova	 eax, DWORD PTR __Groupstring$[ebp]
; File C:\Program Files\Microsoft Visual Studio\2022\Community\VC\Tools\MSVC\14.44.35207\include\xlocnum

; 1496 :             _Groupstring[_Poff] = _Punct_fac.decimal_point();

  001b9	88 0c 38	 mov	 BYTE PTR [eax+edi], cl
  001bc	8b 45 a8	 mov	 eax, DWORD PTR __Count$GSCopy$1$[ebp]
$LN8@Fput_v3:

; 1497 :         }
; 1498 : 
; 1499 :         if (_Is_finite_val) {

  001bf	80 7d 24 00	 cmp	 BYTE PTR __Is_finite_val$[ebp], 0
  001c3	74 4a		 je	 SHORT $LN3@Fput_v3

; 1500 :             size_t _Off     = _Poff == _Count ? _Eoff : _Poff;

  001c5	3b f8		 cmp	 edi, eax
; File C:\Program Files\Microsoft Visual Studio\2022\Community\VC\Tools\MSVC\14.44.35207\include\xstring

; 444  :         const value_type* _Result = _Bx._Buf;

  001c7	8d 75 c0	 lea	 esi, DWORD PTR __Grouping$[ebp]
; File C:\Program Files\Microsoft Visual Studio\2022\Community\VC\Tools\MSVC\14.44.35207\include\xlocnum

; 1500 :             size_t _Off     = _Poff == _Count ? _Eoff : _Poff;

  001ca	0f 44 7d a4	 cmove	 edi, DWORD PTR __Eoff$1$[ebp]
; File C:\Program Files\Microsoft Visual Studio\2022\Community\VC\Tools\MSVC\14.44.35207\include\xstring

; 453  :         return _Myres > _Small_string_capacity;

  001ce	83 7d d4 0f	 cmp	 DWORD PTR __Grouping$[ebp+20], 15 ; 0000000fH

; 445  :         if (_Large_mode_engaged()) {

  001d2	0f 47 75 c0	 cmova	 esi, DWORD PTR __Grouping$[ebp]
; File C:\Program Files\Microsoft Visual Studio\2022\Community\VC\Tools\MSVC\14.44.35207\include\xlocnum

; 1502 :             while (*_Pg != CHAR_MAX && '\0' < *_Pg && static_cast<size_t>(*_Pg) < _Off - _Prefix) {

  001d6	8a 06		 mov	 al, BYTE PTR [esi]
  001d8	3c 7f		 cmp	 al, 127			; 0000007fH
  001da	74 33		 je	 SHORT $LN3@Fput_v3
  001dc	0f 1f 40 00	 npad	 4
$LL2@Fput_v3:
  001e0	84 c0		 test	 al, al
  001e2	7e 2b		 jle	 SHORT $LN3@Fput_v3
  001e4	0f be 0e	 movsx	 ecx, BYTE PTR [esi]
  001e7	8b c7		 mov	 eax, edi
  001e9	2b c3		 sub	 eax, ebx
  001eb	3b c8		 cmp	 ecx, eax
  001ed	73 20		 jae	 SHORT $LN3@Fput_v3

; 1503 :                 // add thousands separator
; 1504 :                 _Groupstring.insert(_Off -= *_Pg, 1, _Kseparator);

  001ef	ff 75 b0	 push	 DWORD PTR __Kseparator$[ebp]
  001f2	2b f9		 sub	 edi, ecx
  001f4	8d 4d d8	 lea	 ecx, DWORD PTR __Groupstring$[ebp]
  001f7	6a 01		 push	 1
  001f9	57		 push	 edi
  001fa	e8 00 00 00 00	 call	 ?insert@?$basic_string@DU?$char_traits@D@std@@V?$allocator@D@2@@std@@QAEAAV12@IID@Z ; std::basic_string<char,std::char_traits<char>,std::allocator<char> >::insert

; 1505 :                 if ('\0' < _Pg[1]) {

  001ff	80 7e 01 00	 cmp	 BYTE PTR [esi+1], 0
  00203	8d 46 01	 lea	 eax, DWORD PTR [esi+1]
  00206	0f 4f f0	 cmovg	 esi, eax
  00209	8a 06		 mov	 al, BYTE PTR [esi]
  0020b	3c 7f		 cmp	 al, 127			; 0000007fH
  0020d	75 d1		 jne	 SHORT $LL2@Fput_v3
$LN3@Fput_v3:

; 1506 :                     ++_Pg; // not last group, advance
; 1507 :                 }
; 1508 :             }
; 1509 :         }
; 1510 : 
; 1511 :         _Count = _Groupstring.size();
; 1512 : 
; 1513 :         size_t _Fillcount;
; 1514 :         if (_Iosbase.width() <= 0 || static_cast<size_t>(_Iosbase.width()) <= _Count) {

  0020f	8b 7d bc	 mov	 edi, DWORD PTR __Iosbase$GSCopy$1$[ebp]
  00212	8b 45 e8	 mov	 eax, DWORD PTR __Groupstring$[ebp+16]
  00215	89 45 a4	 mov	 DWORD PTR __Count$GSCopy$2$[ebp], eax
  00218	83 7f 24 00	 cmp	 DWORD PTR [edi+36], 0
  0021c	8b 77 20	 mov	 esi, DWORD PTR [edi+32]
  0021f	7c 0e		 jl	 SHORT $LN13@Fput_v3
  00221	7f 04		 jg	 SHORT $LN204@Fput_v3
  00223	85 f6		 test	 esi, esi
  00225	74 08		 je	 SHORT $LN13@Fput_v3
$LN204@Fput_v3:
  00227	3b f0		 cmp	 esi, eax
  00229	76 04		 jbe	 SHORT $LN13@Fput_v3

; 1516 :         } else {
; 1517 :             _Fillcount = static_cast<size_t>(_Iosbase.width()) - _Count;

  0022b	2b f0		 sub	 esi, eax
  0022d	eb 02		 jmp	 SHORT $LN12@Fput_v3
$LN13@Fput_v3:

; 1515 :             _Fillcount = 0;

  0022f	33 f6		 xor	 esi, esi
$LN12@Fput_v3:

; 1518 :         }
; 1519 : 
; 1520 :         ios_base::fmtflags _Adjustfield = _Iosbase.flags() & ios_base::adjustfield;

  00231	8b 47 14	 mov	 eax, DWORD PTR [edi+20]
  00234	25 c0 01 00 00	 and	 eax, 448		; 000001c0H

; 1521 :         if (_Adjustfield != ios_base::left && _Adjustfield != ios_base::internal) { // put leading fill

  00239	83 f8 40	 cmp	 eax, 64			; 00000040H
  0023c	0f 84 8d 00 00
	00		 je	 $LN16@Fput_v3
  00242	3d 00 01 00 00	 cmp	 eax, 256		; 00000100H
  00247	74 43		 je	 SHORT $LN203@Fput_v3

; 1522 :             _Dest      = _Rep(_Dest, _Fill, _Fillcount);

  00249	56		 push	 esi
  0024a	ff 75 18	 push	 DWORD PTR __Fill$[ebp]
  0024d	8d 45 ac	 lea	 eax, DWORD PTR $T6[ebp]
  00250	ff 75 10	 push	 DWORD PTR __Dest$[ebp+4]
  00253	ff 75 0c	 push	 DWORD PTR __Dest$[ebp]
  00256	50		 push	 eax
  00257	ff 75 b8	 push	 DWORD PTR _this$1$[ebp]
  0025a	e8 00 00 00 00	 call	 ?_Rep@?$num_put@DV?$ostreambuf_iterator@DU?$char_traits@D@std@@@std@@@std@@ABA?AV?$ostreambuf_iterator@DU?$char_traits@D@std@@@2@V32@DI@Z ; std::num_put<char,std::ostreambuf_iterator<char,std::char_traits<char> > >::_Rep

; 1523 :             _Fillcount = 0;

  0025f	33 f6		 xor	 esi, esi
; File C:\Program Files\Microsoft Visual Studio\2022\Community\VC\Tools\MSVC\14.44.35207\include\xstring

; 453  :         return _Myres > _Small_string_capacity;

  00261	83 7d ec 0f	 cmp	 DWORD PTR __Groupstring$[ebp+20], 15 ; 0000000fH
; File C:\Program Files\Microsoft Visual Studio\2022\Community\VC\Tools\MSVC\14.44.35207\include\xlocnum

; 1524 :             _Dest      = _Put(_Dest, &_Groupstring[0], _Prefix);

  00265	53		 push	 ebx
  00266	8b 10		 mov	 edx, DWORD PTR [eax]
  00268	8b 48 04	 mov	 ecx, DWORD PTR [eax+4]
; File C:\Program Files\Microsoft Visual Studio\2022\Community\VC\Tools\MSVC\14.44.35207\include\xstring

; 435  :         value_type* _Result = _Bx._Buf;

  0026b	8d 45 d8	 lea	 eax, DWORD PTR __Groupstring$[ebp]

; 436  :         if (_Large_mode_engaged()) {

  0026e	0f 47 45 d8	 cmova	 eax, DWORD PTR __Groupstring$[ebp]
; File C:\Program Files\Microsoft Visual Studio\2022\Community\VC\Tools\MSVC\14.44.35207\include\xlocnum

; 1524 :             _Dest      = _Put(_Dest, &_Groupstring[0], _Prefix);

  00272	50		 push	 eax
  00273	51		 push	 ecx
  00274	52		 push	 edx
  00275	8d 45 ac	 lea	 eax, DWORD PTR $T7[ebp]
  00278	89 55 0c	 mov	 DWORD PTR __Dest$[ebp], edx
  0027b	50		 push	 eax
  0027c	ff 75 b8	 push	 DWORD PTR _this$1$[ebp]
  0027f	89 4d 10	 mov	 DWORD PTR __Dest$[ebp+4], ecx
  00282	e8 00 00 00 00	 call	 ?_Put@?$num_put@DV?$ostreambuf_iterator@DU?$char_traits@D@std@@@std@@@std@@ABA?AV?$ostreambuf_iterator@DU?$char_traits@D@std@@@2@V32@PBDI@Z ; std::num_put<char,std::ostreambuf_iterator<char,std::char_traits<char> > >::_Put
  00287	83 c4 30	 add	 esp, 48			; 00000030H
  0028a	eb 65		 jmp	 SHORT $LN208@Fput_v3
$LN203@Fput_v3:
; File C:\Program Files\Microsoft Visual Studio\2022\Community\VC\Tools\MSVC\14.44.35207\include\xstring

; 453  :         return _Myres > _Small_string_capacity;

  0028c	83 7d ec 0f	 cmp	 DWORD PTR __Groupstring$[ebp+20], 15 ; 0000000fH

; 435  :         value_type* _Result = _Bx._Buf;

  00290	8d 45 d8	 lea	 eax, DWORD PTR __Groupstring$[ebp]
; File C:\Program Files\Microsoft Visual Studio\2022\Community\VC\Tools\MSVC\14.44.35207\include\xlocnum

; 1526 :             _Dest      = _Put(_Dest, &_Groupstring[0], _Prefix);

  00293	53		 push	 ebx
; File C:\Program Files\Microsoft Visual Studio\2022\Community\VC\Tools\MSVC\14.44.35207\include\xstring

; 436  :         if (_Large_mode_engaged()) {

  00294	0f 47 45 d8	 cmova	 eax, DWORD PTR __Groupstring$[ebp]
; File C:\Program Files\Microsoft Visual Studio\2022\Community\VC\Tools\MSVC\14.44.35207\include\xlocnum

; 1526 :             _Dest      = _Put(_Dest, &_Groupstring[0], _Prefix);

  00298	50		 push	 eax
  00299	ff 75 10	 push	 DWORD PTR __Dest$[ebp+4]
  0029c	8d 45 ac	 lea	 eax, DWORD PTR $T8[ebp]
  0029f	ff 75 0c	 push	 DWORD PTR __Dest$[ebp]
  002a2	50		 push	 eax
  002a3	ff 75 b8	 push	 DWORD PTR _this$1$[ebp]
  002a6	e8 00 00 00 00	 call	 ?_Put@?$num_put@DV?$ostreambuf_iterator@DU?$char_traits@D@std@@@std@@@std@@ABA?AV?$ostreambuf_iterator@DU?$char_traits@D@std@@@2@V32@PBDI@Z ; std::num_put<char,std::ostreambuf_iterator<char,std::char_traits<char> > >::_Put

; 1527 :             _Dest      = _Rep(_Dest, _Fill, _Fillcount);

  002ab	56		 push	 esi
  002ac	ff 75 18	 push	 DWORD PTR __Fill$[ebp]
  002af	8b 08		 mov	 ecx, DWORD PTR [eax]
  002b1	8b 40 04	 mov	 eax, DWORD PTR [eax+4]
  002b4	50		 push	 eax
  002b5	89 45 10	 mov	 DWORD PTR __Dest$[ebp+4], eax
  002b8	8d 45 ac	 lea	 eax, DWORD PTR $T9[ebp]
  002bb	51		 push	 ecx
  002bc	50		 push	 eax
  002bd	ff 75 b8	 push	 DWORD PTR _this$1$[ebp]
  002c0	89 4d 0c	 mov	 DWORD PTR __Dest$[ebp], ecx
  002c3	e8 00 00 00 00	 call	 ?_Rep@?$num_put@DV?$ostreambuf_iterator@DU?$char_traits@D@std@@@std@@@std@@ABA?AV?$ostreambuf_iterator@DU?$char_traits@D@std@@@2@V32@DI@Z ; std::num_put<char,std::ostreambuf_iterator<char,std::char_traits<char> > >::_Rep
  002c8	83 c4 30	 add	 esp, 48			; 00000030H

; 1528 :             _Fillcount = 0;

  002cb	33 f6		 xor	 esi, esi

; 1529 :         } else {

  002cd	eb 22		 jmp	 SHORT $LN208@Fput_v3
$LN16@Fput_v3:
; File C:\Program Files\Microsoft Visual Studio\2022\Community\VC\Tools\MSVC\14.44.35207\include\xstring

; 453  :         return _Myres > _Small_string_capacity;

  002cf	83 7d ec 0f	 cmp	 DWORD PTR __Groupstring$[ebp+20], 15 ; 0000000fH

; 435  :         value_type* _Result = _Bx._Buf;

  002d3	8d 45 d8	 lea	 eax, DWORD PTR __Groupstring$[ebp]
; File C:\Program Files\Microsoft Visual Studio\2022\Community\VC\Tools\MSVC\14.44.35207\include\xlocnum

; 1530 :             _Dest = _Put(_Dest, &_Groupstring[0], _Prefix);

  002d6	53		 push	 ebx
; File C:\Program Files\Microsoft Visual Studio\2022\Community\VC\Tools\MSVC\14.44.35207\include\xstring

; 436  :         if (_Large_mode_engaged()) {

  002d7	0f 47 45 d8	 cmova	 eax, DWORD PTR __Groupstring$[ebp]
; File C:\Program Files\Microsoft Visual Studio\2022\Community\VC\Tools\MSVC\14.44.35207\include\xlocnum

; 1530 :             _Dest = _Put(_Dest, &_Groupstring[0], _Prefix);

  002db	50		 push	 eax
  002dc	ff 75 10	 push	 DWORD PTR __Dest$[ebp+4]
  002df	8d 45 ac	 lea	 eax, DWORD PTR $T10[ebp]
  002e2	ff 75 0c	 push	 DWORD PTR __Dest$[ebp]
  002e5	50		 push	 eax
  002e6	ff 75 b8	 push	 DWORD PTR _this$1$[ebp]
  002e9	e8 00 00 00 00	 call	 ?_Put@?$num_put@DV?$ostreambuf_iterator@DU?$char_traits@D@std@@@std@@@std@@ABA?AV?$ostreambuf_iterator@DU?$char_traits@D@std@@@2@V32@PBDI@Z ; std::num_put<char,std::ostreambuf_iterator<char,std::char_traits<char> > >::_Put
  002ee	83 c4 18	 add	 esp, 24			; 00000018H
$LN208@Fput_v3:
; File C:\Program Files\Microsoft Visual Studio\2022\Community\VC\Tools\MSVC\14.44.35207\include\xstring

; 435  :         value_type* _Result = _Bx._Buf;

  002f1	8b 10		 mov	 edx, DWORD PTR [eax]
  002f3	8b 40 04	 mov	 eax, DWORD PTR [eax+4]

; 453  :         return _Myres > _Small_string_capacity;

  002f6	83 7d ec 0f	 cmp	 DWORD PTR __Groupstring$[ebp+20], 15 ; 0000000fH
; File C:\Program Files\Microsoft Visual Studio\2022\Community\VC\Tools\MSVC\14.44.35207\include\xlocnum

; 1533 :         _Dest = _Put(_Dest, &_Groupstring[_Prefix], _Count - _Prefix);

  002fa	8b 4d a4	 mov	 ecx, DWORD PTR __Count$GSCopy$2$[ebp]
; File C:\Program Files\Microsoft Visual Studio\2022\Community\VC\Tools\MSVC\14.44.35207\include\xstring

; 435  :         value_type* _Result = _Bx._Buf;

  002fd	89 45 bc	 mov	 DWORD PTR __Dest$7$[ebp], eax
  00300	89 45 10	 mov	 DWORD PTR __Dest$[ebp+4], eax
  00303	8d 45 d8	 lea	 eax, DWORD PTR __Groupstring$[ebp]

; 436  :         if (_Large_mode_engaged()) {

  00306	0f 47 45 d8	 cmova	 eax, DWORD PTR __Groupstring$[ebp]
; File C:\Program Files\Microsoft Visual Studio\2022\Community\VC\Tools\MSVC\14.44.35207\include\xlocnum

; 1533 :         _Dest = _Put(_Dest, &_Groupstring[_Prefix], _Count - _Prefix);

  0030a	2b cb		 sub	 ecx, ebx
  0030c	51		 push	 ecx
; File C:\Program Files\Microsoft Visual Studio\2022\Community\VC\Tools\MSVC\14.44.35207\include\xstring

; 2272 :         return _Mypair._Myval2._Myptr()[_Off];

  0030d	03 c3		 add	 eax, ebx

; 435  :         value_type* _Result = _Bx._Buf;

  0030f	89 55 0c	 mov	 DWORD PTR __Dest$[ebp], edx
; File C:\Program Files\Microsoft Visual Studio\2022\Community\VC\Tools\MSVC\14.44.35207\include\xlocnum

; 1533 :         _Dest = _Put(_Dest, &_Groupstring[_Prefix], _Count - _Prefix);

  00312	8b 5d b8	 mov	 ebx, DWORD PTR _this$1$[ebp]
  00315	50		 push	 eax
  00316	ff 75 bc	 push	 DWORD PTR __Dest$7$[ebp]
  00319	8d 45 a0	 lea	 eax, DWORD PTR $T5[ebp]
  0031c	52		 push	 edx
  0031d	50		 push	 eax
  0031e	53		 push	 ebx
  0031f	e8 00 00 00 00	 call	 ?_Put@?$num_put@DV?$ostreambuf_iterator@DU?$char_traits@D@std@@@std@@@std@@ABA?AV?$ostreambuf_iterator@DU?$char_traits@D@std@@@2@V32@PBDI@Z ; std::num_put<char,std::ostreambuf_iterator<char,std::char_traits<char> > >::_Put

; 1535 :         return _Rep(_Dest, _Fill, _Fillcount); // put trailing fill

  00324	56		 push	 esi
  00325	ff 75 18	 push	 DWORD PTR __Fill$[ebp]
  00328	8b 75 8c	 mov	 esi, DWORD PTR ___$ReturnUdt$GSCopy$1$[ebp]
  0032b	8b 08		 mov	 ecx, DWORD PTR [eax]
  0032d	8b 40 04	 mov	 eax, DWORD PTR [eax+4]
  00330	50		 push	 eax
  00331	51		 push	 ecx
  00332	56		 push	 esi
  00333	53		 push	 ebx
  00334	89 4d 0c	 mov	 DWORD PTR __Dest$[ebp], ecx
  00337	89 45 10	 mov	 DWORD PTR __Dest$[ebp+4], eax
; File C:\Program Files\Microsoft Visual Studio\2022\Community\VC\Tools\MSVC\14.44.35207\include\xiosbase

; 284  :         _Wide                      = _Newwidth;

  0033a	c7 47 20 00 00
	00 00		 mov	 DWORD PTR [edi+32], 0
  00341	c7 47 24 00 00
	00 00		 mov	 DWORD PTR [edi+36], 0
; File C:\Program Files\Microsoft Visual Studio\2022\Community\VC\Tools\MSVC\14.44.35207\include\xlocnum

; 1535 :         return _Rep(_Dest, _Fill, _Fillcount); // put trailing fill

  00348	e8 00 00 00 00	 call	 ?_Rep@?$num_put@DV?$ostreambuf_iterator@DU?$char_traits@D@std@@@std@@@std@@ABA?AV?$ostreambuf_iterator@DU?$char_traits@D@std@@@2@V32@DI@Z ; std::num_put<char,std::ostreambuf_iterator<char,std::char_traits<char> > >::_Rep
; File C:\Program Files\Microsoft Visual Studio\2022\Community\VC\Tools\MSVC\14.44.35207\include\xstring

; 453  :         return _Myres > _Small_string_capacity;

  0034d	8b 4d d4	 mov	 ecx, DWORD PTR __Grouping$[ebp+20]
; File C:\Program Files\Microsoft Visual Studio\2022\Community\VC\Tools\MSVC\14.44.35207\include\xlocnum

; 1535 :         return _Rep(_Dest, _Fill, _Fillcount); // put trailing fill

  00350	83 c4 30	 add	 esp, 48			; 00000030H
; File C:\Program Files\Microsoft Visual Studio\2022\Community\VC\Tools\MSVC\14.44.35207\include\xstring

; 453  :         return _Myres > _Small_string_capacity;

  00353	83 f9 0f	 cmp	 ecx, 15			; 0000000fH

; 3083 :         if (_My_data._Large_mode_engaged()) {

  00356	76 28		 jbe	 SHORT $LN92@Fput_v3
; File C:\Program Files\Microsoft Visual Studio\2022\Community\VC\Tools\MSVC\14.44.35207\include\xmemory

; 985  :         _STD _Deallocate<_New_alignof<_Ty>>(_Ptr, sizeof(_Ty) * _Count);

  00358	8b 55 c0	 mov	 edx, DWORD PTR __Grouping$[ebp]
; File C:\Program Files\Microsoft Visual Studio\2022\Community\VC\Tools\MSVC\14.44.35207\include\xstring

; 852  :         _Al.deallocate(_Old_ptr, _Capacity + 1); // +1 for null terminator

  0035b	41		 inc	 ecx
; File C:\Program Files\Microsoft Visual Studio\2022\Community\VC\Tools\MSVC\14.44.35207\include\xmemory

; 985  :         _STD _Deallocate<_New_alignof<_Ty>>(_Ptr, sizeof(_Ty) * _Count);

  0035c	8b c2		 mov	 eax, edx

; 284  :         if (_Bytes >= _Big_allocation_threshold) {

  0035e	81 f9 00 10 00
	00		 cmp	 ecx, 4096		; 00001000H
  00364	72 10		 jb	 SHORT $LN97@Fput_v3

; 205  :     const uintptr_t _Ptr_container   = _Ptr_user[-1];

  00366	8b 50 fc	 mov	 edx, DWORD PTR [eax-4]
  00369	83 c1 23	 add	 ecx, 35			; 00000023H
  0036c	2b c2		 sub	 eax, edx

; 219  :     _STL_VERIFY(_Back_shift >= _Min_back_shift && _Back_shift <= _Non_user_size, "invalid argument");

  0036e	83 c0 fc	 add	 eax, -4			; fffffffcH
  00371	83 f8 1f	 cmp	 eax, 31			; 0000001fH
  00374	77 6c		 ja	 SHORT $LN128@Fput_v3
$LN97@Fput_v3:

; 289  :         ::operator delete(_Ptr, _Bytes);

  00376	51		 push	 ecx
  00377	52		 push	 edx
  00378	e8 00 00 00 00	 call	 ??3@YAXPAXI@Z		; operator delete
  0037d	83 c4 08	 add	 esp, 8
$LN92@Fput_v3:
; File C:\Program Files\Microsoft Visual Studio\2022\Community\VC\Tools\MSVC\14.44.35207\include\xstring

; 453  :         return _Myres > _Small_string_capacity;

  00380	8b 4d ec	 mov	 ecx, DWORD PTR __Groupstring$[ebp+20]

; 3090 :         _My_data._Mysize = 0;

  00383	c7 45 d0 00 00
	00 00		 mov	 DWORD PTR __Grouping$[ebp+16], 0

; 3091 :         _My_data._Myres  = _Small_string_capacity;

  0038a	c7 45 d4 0f 00
	00 00		 mov	 DWORD PTR __Grouping$[ebp+20], 15 ; 0000000fH

; 3092 :         // the _Traits::assign is last so the codegen doesn't think the char write can alias this
; 3093 :         _Traits::assign(_My_data._Bx._Buf[0], _Elem());

  00391	c6 45 c0 00	 mov	 BYTE PTR __Grouping$[ebp], 0

; 453  :         return _Myres > _Small_string_capacity;

  00395	83 f9 0f	 cmp	 ecx, 15			; 0000000fH

; 3083 :         if (_My_data._Large_mode_engaged()) {

  00398	76 28		 jbe	 SHORT $LN124@Fput_v3
; File C:\Program Files\Microsoft Visual Studio\2022\Community\VC\Tools\MSVC\14.44.35207\include\xmemory

; 985  :         _STD _Deallocate<_New_alignof<_Ty>>(_Ptr, sizeof(_Ty) * _Count);

  0039a	8b 55 d8	 mov	 edx, DWORD PTR __Groupstring$[ebp]
; File C:\Program Files\Microsoft Visual Studio\2022\Community\VC\Tools\MSVC\14.44.35207\include\xstring

; 852  :         _Al.deallocate(_Old_ptr, _Capacity + 1); // +1 for null terminator

  0039d	41		 inc	 ecx
; File C:\Program Files\Microsoft Visual Studio\2022\Community\VC\Tools\MSVC\14.44.35207\include\xmemory

; 985  :         _STD _Deallocate<_New_alignof<_Ty>>(_Ptr, sizeof(_Ty) * _Count);

  0039e	8b c2		 mov	 eax, edx

; 284  :         if (_Bytes >= _Big_allocation_threshold) {

  003a0	81 f9 00 10 00
	00		 cmp	 ecx, 4096		; 00001000H
  003a6	72 10		 jb	 SHORT $LN129@Fput_v3

; 205  :     const uintptr_t _Ptr_container   = _Ptr_user[-1];

  003a8	8b 50 fc	 mov	 edx, DWORD PTR [eax-4]
  003ab	83 c1 23	 add	 ecx, 35			; 00000023H
  003ae	2b c2		 sub	 eax, edx

; 219  :     _STL_VERIFY(_Back_shift >= _Min_back_shift && _Back_shift <= _Non_user_size, "invalid argument");

  003b0	83 c0 fc	 add	 eax, -4			; fffffffcH
  003b3	83 f8 1f	 cmp	 eax, 31			; 0000001fH
  003b6	77 2a		 ja	 SHORT $LN128@Fput_v3
$LN129@Fput_v3:

; 289  :         ::operator delete(_Ptr, _Bytes);

  003b8	51		 push	 ecx
  003b9	52		 push	 edx
  003ba	e8 00 00 00 00	 call	 ??3@YAXPAXI@Z		; operator delete
  003bf	83 c4 08	 add	 esp, 8
$LN124@Fput_v3:
; File C:\Program Files\Microsoft Visual Studio\2022\Community\VC\Tools\MSVC\14.44.35207\include\xlocnum

; 1535 :         return _Rep(_Dest, _Fill, _Fillcount); // put trailing fill

  003c2	8b c6		 mov	 eax, esi

; 1536 :     }

  003c4	8b 4d f4	 mov	 ecx, DWORD PTR __$EHRec$[ebp]
  003c7	64 89 0d 00 00
	00 00		 mov	 DWORD PTR fs:0, ecx
  003ce	59		 pop	 ecx
  003cf	5f		 pop	 edi
  003d0	5e		 pop	 esi
  003d1	5b		 pop	 ebx
  003d2	8b 4d f0	 mov	 ecx, DWORD PTR __$ArrayPad$[ebp]
  003d5	33 cd		 xor	 ecx, ebp
  003d7	e8 00 00 00 00	 call	 @__security_check_cookie@4
  003dc	8b e5		 mov	 esp, ebp
  003de	5d		 pop	 ebp
  003df	c2 20 00	 ret	 32			; 00000020H
$LN128@Fput_v3:
; File C:\Program Files\Microsoft Visual Studio\2022\Community\VC\Tools\MSVC\14.44.35207\include\xmemory

; 219  :     _STL_VERIFY(_Back_shift >= _Min_back_shift && _Back_shift <= _Non_user_size, "invalid argument");

  003e2	6a 00		 push	 0
  003e4	6a 00		 push	 0
  003e6	6a 00		 push	 0
  003e8	6a 00		 push	 0
  003ea	6a 00		 push	 0
  003ec	e8 00 00 00 00	 call	 __invoke_watson
$LN207@Fput_v3:
  003f1	cc		 int	 3
_TEXT	ENDS
;	COMDAT text$x
text$x	SEGMENT
__unwindfunclet$??$_Fput_v3@$0A@@?$num_put@DV?$ostreambuf_iterator@DU?$char_traits@D@std@@@std@@@std@@ABE?AV?$ostreambuf_iterator@DU?$char_traits@D@std@@@1@V21@AAVios_base@1@DPBDI_N@Z$0:
  00000	8d 4d 98	 lea	 ecx, DWORD PTR $T4[ebp]
  00003	e9 00 00 00 00	 jmp	 ??1locale@std@@QAE@XZ	; std::locale::~locale
__unwindfunclet$??$_Fput_v3@$0A@@?$num_put@DV?$ostreambuf_iterator@DU?$char_traits@D@std@@@std@@@std@@ABE?AV?$ostreambuf_iterator@DU?$char_traits@D@std@@@1@V21@AAVios_base@1@DPBDI_N@Z$1:
  00008	8d 4d d8	 lea	 ecx, DWORD PTR __Groupstring$[ebp]
  0000b	e9 00 00 00 00	 jmp	 ??1?$basic_string@DU?$char_traits@D@std@@V?$allocator@D@2@@std@@QAE@XZ ; std::basic_string<char,std::char_traits<char>,std::allocator<char> >::~basic_string<char,std::char_traits<char>,std::allocator<char> >
__unwindfunclet$??$_Fput_v3@$0A@@?$num_put@DV?$ostreambuf_iterator@DU?$char_traits@D@std@@@std@@@std@@ABE?AV?$ostreambuf_iterator@DU?$char_traits@D@std@@@1@V21@AAVios_base@1@DPBDI_N@Z$2:
  00010	8d 4d 90	 lea	 ecx, DWORD PTR $T2[ebp]
  00013	e9 00 00 00 00	 jmp	 ??1locale@std@@QAE@XZ	; std::locale::~locale
__unwindfunclet$??$_Fput_v3@$0A@@?$num_put@DV?$ostreambuf_iterator@DU?$char_traits@D@std@@@std@@@std@@ABE?AV?$ostreambuf_iterator@DU?$char_traits@D@std@@@1@V21@AAVios_base@1@DPBDI_N@Z$3:
  00018	8d 4d c0	 lea	 ecx, DWORD PTR __Grouping$[ebp]
  0001b	e9 00 00 00 00	 jmp	 ??1?$basic_string@DU?$char_traits@D@std@@V?$allocator@D@2@@std@@QAE@XZ ; std::basic_string<char,std::char_traits<char>,std::allocator<char> >::~basic_string<char,std::char_traits<char>,std::allocator<char> >
  00020	cc		 int	 3
  00021	cc		 int	 3
  00022	cc		 int	 3
  00023	cc		 int	 3
  00024	cc		 int	 3
__ehhandler$??$_Fput_v3@$0A@@?$num_put@DV?$ostreambuf_iterator@DU?$char_traits@D@std@@@std@@@std@@ABE?AV?$ostreambuf_iterator@DU?$char_traits@D@std@@@1@V21@AAVios_base@1@DPBDI_N@Z:
  00025	90		 npad	 1
  00026	90		 npad	 1
  00027	8b 54 24 08	 mov	 edx, DWORD PTR [esp+8]
  0002b	8d 42 0c	 lea	 eax, DWORD PTR [edx+12]
  0002e	8b 4a 88	 mov	 ecx, DWORD PTR [edx-120]
  00031	33 c8		 xor	 ecx, eax
  00033	e8 00 00 00 00	 call	 @__security_check_cookie@4
  00038	8b 4a fc	 mov	 ecx, DWORD PTR [edx-4]
  0003b	33 c8		 xor	 ecx, eax
  0003d	e8 00 00 00 00	 call	 @__security_check_cookie@4
  00042	b8 00 00 00 00	 mov	 eax, OFFSET __ehfuncinfo$??$_Fput_v3@$0A@@?$num_put@DV?$ostreambuf_iterator@DU?$char_traits@D@std@@@std@@@std@@ABE?AV?$ostreambuf_iterator@DU?$char_traits@D@std@@@1@V21@AAVios_base@1@DPBDI_N@Z
  00047	e9 00 00 00 00	 jmp	 ___CxxFrameHandler3
text$x	ENDS
??$_Fput_v3@$0A@@?$num_put@DV?$ostreambuf_iterator@DU?$char_traits@D@std@@@std@@@std@@ABE?AV?$ostreambuf_iterator@DU?$char_traits@D@std@@@1@V21@AAVios_base@1@DPBDI_N@Z ENDP ; std::num_put<char,std::ostreambuf_iterator<char,std::char_traits<char> > >::_Fput_v3<0>
; Function compile flags: /Ogtp
; File C:\Program Files\Microsoft Visual Studio\2022\Community\VC\Tools\MSVC\14.44.35207\include\xlocnum
;	COMDAT ??$_Float_put_desired_precision@O@std@@YAH_JH@Z
_TEXT	SEGMENT
__Precision$ = 8					; size = 8
__Float_flags$ = 16					; size = 4
??$_Float_put_desired_precision@O@std@@YAH_JH@Z PROC	; std::_Float_put_desired_precision<long double>, COMDAT

; 1178 : int _Float_put_desired_precision(const streamsize _Precision, const ios_base::fmtflags _Float_flags) {

  00000	55		 push	 ebp
  00001	8b ec		 mov	 ebp, esp
  00003	8b 4d 10	 mov	 ecx, DWORD PTR __Float_flags$[ebp]

; 1179 :     // return the effective precision determined by N4950 [facet.num.put.virtuals]/2.1 and printf's rules
; 1180 :     const bool _Is_hex = _Float_flags == (ios_base::fixed | ios_base::scientific);

  00006	81 f9 00 30 00
	00		 cmp	 ecx, 12288		; 00003000H

; 1181 :     if (_Is_hex) {

  0000c	75 07		 jne	 SHORT $LN2@Float_put_

; 1182 :         // return the number of hexits needed (after the radix point) to represent the floating-point value exactly
; 1183 :         if constexpr (is_same_v<_Ty, double>) {
; 1184 :             return ((DBL_MANT_DIG - 1) + 3) / 4;
; 1185 :         } else if constexpr (is_same_v<_Ty, long double>) {
; 1186 :             return ((LDBL_MANT_DIG - 1) + 3) / 4;

  0000e	b8 0d 00 00 00	 mov	 eax, 13			; 0000000dH

; 1204 :     }
; 1205 : }

  00013	5d		 pop	 ebp
  00014	c3		 ret	 0
$LN2@Float_put_:

; 1187 :         } else {
; 1188 :             _STL_INTERNAL_STATIC_ASSERT(false); // unexpected type; shouldn't be float
; 1189 :         }
; 1190 :     }
; 1191 : 
; 1192 :     if (_Precision > 0) {

  00015	8b 55 0c	 mov	 edx, DWORD PTR __Precision$[ebp+4]
  00018	8b 45 08	 mov	 eax, DWORD PTR __Precision$[ebp]
  0001b	85 d2		 test	 edx, edx
  0001d	7c 06		 jl	 SHORT $LN3@Float_put_
  0001f	7f 14		 jg	 SHORT $LN6@Float_put_
  00021	85 c0		 test	 eax, eax
  00023	75 10		 jne	 SHORT $LN6@Float_put_
$LN3@Float_put_:

; 1193 :         return static_cast<int>(_Precision);
; 1194 :     } else if (_Precision == 0) {

  00025	0b c2		 or	 eax, edx
  00027	75 07		 jne	 SHORT $LN5@Float_put_

; 1195 :         const bool _Is_default_float = _Float_flags == 0;

  00029	85 c9		 test	 ecx, ecx
  0002b	0f 94 c0	 sete	 al

; 1204 :     }
; 1205 : }

  0002e	5d		 pop	 ebp
  0002f	c3		 ret	 0
$LN5@Float_put_:

; 1196 :         if (_Is_default_float) {
; 1197 :             return 1;
; 1198 :         } else {
; 1199 :             return 0;
; 1200 :         }
; 1201 :     } else {
; 1202 :         constexpr int _Default_precision = 6;
; 1203 :         return _Default_precision;

  00030	b8 06 00 00 00	 mov	 eax, 6
$LN6@Float_put_:

; 1204 :     }
; 1205 : }

  00035	5d		 pop	 ebp
  00036	c3		 ret	 0
??$_Float_put_desired_precision@O@std@@YAH_JH@Z ENDP	; std::_Float_put_desired_precision<long double>
_TEXT	ENDS
; Function compile flags: /Ogtp
;	COMDAT ??_G?$num_put@DV?$ostreambuf_iterator@DU?$char_traits@D@std@@@std@@@std@@MAEPAXI@Z
_TEXT	SEGMENT
___flags$ = 8						; size = 4
??_G?$num_put@DV?$ostreambuf_iterator@DU?$char_traits@D@std@@@std@@@std@@MAEPAXI@Z PROC ; std::num_put<char,std::ostreambuf_iterator<char,std::char_traits<char> > >::`scalar deleting destructor', COMDAT
; _this$ = ecx
  00000	55		 push	 ebp
  00001	8b ec		 mov	 ebp, esp
  00003	f6 45 08 01	 test	 BYTE PTR ___flags$[ebp], 1
  00007	56		 push	 esi
  00008	8b f1		 mov	 esi, ecx
  0000a	c7 06 00 00 00
	00		 mov	 DWORD PTR [esi], OFFSET ??_7_Facet_base@std@@6B@
  00010	74 0b		 je	 SHORT $LN5@scalar
  00012	6a 08		 push	 8
  00014	56		 push	 esi
  00015	e8 00 00 00 00	 call	 ??3@YAXPAXI@Z		; operator delete
  0001a	83 c4 08	 add	 esp, 8
$LN5@scalar:
  0001d	8b c6		 mov	 eax, esi
  0001f	5e		 pop	 esi
  00020	5d		 pop	 ebp
  00021	c2 04 00	 ret	 4
??_G?$num_put@DV?$ostreambuf_iterator@DU?$char_traits@D@std@@@std@@@std@@MAEPAXI@Z ENDP ; std::num_put<char,std::ostreambuf_iterator<char,std::char_traits<char> > >::`scalar deleting destructor'
_TEXT	ENDS
; Function compile flags: /Ogtp
; File C:\Program Files\Microsoft Visual Studio\2022\Community\VC\Tools\MSVC\14.44.35207\include\xlocnum
; File C:\Program Files\Microsoft Visual Studio\2022\Community\VC\Tools\MSVC\14.44.35207\include\iterator
; File C:\Program Files\Microsoft Visual Studio\2022\Community\VC\Tools\MSVC\14.44.35207\include\streambuf
; File C:\Program Files\Microsoft Visual Studio\2022\Community\VC\Tools\MSVC\14.44.35207\include\__msvc_string_view.hpp
; File C:\Program Files\Microsoft Visual Studio\2022\Community\VC\Tools\MSVC\14.44.35207\include\streambuf
; File C:\Program Files\Microsoft Visual Studio\2022\Community\VC\Tools\MSVC\14.44.35207\include\__msvc_string_view.hpp
; File C:\Program Files\Microsoft Visual Studio\2022\Community\VC\Tools\MSVC\14.44.35207\include\streambuf
; File C:\Program Files\Microsoft Visual Studio\2022\Community\VC\Tools\MSVC\14.44.35207\include\__msvc_string_view.hpp
; File C:\Program Files\Microsoft Visual Studio\2022\Community\VC\Tools\MSVC\14.44.35207\include\iterator
; File C:\Program Files\Microsoft Visual Studio\2022\Community\VC\Tools\MSVC\14.44.35207\include\xlocnum
;	COMDAT ?_Rep@?$num_put@DV?$ostreambuf_iterator@DU?$char_traits@D@std@@@std@@@std@@ABA?AV?$ostreambuf_iterator@DU?$char_traits@D@std@@@2@V32@DI@Z
_TEXT	SEGMENT
_this$ = 8						; size = 4
___$ReturnUdt$ = 12					; size = 4
__Dest$ = 16						; size = 8
__Ch$ = 24						; size = 1
__Count$ = 28						; size = 4
?_Rep@?$num_put@DV?$ostreambuf_iterator@DU?$char_traits@D@std@@@std@@@std@@ABA?AV?$ostreambuf_iterator@DU?$char_traits@D@std@@@2@V32@DI@Z PROC ; std::num_put<char,std::ostreambuf_iterator<char,std::char_traits<char> > >::_Rep, COMDAT

; 1631 :     _OutIt __CLRCALL_OR_CDECL _Rep(_OutIt _Dest, _Elem _Ch, size_t _Count) const { // put _Count * _Ch to _Dest

  00000	55		 push	 ebp
  00001	8b ec		 mov	 ebp, esp

; 1632 :         for (; 0 < _Count; --_Count, (void) ++_Dest) {

  00003	8b 45 14	 mov	 eax, DWORD PTR __Dest$[ebp+4]
  00006	56		 push	 esi
  00007	8b 75 1c	 mov	 esi, DWORD PTR __Count$[ebp]
  0000a	85 f6		 test	 esi, esi
  0000c	74 4c		 je	 SHORT $LN3@Rep
  0000e	53		 push	 ebx
  0000f	8a 5d 18	 mov	 bl, BYTE PTR __Ch$[ebp]
$LL4@Rep:
; File C:\Program Files\Microsoft Visual Studio\2022\Community\VC\Tools\MSVC\14.44.35207\include\iterator

; 526  :         if (!_Strbuf || traits_type::eq_int_type(_Traits::eof(), _Strbuf->sputc(_Right))) {

  00012	85 c0		 test	 eax, eax
  00014	74 3a		 je	 SHORT $LN8@Rep
; File C:\Program Files\Microsoft Visual Studio\2022\Community\VC\Tools\MSVC\14.44.35207\include\streambuf

; 261  :         return *_IPnext ? *_IPcount : 0;

  00016	8b 48 20	 mov	 ecx, DWORD PTR [eax+32]
  00019	83 39 00	 cmp	 DWORD PTR [ecx], 0
  0001c	74 1d		 je	 SHORT $LN12@Rep
  0001e	8b 50 30	 mov	 edx, DWORD PTR [eax+48]
  00021	8b 0a		 mov	 ecx, DWORD PTR [edx]

; 166  :         return 0 < _Pnavail() ? _Traits::to_int_type(*_Pninc() = _Ch) : overflow(_Traits::to_int_type(_Ch));

  00023	85 c9		 test	 ecx, ecx
  00025	7e 14		 jle	 SHORT $LN12@Rep

; 256  :         --*_IPcount;

  00027	49		 dec	 ecx
  00028	89 0a		 mov	 DWORD PTR [edx], ecx

; 257  :         return (*_IPnext)++;

  0002a	8b 48 20	 mov	 ecx, DWORD PTR [eax+32]
  0002d	8b 11		 mov	 edx, DWORD PTR [ecx]
  0002f	8d 42 01	 lea	 eax, DWORD PTR [edx+1]
  00032	89 01		 mov	 DWORD PTR [ecx], eax

; 166  :         return 0 < _Pnavail() ? _Traits::to_int_type(*_Pninc() = _Ch) : overflow(_Traits::to_int_type(_Ch));

  00034	88 1a		 mov	 BYTE PTR [edx], bl
; File C:\Program Files\Microsoft Visual Studio\2022\Community\VC\Tools\MSVC\14.44.35207\include\__msvc_string_view.hpp

; 518  :         return static_cast<unsigned char>(_Ch);

  00036	0f b6 c3	 movzx	 eax, bl
; File C:\Program Files\Microsoft Visual Studio\2022\Community\VC\Tools\MSVC\14.44.35207\include\streambuf

; 166  :         return 0 < _Pnavail() ? _Traits::to_int_type(*_Pninc() = _Ch) : overflow(_Traits::to_int_type(_Ch));

  00039	eb 0d		 jmp	 SHORT $LN13@Rep
$LN12@Rep:
  0003b	8b 08		 mov	 ecx, DWORD PTR [eax]
  0003d	8b 51 0c	 mov	 edx, DWORD PTR [ecx+12]
; File C:\Program Files\Microsoft Visual Studio\2022\Community\VC\Tools\MSVC\14.44.35207\include\__msvc_string_view.hpp

; 518  :         return static_cast<unsigned char>(_Ch);

  00040	0f b6 cb	 movzx	 ecx, bl
; File C:\Program Files\Microsoft Visual Studio\2022\Community\VC\Tools\MSVC\14.44.35207\include\streambuf

; 166  :         return 0 < _Pnavail() ? _Traits::to_int_type(*_Pninc() = _Ch) : overflow(_Traits::to_int_type(_Ch));

  00043	51		 push	 ecx
  00044	8b c8		 mov	 ecx, eax
  00046	ff d2		 call	 edx
$LN13@Rep:
; File C:\Program Files\Microsoft Visual Studio\2022\Community\VC\Tools\MSVC\14.44.35207\include\__msvc_string_view.hpp

; 522  :         return _Left == _Right;

  00048	83 f8 ff	 cmp	 eax, -1
; File C:\Program Files\Microsoft Visual Studio\2022\Community\VC\Tools\MSVC\14.44.35207\include\iterator

; 526  :         if (!_Strbuf || traits_type::eq_int_type(_Traits::eof(), _Strbuf->sputc(_Right))) {

  0004b	8b 45 14	 mov	 eax, DWORD PTR __Dest$[ebp+4]
  0004e	75 04		 jne	 SHORT $LN2@Rep
$LN8@Rep:

; 527  :             _Failed = true;

  00050	c6 45 10 01	 mov	 BYTE PTR __Dest$[ebp], 1
$LN2@Rep:
; File C:\Program Files\Microsoft Visual Studio\2022\Community\VC\Tools\MSVC\14.44.35207\include\xlocnum

; 1632 :         for (; 0 < _Count; --_Count, (void) ++_Dest) {

  00054	83 ee 01	 sub	 esi, 1
  00057	75 b9		 jne	 SHORT $LL4@Rep
  00059	5b		 pop	 ebx
$LN3@Rep:

; 1633 :             *_Dest = _Ch;
; 1634 :         }
; 1635 : 
; 1636 :         return _Dest;

  0005a	8b 55 0c	 mov	 edx, DWORD PTR ___$ReturnUdt$[ebp]
  0005d	8b 4d 10	 mov	 ecx, DWORD PTR __Dest$[ebp]
  00060	5e		 pop	 esi
  00061	89 42 04	 mov	 DWORD PTR [edx+4], eax
  00064	8b c2		 mov	 eax, edx
  00066	89 0a		 mov	 DWORD PTR [edx], ecx

; 1637 :     }

  00068	5d		 pop	 ebp
  00069	c3		 ret	 0
?_Rep@?$num_put@DV?$ostreambuf_iterator@DU?$char_traits@D@std@@@std@@@std@@ABA?AV?$ostreambuf_iterator@DU?$char_traits@D@std@@@2@V32@DI@Z ENDP ; std::num_put<char,std::ostreambuf_iterator<char,std::char_traits<char> > >::_Rep
_TEXT	ENDS
; Function compile flags: /Ogtp
; File C:\Program Files\Microsoft Visual Studio\2022\Community\VC\Tools\MSVC\14.44.35207\include\xlocnum
; File C:\Program Files\Microsoft Visual Studio\2022\Community\VC\Tools\MSVC\14.44.35207\include\iterator
; File C:\Program Files\Microsoft Visual Studio\2022\Community\VC\Tools\MSVC\14.44.35207\include\streambuf
; File C:\Program Files\Microsoft Visual Studio\2022\Community\VC\Tools\MSVC\14.44.35207\include\__msvc_string_view.hpp
; File C:\Program Files\Microsoft Visual Studio\2022\Community\VC\Tools\MSVC\14.44.35207\include\streambuf
; File C:\Program Files\Microsoft Visual Studio\2022\Community\VC\Tools\MSVC\14.44.35207\include\__msvc_string_view.hpp
; File C:\Program Files\Microsoft Visual Studio\2022\Community\VC\Tools\MSVC\14.44.35207\include\streambuf
; File C:\Program Files\Microsoft Visual Studio\2022\Community\VC\Tools\MSVC\14.44.35207\include\__msvc_string_view.hpp
; File C:\Program Files\Microsoft Visual Studio\2022\Community\VC\Tools\MSVC\14.44.35207\include\iterator
; File C:\Program Files\Microsoft Visual Studio\2022\Community\VC\Tools\MSVC\14.44.35207\include\xlocnum
;	COMDAT ?_Put@?$num_put@DV?$ostreambuf_iterator@DU?$char_traits@D@std@@@std@@@std@@ABA?AV?$ostreambuf_iterator@DU?$char_traits@D@std@@@2@V32@PBDI@Z
_TEXT	SEGMENT
_this$ = 8						; size = 4
___$ReturnUdt$ = 12					; size = 4
__Dest$ = 16						; size = 8
__Ptr$ = 24						; size = 4
__Count$ = 28						; size = 4
?_Put@?$num_put@DV?$ostreambuf_iterator@DU?$char_traits@D@std@@@std@@@std@@ABA?AV?$ostreambuf_iterator@DU?$char_traits@D@std@@@2@V32@PBDI@Z PROC ; std::num_put<char,std::ostreambuf_iterator<char,std::char_traits<char> > >::_Put, COMDAT

; 1623 :         _OutIt _Dest, const _Elem* _Ptr, size_t _Count) const { // put [_Ptr, _Ptr + _Count) to _Dest

  00000	55		 push	 ebp
  00001	8b ec		 mov	 ebp, esp

; 1624 :         for (; 0 < _Count; --_Count, (void) ++_Dest, ++_Ptr) {

  00003	8b 45 14	 mov	 eax, DWORD PTR __Dest$[ebp+4]
  00006	56		 push	 esi
  00007	8b 75 1c	 mov	 esi, DWORD PTR __Count$[ebp]
  0000a	85 f6		 test	 esi, esi
  0000c	74 51		 je	 SHORT $LN3@Put
  0000e	53		 push	 ebx
  0000f	57		 push	 edi
  00010	8b 7d 18	 mov	 edi, DWORD PTR __Ptr$[ebp]
$LL4@Put:

; 1625 :             *_Dest = *_Ptr;

  00013	8a 1f		 mov	 bl, BYTE PTR [edi]
; File C:\Program Files\Microsoft Visual Studio\2022\Community\VC\Tools\MSVC\14.44.35207\include\iterator

; 526  :         if (!_Strbuf || traits_type::eq_int_type(_Traits::eof(), _Strbuf->sputc(_Right))) {

  00015	85 c0		 test	 eax, eax
  00017	74 3a		 je	 SHORT $LN8@Put
; File C:\Program Files\Microsoft Visual Studio\2022\Community\VC\Tools\MSVC\14.44.35207\include\streambuf

; 261  :         return *_IPnext ? *_IPcount : 0;

  00019	8b 48 20	 mov	 ecx, DWORD PTR [eax+32]
  0001c	83 39 00	 cmp	 DWORD PTR [ecx], 0
  0001f	74 1d		 je	 SHORT $LN12@Put
  00021	8b 50 30	 mov	 edx, DWORD PTR [eax+48]
  00024	8b 0a		 mov	 ecx, DWORD PTR [edx]

; 166  :         return 0 < _Pnavail() ? _Traits::to_int_type(*_Pninc() = _Ch) : overflow(_Traits::to_int_type(_Ch));

  00026	85 c9		 test	 ecx, ecx
  00028	7e 14		 jle	 SHORT $LN12@Put

; 256  :         --*_IPcount;

  0002a	49		 dec	 ecx
  0002b	89 0a		 mov	 DWORD PTR [edx], ecx

; 257  :         return (*_IPnext)++;

  0002d	8b 48 20	 mov	 ecx, DWORD PTR [eax+32]
  00030	8b 11		 mov	 edx, DWORD PTR [ecx]
  00032	8d 42 01	 lea	 eax, DWORD PTR [edx+1]
  00035	89 01		 mov	 DWORD PTR [ecx], eax

; 166  :         return 0 < _Pnavail() ? _Traits::to_int_type(*_Pninc() = _Ch) : overflow(_Traits::to_int_type(_Ch));

  00037	88 1a		 mov	 BYTE PTR [edx], bl
; File C:\Program Files\Microsoft Visual Studio\2022\Community\VC\Tools\MSVC\14.44.35207\include\__msvc_string_view.hpp

; 518  :         return static_cast<unsigned char>(_Ch);

  00039	0f b6 c3	 movzx	 eax, bl
; File C:\Program Files\Microsoft Visual Studio\2022\Community\VC\Tools\MSVC\14.44.35207\include\streambuf

; 166  :         return 0 < _Pnavail() ? _Traits::to_int_type(*_Pninc() = _Ch) : overflow(_Traits::to_int_type(_Ch));

  0003c	eb 0d		 jmp	 SHORT $LN13@Put
$LN12@Put:
  0003e	8b 08		 mov	 ecx, DWORD PTR [eax]
  00040	8b 51 0c	 mov	 edx, DWORD PTR [ecx+12]
; File C:\Program Files\Microsoft Visual Studio\2022\Community\VC\Tools\MSVC\14.44.35207\include\__msvc_string_view.hpp

; 518  :         return static_cast<unsigned char>(_Ch);

  00043	0f b6 cb	 movzx	 ecx, bl
; File C:\Program Files\Microsoft Visual Studio\2022\Community\VC\Tools\MSVC\14.44.35207\include\streambuf

; 166  :         return 0 < _Pnavail() ? _Traits::to_int_type(*_Pninc() = _Ch) : overflow(_Traits::to_int_type(_Ch));

  00046	51		 push	 ecx
  00047	8b c8		 mov	 ecx, eax
  00049	ff d2		 call	 edx
$LN13@Put:
; File C:\Program Files\Microsoft Visual Studio\2022\Community\VC\Tools\MSVC\14.44.35207\include\__msvc_string_view.hpp

; 522  :         return _Left == _Right;

  0004b	83 f8 ff	 cmp	 eax, -1
; File C:\Program Files\Microsoft Visual Studio\2022\Community\VC\Tools\MSVC\14.44.35207\include\iterator

; 526  :         if (!_Strbuf || traits_type::eq_int_type(_Traits::eof(), _Strbuf->sputc(_Right))) {

  0004e	8b 45 14	 mov	 eax, DWORD PTR __Dest$[ebp+4]
  00051	75 04		 jne	 SHORT $LN2@Put
$LN8@Put:

; 527  :             _Failed = true;

  00053	c6 45 10 01	 mov	 BYTE PTR __Dest$[ebp], 1
$LN2@Put:
; File C:\Program Files\Microsoft Visual Studio\2022\Community\VC\Tools\MSVC\14.44.35207\include\xlocnum

; 1624 :         for (; 0 < _Count; --_Count, (void) ++_Dest, ++_Ptr) {

  00057	47		 inc	 edi
  00058	83 ee 01	 sub	 esi, 1
  0005b	75 b6		 jne	 SHORT $LL4@Put
  0005d	5f		 pop	 edi
  0005e	5b		 pop	 ebx
$LN3@Put:

; 1626 :         }
; 1627 : 
; 1628 :         return _Dest;

  0005f	8b 55 0c	 mov	 edx, DWORD PTR ___$ReturnUdt$[ebp]
  00062	8b 4d 10	 mov	 ecx, DWORD PTR __Dest$[ebp]
  00065	5e		 pop	 esi
  00066	89 42 04	 mov	 DWORD PTR [edx+4], eax
  00069	8b c2		 mov	 eax, edx
  0006b	89 0a		 mov	 DWORD PTR [edx], ecx

; 1629 :     }

  0006d	5d		 pop	 ebp
  0006e	c3		 ret	 0
?_Put@?$num_put@DV?$ostreambuf_iterator@DU?$char_traits@D@std@@@std@@@std@@ABA?AV?$ostreambuf_iterator@DU?$char_traits@D@std@@@2@V32@PBDI@Z ENDP ; std::num_put<char,std::ostreambuf_iterator<char,std::char_traits<char> > >::_Put
_TEXT	ENDS
; Function compile flags: /Ogtp
; File C:\Program Files\Microsoft Visual Studio\2022\Community\VC\Tools\MSVC\14.44.35207\include\xlocnum
; File C:\Program Files\Microsoft Visual Studio\2022\Community\VC\Tools\MSVC\14.44.35207\include\xiosbase
; File C:\Program Files\Microsoft Visual Studio\2022\Community\VC\Tools\MSVC\14.44.35207\include\xlocale
; File C:\Program Files\Microsoft Visual Studio\2022\Community\VC\Tools\MSVC\14.44.35207\include\xlocnum
; File C:\Program Files\Microsoft Visual Studio\2022\Community\VC\Tools\MSVC\14.44.35207\include\xlocale
; File C:\Program Files\Microsoft Visual Studio\2022\Community\VC\Tools\MSVC\14.44.35207\include\xlocnum
; File C:\Program Files\Microsoft Visual Studio\2022\Community\VC\Tools\MSVC\14.44.35207\include\xstring
; File C:\Program Files\Microsoft Visual Studio\2022\Community\VC\Tools\MSVC\14.44.35207\include\xlocale
; File C:\Program Files\Microsoft Visual Studio\2022\Community\VC\Tools\MSVC\14.44.35207\include\xstring
; File C:\Program Files\Microsoft Visual Studio\2022\Community\VC\Tools\MSVC\14.44.35207\include\xlocale
; File C:\Program Files\Microsoft Visual Studio\2022\Community\VC\Tools\MSVC\14.44.35207\include\xlocnum
; File C:\Program Files\Microsoft Visual Studio\2022\Community\VC\Tools\MSVC\14.44.35207\include\xlocale
; File C:\Program Files\Microsoft Visual Studio\2022\Community\VC\Tools\MSVC\14.44.35207\include\xlocnum
; File C:\Program Files\Microsoft Visual Studio\2022\Community\VC\Tools\MSVC\14.44.35207\include\xlocale
; File C:\Program Files\Microsoft Visual Studio\2022\Community\VC\Tools\MSVC\14.44.35207\include\xlocnum
; File C:\Program Files\Microsoft Visual Studio\2022\Community\VC\Tools\MSVC\14.44.35207\include\xlocale
; File C:\Program Files\Microsoft Visual Studio\2022\Community\VC\Tools\MSVC\14.44.35207\include\xiosbase
; File C:\Program Files\Microsoft Visual Studio\2022\Community\VC\Tools\MSVC\14.44.35207\include\xlocale
; File C:\Program Files\Microsoft Visual Studio\2022\Community\VC\Tools\MSVC\14.44.35207\include\xlocnum
; File C:\Program Files\Microsoft Visual Studio\2022\Community\VC\Tools\MSVC\14.44.35207\include\xlocale
; File C:\Program Files\Microsoft Visual Studio\2022\Community\VC\Tools\MSVC\14.44.35207\include\xlocnum
; File C:\Program Files\Microsoft Visual Studio\2022\Community\VC\Tools\MSVC\14.44.35207\include\xstring
; File C:\Program Files\Microsoft Visual Studio\2022\Community\VC\Tools\MSVC\14.44.35207\include\xlocnum
; File C:\Program Files\Microsoft Visual Studio\2022\Community\VC\Tools\MSVC\14.44.35207\include\xstring
; File C:\Program Files\Microsoft Visual Studio\2022\Community\VC\Tools\MSVC\14.44.35207\include\xlocnum
; File C:\Program Files\Microsoft Visual Studio\2022\Community\VC\Tools\MSVC\14.44.35207\include\xstring
; File C:\Program Files\Microsoft Visual Studio\2022\Community\VC\Tools\MSVC\14.44.35207\include\xlocnum
; File C:\Program Files\Microsoft Visual Studio\2022\Community\VC\Tools\MSVC\14.44.35207\include\xstring
; File C:\Program Files\Microsoft Visual Studio\2022\Community\VC\Tools\MSVC\14.44.35207\include\xlocnum
; File C:\Program Files\Microsoft Visual Studio\2022\Community\VC\Tools\MSVC\14.44.35207\include\xstring
; File C:\Program Files\Microsoft Visual Studio\2022\Community\VC\Tools\MSVC\14.44.35207\include\xlocnum
; File C:\Program Files\Microsoft Visual Studio\2022\Community\VC\Tools\MSVC\14.44.35207\include\xstring
; File C:\Program Files\Microsoft Visual Studio\2022\Community\VC\Tools\MSVC\14.44.35207\include\xlocnum
; File C:\Program Files\Microsoft Visual Studio\2022\Community\VC\Tools\MSVC\14.44.35207\include\xstring
; File C:\Program Files\Microsoft Visual Studio\2022\Community\VC\Tools\MSVC\14.44.35207\include\xlocnum
; File C:\Program Files\Microsoft Visual Studio\2022\Community\VC\Tools\MSVC\14.44.35207\include\xstring
; File C:\Program Files\Microsoft Visual Studio\2022\Community\VC\Tools\MSVC\14.44.35207\include\xlocnum
; File C:\Program Files\Microsoft Visual Studio\2022\Community\VC\Tools\MSVC\14.44.35207\include\xstring
; File C:\Program Files\Microsoft Visual Studio\2022\Community\VC\Tools\MSVC\14.44.35207\include\xlocnum
; File C:\Program Files\Microsoft Visual Studio\2022\Community\VC\Tools\MSVC\14.44.35207\include\xstring
; File C:\Program Files\Microsoft Visual Studio\2022\Community\VC\Tools\MSVC\14.44.35207\include\xlocnum
; File C:\Program Files\Microsoft Visual Studio\2022\Community\VC\Tools\MSVC\14.44.35207\include\xstring
; File C:\Program Files\Microsoft Visual Studio\2022\Community\VC\Tools\MSVC\14.44.35207\include\xlocnum
; File C:\Program Files\Microsoft Visual Studio\2022\Community\VC\Tools\MSVC\14.44.35207\include\xiosbase
; File C:\Program Files\Microsoft Visual Studio\2022\Community\VC\Tools\MSVC\14.44.35207\include\xlocnum
; File C:\Program Files\Microsoft Visual Studio\2022\Community\VC\Tools\MSVC\14.44.35207\include\xstring
; File C:\Program Files\Microsoft Visual Studio\2022\Community\VC\Tools\MSVC\14.44.35207\include\xlocnum
; File C:\Program Files\Microsoft Visual Studio\2022\Community\VC\Tools\MSVC\14.44.35207\include\xstring
; File C:\Program Files\Microsoft Visual Studio\2022\Community\VC\Tools\MSVC\14.44.35207\include\xmemory
; File C:\Program Files\Microsoft Visual Studio\2022\Community\VC\Tools\MSVC\14.44.35207\include\xstring
; File C:\Program Files\Microsoft Visual Studio\2022\Community\VC\Tools\MSVC\14.44.35207\include\xmemory
; File C:\Program Files\Microsoft Visual Studio\2022\Community\VC\Tools\MSVC\14.44.35207\include\xstring
; File C:\Program Files\Microsoft Visual Studio\2022\Community\VC\Tools\MSVC\14.44.35207\include\xmemory
; File C:\Program Files\Microsoft Visual Studio\2022\Community\VC\Tools\MSVC\14.44.35207\include\xstring
; File C:\Program Files\Microsoft Visual Studio\2022\Community\VC\Tools\MSVC\14.44.35207\include\xmemory
; File C:\Program Files\Microsoft Visual Studio\2022\Community\VC\Tools\MSVC\14.44.35207\include\xlocnum
; File C:\Program Files\Microsoft Visual Studio\2022\Community\VC\Tools\MSVC\14.44.35207\include\xmemory
; File C:\Program Files\Microsoft Visual Studio\2022\Community\VC\Tools\MSVC\14.44.35207\include\xlocnum
;	COMDAT ?_Iput@?$num_put@DV?$ostreambuf_iterator@DU?$char_traits@D@std@@@std@@@std@@ABA?AV?$ostreambuf_iterator@DU?$char_traits@D@std@@@2@V32@AAVios_base@2@DPADI@Z
_TEXT	SEGMENT
___$ReturnUdt$GSCopy$1$ = -88				; size = 4
$T2 = -84						; size = 8
__Kseparator$3 = -80					; size = 1
__Buf$GSCopy$1$ = -80					; size = 4
__Count$GSCopy$2$ = -80					; size = 4
$T4 = -80						; size = 4
$T5 = -76						; size = 8
$T6 = -76						; size = 8
$T7 = -76						; size = 8
$T8 = -76						; size = 8
$T9 = -76						; size = 8
$T10 = -76						; size = 8
$T11 = -76						; size = 8
__Ctype_fac$1$ = -72					; size = 4
__Punct_fac$1$ = -72					; size = 4
__Iosbase$GSCopy$1$ = -68				; size = 4
__Dest$7$ = -68						; size = 4
__Grouping$ = -64					; size = 24
__Groupstring$ = -40					; size = 24
__$ArrayPad$ = -16					; size = 4
__$EHRec$ = -12						; size = 12
_this$ = 8						; size = 4
___$ReturnUdt$ = 12					; size = 4
__Dest$ = 16						; size = 8
__Iosbase$ = 24						; size = 4
__Fill$ = 28						; size = 1
__Buf$ = 32						; size = 4
__Count$ = 36						; size = 4
?_Iput@?$num_put@DV?$ostreambuf_iterator@DU?$char_traits@D@std@@@std@@@std@@ABA?AV?$ostreambuf_iterator@DU?$char_traits@D@std@@@2@V32@AAVios_base@2@DPADI@Z PROC ; std::num_put<char,std::ostreambuf_iterator<char,std::char_traits<char> > >::_Iput, COMDAT

; 1569 :         size_t _Count) const { // put formatted integer to _Dest

  00000	55		 push	 ebp
  00001	8b ec		 mov	 ebp, esp
  00003	6a ff		 push	 -1
  00005	68 00 00 00 00	 push	 __ehhandler$?_Iput@?$num_put@DV?$ostreambuf_iterator@DU?$char_traits@D@std@@@std@@@std@@ABA?AV?$ostreambuf_iterator@DU?$char_traits@D@std@@@2@V32@AAVios_base@2@DPADI@Z
  0000a	64 a1 00 00 00
	00		 mov	 eax, DWORD PTR fs:0
  00010	50		 push	 eax
  00011	83 ec 4c	 sub	 esp, 76			; 0000004cH
  00014	a1 00 00 00 00	 mov	 eax, DWORD PTR ___security_cookie
  00019	33 c5		 xor	 eax, ebp
  0001b	89 45 f0	 mov	 DWORD PTR __$ArrayPad$[ebp], eax
  0001e	53		 push	 ebx
  0001f	56		 push	 esi
  00020	57		 push	 edi
  00021	50		 push	 eax
  00022	8d 45 f4	 lea	 eax, DWORD PTR __$EHRec$[ebp]
  00025	64 a3 00 00 00
	00		 mov	 DWORD PTR fs:0, eax
  0002b	8b 7d 24	 mov	 edi, DWORD PTR __Count$[ebp]
  0002e	8b 45 0c	 mov	 eax, DWORD PTR ___$ReturnUdt$[ebp]
  00031	8b 4d 18	 mov	 ecx, DWORD PTR __Iosbase$[ebp]
  00034	8b 55 20	 mov	 edx, DWORD PTR __Buf$[ebp]
  00037	89 45 a8	 mov	 DWORD PTR ___$ReturnUdt$GSCopy$1$[ebp], eax
  0003a	89 4d bc	 mov	 DWORD PTR __Iosbase$GSCopy$1$[ebp], ecx
  0003d	89 55 b0	 mov	 DWORD PTR __Buf$GSCopy$1$[ebp], edx

; 1570 :         auto _Prefix = static_cast<size_t>(0 < _Count && (*_Buf == '+' || *_Buf == '-'));

  00040	85 ff		 test	 edi, edi
  00042	74 11		 je	 SHORT $LN17@Iput
  00044	8a 02		 mov	 al, BYTE PTR [edx]
  00046	3c 2b		 cmp	 al, 43			; 0000002bH
  00048	74 04		 je	 SHORT $LN16@Iput
  0004a	3c 2d		 cmp	 al, 45			; 0000002dH
  0004c	75 07		 jne	 SHORT $LN17@Iput
$LN16@Iput:
  0004e	bb 01 00 00 00	 mov	 ebx, 1
  00053	eb 02		 jmp	 SHORT $LN18@Iput
$LN17@Iput:
  00055	33 db		 xor	 ebx, ebx
$LN18@Iput:

; 1571 :         if ((_Iosbase.flags() & ios_base::basefield) == ios_base::hex && _Prefix + 2 <= _Count && _Buf[_Prefix] == '0'
; 1572 :             && (_Buf[_Prefix + 1] == 'x' || _Buf[_Prefix + 1] == 'X')) {

  00057	8b 41 14	 mov	 eax, DWORD PTR [ecx+20]
  0005a	25 00 0e 00 00	 and	 eax, 3584		; 00000e00H
  0005f	3d 00 08 00 00	 cmp	 eax, 2048		; 00000800H
  00064	75 1d		 jne	 SHORT $LN4@Iput
  00066	8d 43 02	 lea	 eax, DWORD PTR [ebx+2]
  00069	3b c7		 cmp	 eax, edi
  0006b	77 16		 ja	 SHORT $LN4@Iput
  0006d	80 3c 1a 30	 cmp	 BYTE PTR [edx+ebx], 48	; 00000030H
  00071	75 10		 jne	 SHORT $LN4@Iput
  00073	8a 54 1a 01	 mov	 dl, BYTE PTR [edx+ebx+1]
  00077	80 fa 78	 cmp	 dl, 120			; 00000078H
  0007a	74 05		 je	 SHORT $LN5@Iput
  0007c	80 fa 58	 cmp	 dl, 88			; 00000058H
  0007f	75 02		 jne	 SHORT $LN4@Iput
$LN5@Iput:

; 1573 :             _Prefix += 2;

  00081	8b d8		 mov	 ebx, eax
$LN4@Iput:
; File C:\Program Files\Microsoft Visual Studio\2022\Community\VC\Tools\MSVC\14.44.35207\include\xiosbase

; 289  :         return *_Ploc;

  00083	8b 41 30	 mov	 eax, DWORD PTR [ecx+48]
; File C:\Program Files\Microsoft Visual Studio\2022\Community\VC\Tools\MSVC\14.44.35207\include\xlocale

; 268  :     locale(const locale& _Right) noexcept : _Ptr(_Right._Ptr) {

  00086	8b 70 04	 mov	 esi, DWORD PTR [eax+4]

; 269  :         _Ptr->_Incref();

  00089	8b ce		 mov	 ecx, esi
  0008b	89 75 b8	 mov	 DWORD PTR $T5[ebp+4], esi
  0008e	8b 06		 mov	 eax, DWORD PTR [esi]
  00090	ff 50 04	 call	 DWORD PTR [eax+4]
; File C:\Program Files\Microsoft Visual Studio\2022\Community\VC\Tools\MSVC\14.44.35207\include\xlocnum

; 1576 :         const ctype<_Elem>& _Ctype_fac = _STD use_facet<ctype<_Elem>>(_Iosbase.getloc());

  00093	8d 45 b4	 lea	 eax, DWORD PTR $T5[ebp]
  00096	c7 45 fc 00 00
	00 00		 mov	 DWORD PTR __$EHRec$[ebp+8], 0
  0009d	50		 push	 eax
  0009e	e8 00 00 00 00	 call	 ??$use_facet@V?$ctype@D@std@@@std@@YAABV?$ctype@D@0@ABVlocale@0@@Z ; std::use_facet<std::ctype<char> >
  000a3	83 c4 04	 add	 esp, 4
  000a6	89 45 b8	 mov	 DWORD PTR __Ctype_fac$1$[ebp], eax
  000a9	c7 45 fc ff ff
	ff ff		 mov	 DWORD PTR __$EHRec$[ebp+8], -1
  000b0	85 f6		 test	 esi, esi
; File C:\Program Files\Microsoft Visual Studio\2022\Community\VC\Tools\MSVC\14.44.35207\include\xlocale

; 354  :         if (_Ptr) {

  000b2	74 13		 je	 SHORT $LN34@Iput

; 355  :             delete _Ptr->_Decref();

  000b4	8b 06		 mov	 eax, DWORD PTR [esi]
  000b6	8b ce		 mov	 ecx, esi
  000b8	ff 50 08	 call	 DWORD PTR [eax+8]
  000bb	8b c8		 mov	 ecx, eax
  000bd	85 c9		 test	 ecx, ecx
  000bf	74 06		 je	 SHORT $LN34@Iput
  000c1	8b 01		 mov	 eax, DWORD PTR [ecx]
  000c3	6a 01		 push	 1
  000c5	ff 10		 call	 DWORD PTR [eax]
$LN34@Iput:
; File C:\Program Files\Microsoft Visual Studio\2022\Community\VC\Tools\MSVC\14.44.35207\include\xlocnum

; 1577 :         basic_string<_Elem> _Groupstring(_Count, _Elem(0)); // reserve space

  000c7	6a 00		 push	 0
  000c9	57		 push	 edi
  000ca	8d 4d d8	 lea	 ecx, DWORD PTR __Groupstring$[ebp]
  000cd	e8 00 00 00 00	 call	 ??0?$basic_string@DU?$char_traits@D@std@@V?$allocator@D@2@@std@@QAE@ID@Z ; std::basic_string<char,std::char_traits<char>,std::allocator<char> >::basic_string<char,std::char_traits<char>,std::allocator<char> >
; File C:\Program Files\Microsoft Visual Studio\2022\Community\VC\Tools\MSVC\14.44.35207\include\xstring

; 453  :         return _Myres > _Small_string_capacity;

  000d2	83 7d ec 0f	 cmp	 DWORD PTR __Groupstring$[ebp+20], 15 ; 0000000fH

; 435  :         value_type* _Result = _Bx._Buf;

  000d6	8d 4d d8	 lea	 ecx, DWORD PTR __Groupstring$[ebp]
; File C:\Program Files\Microsoft Visual Studio\2022\Community\VC\Tools\MSVC\14.44.35207\include\xlocale

; 2760 :         return do_widen(_First, _Last, _Dest);

  000d9	8b 75 b8	 mov	 esi, DWORD PTR __Ctype_fac$1$[ebp]
; File C:\Program Files\Microsoft Visual Studio\2022\Community\VC\Tools\MSVC\14.44.35207\include\xstring

; 436  :         if (_Large_mode_engaged()) {

  000dc	0f 47 4d d8	 cmova	 ecx, DWORD PTR __Groupstring$[ebp]
; File C:\Program Files\Microsoft Visual Studio\2022\Community\VC\Tools\MSVC\14.44.35207\include\xlocale

; 2760 :         return do_widen(_First, _Last, _Dest);

  000e0	51		 push	 ecx
; File C:\Program Files\Microsoft Visual Studio\2022\Community\VC\Tools\MSVC\14.44.35207\include\xlocnum

; 1578 :         _Ctype_fac.widen(_Buf, _Buf + _Count, &_Groupstring[0]);

  000e1	8b 4d b0	 mov	 ecx, DWORD PTR __Buf$GSCopy$1$[ebp]
; File C:\Program Files\Microsoft Visual Studio\2022\Community\VC\Tools\MSVC\14.44.35207\include\xlocale

; 2760 :         return do_widen(_First, _Last, _Dest);

  000e4	8b 06		 mov	 eax, DWORD PTR [esi]
; File C:\Program Files\Microsoft Visual Studio\2022\Community\VC\Tools\MSVC\14.44.35207\include\xlocnum

; 1577 :         basic_string<_Elem> _Groupstring(_Count, _Elem(0)); // reserve space

  000e6	c7 45 fc 01 00
	00 00		 mov	 DWORD PTR __$EHRec$[ebp+8], 1
; File C:\Program Files\Microsoft Visual Studio\2022\Community\VC\Tools\MSVC\14.44.35207\include\xlocale

; 2760 :         return do_widen(_First, _Last, _Dest);

  000ed	8b 50 1c	 mov	 edx, DWORD PTR [eax+28]
; File C:\Program Files\Microsoft Visual Studio\2022\Community\VC\Tools\MSVC\14.44.35207\include\xlocnum

; 1578 :         _Ctype_fac.widen(_Buf, _Buf + _Count, &_Groupstring[0]);

  000f0	8d 04 0f	 lea	 eax, DWORD PTR [edi+ecx]
; File C:\Program Files\Microsoft Visual Studio\2022\Community\VC\Tools\MSVC\14.44.35207\include\xlocale

; 2760 :         return do_widen(_First, _Last, _Dest);

  000f3	50		 push	 eax
  000f4	51		 push	 ecx
  000f5	8b ce		 mov	 ecx, esi
  000f7	ff d2		 call	 edx
; File C:\Program Files\Microsoft Visual Studio\2022\Community\VC\Tools\MSVC\14.44.35207\include\xiosbase

; 289  :         return *_Ploc;

  000f9	8b 4d bc	 mov	 ecx, DWORD PTR __Iosbase$GSCopy$1$[ebp]
  000fc	8b 41 30	 mov	 eax, DWORD PTR [ecx+48]
; File C:\Program Files\Microsoft Visual Studio\2022\Community\VC\Tools\MSVC\14.44.35207\include\xlocale

; 268  :     locale(const locale& _Right) noexcept : _Ptr(_Right._Ptr) {

  000ff	8b 48 04	 mov	 ecx, DWORD PTR [eax+4]
  00102	89 4d b0	 mov	 DWORD PTR $T4[ebp], ecx
  00105	89 4d b8	 mov	 DWORD PTR $T6[ebp+4], ecx

; 269  :         _Ptr->_Incref();

  00108	8b 01		 mov	 eax, DWORD PTR [ecx]
  0010a	ff 50 04	 call	 DWORD PTR [eax+4]
; File C:\Program Files\Microsoft Visual Studio\2022\Community\VC\Tools\MSVC\14.44.35207\include\xlocnum

; 1580 :         const auto& _Punct_fac = _STD use_facet<numpunct<_Elem>>(_Iosbase.getloc());

  0010d	8d 45 b4	 lea	 eax, DWORD PTR $T6[ebp]
  00110	c6 45 fc 02	 mov	 BYTE PTR __$EHRec$[ebp+8], 2
  00114	50		 push	 eax
  00115	e8 00 00 00 00	 call	 ??$use_facet@V?$numpunct@D@std@@@std@@YAABV?$numpunct@D@0@ABVlocale@0@@Z ; std::use_facet<std::numpunct<char> >
  0011a	8b 4d b0	 mov	 ecx, DWORD PTR $T4[ebp]
  0011d	83 c4 04	 add	 esp, 4
  00120	c6 45 fc 01	 mov	 BYTE PTR __$EHRec$[ebp+8], 1
  00124	8b f0		 mov	 esi, eax
  00126	89 75 b8	 mov	 DWORD PTR __Punct_fac$1$[ebp], esi
  00129	85 c9		 test	 ecx, ecx
; File C:\Program Files\Microsoft Visual Studio\2022\Community\VC\Tools\MSVC\14.44.35207\include\xlocale

; 354  :         if (_Ptr) {

  0012b	74 11		 je	 SHORT $LN60@Iput

; 355  :             delete _Ptr->_Decref();

  0012d	8b 01		 mov	 eax, DWORD PTR [ecx]
  0012f	ff 50 08	 call	 DWORD PTR [eax+8]
  00132	8b c8		 mov	 ecx, eax
  00134	85 c9		 test	 ecx, ecx
  00136	74 06		 je	 SHORT $LN60@Iput
  00138	8b 01		 mov	 eax, DWORD PTR [ecx]
  0013a	6a 01		 push	 1
  0013c	ff 10		 call	 DWORD PTR [eax]
$LN60@Iput:
; File C:\Program Files\Microsoft Visual Studio\2022\Community\VC\Tools\MSVC\14.44.35207\include\xlocnum

; 108  :         return do_grouping();

  0013e	8b 06		 mov	 eax, DWORD PTR [esi]
  00140	8d 4d c0	 lea	 ecx, DWORD PTR __Grouping$[ebp]
  00143	51		 push	 ecx
  00144	8b ce		 mov	 ecx, esi
  00146	ff 50 14	 call	 DWORD PTR [eax+20]
; File C:\Program Files\Microsoft Visual Studio\2022\Community\VC\Tools\MSVC\14.44.35207\include\xstring

; 453  :         return _Myres > _Small_string_capacity;

  00149	83 7d d4 0f	 cmp	 DWORD PTR __Grouping$[ebp+20], 15 ; 0000000fH

; 444  :         const value_type* _Result = _Bx._Buf;

  0014d	8d 75 c0	 lea	 esi, DWORD PTR __Grouping$[ebp]
; File C:\Program Files\Microsoft Visual Studio\2022\Community\VC\Tools\MSVC\14.44.35207\include\xlocnum

; 1581 :         const string _Grouping = _Punct_fac.grouping();

  00150	c6 45 fc 03	 mov	 BYTE PTR __$EHRec$[ebp+8], 3
; File C:\Program Files\Microsoft Visual Studio\2022\Community\VC\Tools\MSVC\14.44.35207\include\xstring

; 445  :         if (_Large_mode_engaged()) {

  00154	0f 47 75 c0	 cmova	 esi, DWORD PTR __Grouping$[ebp]
; File C:\Program Files\Microsoft Visual Studio\2022\Community\VC\Tools\MSVC\14.44.35207\include\xlocnum

; 1583 :         if (*_Pg != CHAR_MAX && '\0' < *_Pg) { // grouping specified, add thousands separators

  00158	8a 06		 mov	 al, BYTE PTR [esi]
  0015a	3c 7f		 cmp	 al, 127			; 0000007fH
  0015c	74 46		 je	 SHORT $LN3@Iput
  0015e	84 c0		 test	 al, al
  00160	7e 42		 jle	 SHORT $LN3@Iput

; 104  :         return do_thousands_sep();

  00162	8b 4d b8	 mov	 ecx, DWORD PTR __Punct_fac$1$[ebp]
  00165	8b 01		 mov	 eax, DWORD PTR [ecx]
  00167	8b 40 10	 mov	 eax, DWORD PTR [eax+16]
  0016a	ff d0		 call	 eax

; 1584 :             const _Elem _Kseparator = _Punct_fac.thousands_sep();

  0016c	88 45 b0	 mov	 BYTE PTR __Kseparator$3[ebp], al

; 1585 :             while (*_Pg != CHAR_MAX && '\0' < *_Pg && static_cast<size_t>(*_Pg) < _Count - _Prefix) {

  0016f	8a 06		 mov	 al, BYTE PTR [esi]
  00171	3c 7f		 cmp	 al, 127			; 0000007fH
  00173	74 2f		 je	 SHORT $LN3@Iput
$LL2@Iput:
  00175	84 c0		 test	 al, al
  00177	7e 2b		 jle	 SHORT $LN3@Iput
  00179	0f be 0e	 movsx	 ecx, BYTE PTR [esi]
  0017c	8b c7		 mov	 eax, edi
  0017e	2b c3		 sub	 eax, ebx
  00180	3b c8		 cmp	 ecx, eax
  00182	73 20		 jae	 SHORT $LN3@Iput

; 1586 :                 // insert thousands separator
; 1587 :                 _Count -= *_Pg;
; 1588 :                 _Groupstring.insert(_Count, 1, _Kseparator);

  00184	ff 75 b0	 push	 DWORD PTR __Kseparator$3[ebp]
  00187	2b f9		 sub	 edi, ecx
  00189	8d 4d d8	 lea	 ecx, DWORD PTR __Groupstring$[ebp]
  0018c	6a 01		 push	 1
  0018e	57		 push	 edi
  0018f	e8 00 00 00 00	 call	 ?insert@?$basic_string@DU?$char_traits@D@std@@V?$allocator@D@2@@std@@QAEAAV12@IID@Z ; std::basic_string<char,std::char_traits<char>,std::allocator<char> >::insert

; 1589 :                 if ('\0' < _Pg[1]) {

  00194	80 7e 01 00	 cmp	 BYTE PTR [esi+1], 0
  00198	8d 46 01	 lea	 eax, DWORD PTR [esi+1]
  0019b	0f 4f f0	 cmovg	 esi, eax
  0019e	8a 06		 mov	 al, BYTE PTR [esi]
  001a0	3c 7f		 cmp	 al, 127			; 0000007fH
  001a2	75 d1		 jne	 SHORT $LL2@Iput
$LN3@Iput:

; 1590 :                     ++_Pg; // not last group, advance
; 1591 :                 }
; 1592 :             }
; 1593 :         }
; 1594 : 
; 1595 :         _Count = _Groupstring.size();
; 1596 : 
; 1597 :         size_t _Fillcount;
; 1598 :         if (_Iosbase.width() <= 0 || static_cast<size_t>(_Iosbase.width()) <= _Count) {

  001a4	8b 7d bc	 mov	 edi, DWORD PTR __Iosbase$GSCopy$1$[ebp]
  001a7	8b 45 e8	 mov	 eax, DWORD PTR __Groupstring$[ebp+16]
  001aa	89 45 b0	 mov	 DWORD PTR __Count$GSCopy$2$[ebp], eax
  001ad	83 7f 24 00	 cmp	 DWORD PTR [edi+36], 0
  001b1	8b 77 20	 mov	 esi, DWORD PTR [edi+32]
  001b4	7c 0e		 jl	 SHORT $LN10@Iput
  001b6	7f 04		 jg	 SHORT $LN189@Iput
  001b8	85 f6		 test	 esi, esi
  001ba	74 08		 je	 SHORT $LN10@Iput
$LN189@Iput:
  001bc	3b f0		 cmp	 esi, eax
  001be	76 04		 jbe	 SHORT $LN10@Iput

; 1600 :         } else {
; 1601 :             _Fillcount = static_cast<size_t>(_Iosbase.width()) - _Count;

  001c0	2b f0		 sub	 esi, eax
  001c2	eb 02		 jmp	 SHORT $LN9@Iput
$LN10@Iput:

; 1599 :             _Fillcount = 0;

  001c4	33 f6		 xor	 esi, esi
$LN9@Iput:

; 1602 :         }
; 1603 : 
; 1604 :         ios_base::fmtflags _Adjustfield = _Iosbase.flags() & ios_base::adjustfield;

  001c6	8b 47 14	 mov	 eax, DWORD PTR [edi+20]
  001c9	25 c0 01 00 00	 and	 eax, 448		; 000001c0H

; 1605 :         if (_Adjustfield != ios_base::left && _Adjustfield != ios_base::internal) { // put leading fill

  001ce	83 f8 40	 cmp	 eax, 64			; 00000040H
  001d1	0f 84 8d 00 00
	00		 je	 $LN13@Iput
  001d7	3d 00 01 00 00	 cmp	 eax, 256		; 00000100H
  001dc	74 43		 je	 SHORT $LN188@Iput

; 1606 :             _Dest      = _Rep(_Dest, _Fill, _Fillcount);

  001de	56		 push	 esi
  001df	ff 75 1c	 push	 DWORD PTR __Fill$[ebp]
  001e2	8d 45 b4	 lea	 eax, DWORD PTR $T7[ebp]
  001e5	ff 75 14	 push	 DWORD PTR __Dest$[ebp+4]
  001e8	ff 75 10	 push	 DWORD PTR __Dest$[ebp]
  001eb	50		 push	 eax
  001ec	ff 75 08	 push	 DWORD PTR _this$[ebp]
  001ef	e8 00 00 00 00	 call	 ?_Rep@?$num_put@DV?$ostreambuf_iterator@DU?$char_traits@D@std@@@std@@@std@@ABA?AV?$ostreambuf_iterator@DU?$char_traits@D@std@@@2@V32@DI@Z ; std::num_put<char,std::ostreambuf_iterator<char,std::char_traits<char> > >::_Rep

; 1607 :             _Fillcount = 0;

  001f4	33 f6		 xor	 esi, esi
; File C:\Program Files\Microsoft Visual Studio\2022\Community\VC\Tools\MSVC\14.44.35207\include\xstring

; 453  :         return _Myres > _Small_string_capacity;

  001f6	83 7d ec 0f	 cmp	 DWORD PTR __Groupstring$[ebp+20], 15 ; 0000000fH
; File C:\Program Files\Microsoft Visual Studio\2022\Community\VC\Tools\MSVC\14.44.35207\include\xlocnum

; 1608 :             _Dest      = _Put(_Dest, &_Groupstring[0], _Prefix);

  001fa	53		 push	 ebx
  001fb	8b 10		 mov	 edx, DWORD PTR [eax]
  001fd	8b 48 04	 mov	 ecx, DWORD PTR [eax+4]
; File C:\Program Files\Microsoft Visual Studio\2022\Community\VC\Tools\MSVC\14.44.35207\include\xstring

; 435  :         value_type* _Result = _Bx._Buf;

  00200	8d 45 d8	 lea	 eax, DWORD PTR __Groupstring$[ebp]

; 436  :         if (_Large_mode_engaged()) {

  00203	0f 47 45 d8	 cmova	 eax, DWORD PTR __Groupstring$[ebp]
; File C:\Program Files\Microsoft Visual Studio\2022\Community\VC\Tools\MSVC\14.44.35207\include\xlocnum

; 1608 :             _Dest      = _Put(_Dest, &_Groupstring[0], _Prefix);

  00207	50		 push	 eax
  00208	51		 push	 ecx
  00209	52		 push	 edx
  0020a	8d 45 b4	 lea	 eax, DWORD PTR $T8[ebp]
  0020d	89 55 10	 mov	 DWORD PTR __Dest$[ebp], edx
  00210	50		 push	 eax
  00211	ff 75 08	 push	 DWORD PTR _this$[ebp]
  00214	89 4d 14	 mov	 DWORD PTR __Dest$[ebp+4], ecx
  00217	e8 00 00 00 00	 call	 ?_Put@?$num_put@DV?$ostreambuf_iterator@DU?$char_traits@D@std@@@std@@@std@@ABA?AV?$ostreambuf_iterator@DU?$char_traits@D@std@@@2@V32@PBDI@Z ; std::num_put<char,std::ostreambuf_iterator<char,std::char_traits<char> > >::_Put
  0021c	83 c4 30	 add	 esp, 48			; 00000030H
  0021f	eb 65		 jmp	 SHORT $LN193@Iput
$LN188@Iput:
; File C:\Program Files\Microsoft Visual Studio\2022\Community\VC\Tools\MSVC\14.44.35207\include\xstring

; 453  :         return _Myres > _Small_string_capacity;

  00221	83 7d ec 0f	 cmp	 DWORD PTR __Groupstring$[ebp+20], 15 ; 0000000fH

; 435  :         value_type* _Result = _Bx._Buf;

  00225	8d 45 d8	 lea	 eax, DWORD PTR __Groupstring$[ebp]
; File C:\Program Files\Microsoft Visual Studio\2022\Community\VC\Tools\MSVC\14.44.35207\include\xlocnum

; 1610 :             _Dest      = _Put(_Dest, &_Groupstring[0], _Prefix);

  00228	53		 push	 ebx
; File C:\Program Files\Microsoft Visual Studio\2022\Community\VC\Tools\MSVC\14.44.35207\include\xstring

; 436  :         if (_Large_mode_engaged()) {

  00229	0f 47 45 d8	 cmova	 eax, DWORD PTR __Groupstring$[ebp]
; File C:\Program Files\Microsoft Visual Studio\2022\Community\VC\Tools\MSVC\14.44.35207\include\xlocnum

; 1610 :             _Dest      = _Put(_Dest, &_Groupstring[0], _Prefix);

  0022d	50		 push	 eax
  0022e	ff 75 14	 push	 DWORD PTR __Dest$[ebp+4]
  00231	8d 45 b4	 lea	 eax, DWORD PTR $T9[ebp]
  00234	ff 75 10	 push	 DWORD PTR __Dest$[ebp]
  00237	50		 push	 eax
  00238	ff 75 08	 push	 DWORD PTR _this$[ebp]
  0023b	e8 00 00 00 00	 call	 ?_Put@?$num_put@DV?$ostreambuf_iterator@DU?$char_traits@D@std@@@std@@@std@@ABA?AV?$ostreambuf_iterator@DU?$char_traits@D@std@@@2@V32@PBDI@Z ; std::num_put<char,std::ostreambuf_iterator<char,std::char_traits<char> > >::_Put

; 1611 :             _Dest      = _Rep(_Dest, _Fill, _Fillcount);

  00240	56		 push	 esi
  00241	ff 75 1c	 push	 DWORD PTR __Fill$[ebp]
  00244	8b 08		 mov	 ecx, DWORD PTR [eax]
  00246	8b 40 04	 mov	 eax, DWORD PTR [eax+4]
  00249	50		 push	 eax
  0024a	89 45 14	 mov	 DWORD PTR __Dest$[ebp+4], eax
  0024d	8d 45 b4	 lea	 eax, DWORD PTR $T10[ebp]
  00250	51		 push	 ecx
  00251	50		 push	 eax
  00252	ff 75 08	 push	 DWORD PTR _this$[ebp]
  00255	89 4d 10	 mov	 DWORD PTR __Dest$[ebp], ecx
  00258	e8 00 00 00 00	 call	 ?_Rep@?$num_put@DV?$ostreambuf_iterator@DU?$char_traits@D@std@@@std@@@std@@ABA?AV?$ostreambuf_iterator@DU?$char_traits@D@std@@@2@V32@DI@Z ; std::num_put<char,std::ostreambuf_iterator<char,std::char_traits<char> > >::_Rep
  0025d	83 c4 30	 add	 esp, 48			; 00000030H

; 1612 :             _Fillcount = 0;

  00260	33 f6		 xor	 esi, esi

; 1613 :         } else {

  00262	eb 22		 jmp	 SHORT $LN193@Iput
$LN13@Iput:
; File C:\Program Files\Microsoft Visual Studio\2022\Community\VC\Tools\MSVC\14.44.35207\include\xstring

; 453  :         return _Myres > _Small_string_capacity;

  00264	83 7d ec 0f	 cmp	 DWORD PTR __Groupstring$[ebp+20], 15 ; 0000000fH

; 435  :         value_type* _Result = _Bx._Buf;

  00268	8d 45 d8	 lea	 eax, DWORD PTR __Groupstring$[ebp]
; File C:\Program Files\Microsoft Visual Studio\2022\Community\VC\Tools\MSVC\14.44.35207\include\xlocnum

; 1614 :             _Dest = _Put(_Dest, &_Groupstring[0], _Prefix);

  0026b	53		 push	 ebx
; File C:\Program Files\Microsoft Visual Studio\2022\Community\VC\Tools\MSVC\14.44.35207\include\xstring

; 436  :         if (_Large_mode_engaged()) {

  0026c	0f 47 45 d8	 cmova	 eax, DWORD PTR __Groupstring$[ebp]
; File C:\Program Files\Microsoft Visual Studio\2022\Community\VC\Tools\MSVC\14.44.35207\include\xlocnum

; 1614 :             _Dest = _Put(_Dest, &_Groupstring[0], _Prefix);

  00270	50		 push	 eax
  00271	ff 75 14	 push	 DWORD PTR __Dest$[ebp+4]
  00274	8d 45 b4	 lea	 eax, DWORD PTR $T11[ebp]
  00277	ff 75 10	 push	 DWORD PTR __Dest$[ebp]
  0027a	50		 push	 eax
  0027b	ff 75 08	 push	 DWORD PTR _this$[ebp]
  0027e	e8 00 00 00 00	 call	 ?_Put@?$num_put@DV?$ostreambuf_iterator@DU?$char_traits@D@std@@@std@@@std@@ABA?AV?$ostreambuf_iterator@DU?$char_traits@D@std@@@2@V32@PBDI@Z ; std::num_put<char,std::ostreambuf_iterator<char,std::char_traits<char> > >::_Put
  00283	83 c4 18	 add	 esp, 24			; 00000018H
$LN193@Iput:
; File C:\Program Files\Microsoft Visual Studio\2022\Community\VC\Tools\MSVC\14.44.35207\include\xstring

; 435  :         value_type* _Result = _Bx._Buf;

  00286	8b 10		 mov	 edx, DWORD PTR [eax]
  00288	8b 40 04	 mov	 eax, DWORD PTR [eax+4]

; 453  :         return _Myres > _Small_string_capacity;

  0028b	83 7d ec 0f	 cmp	 DWORD PTR __Groupstring$[ebp+20], 15 ; 0000000fH
; File C:\Program Files\Microsoft Visual Studio\2022\Community\VC\Tools\MSVC\14.44.35207\include\xlocnum

; 1617 :         _Dest = _Put(_Dest, &_Groupstring[_Prefix], _Count - _Prefix);

  0028f	8b 4d b0	 mov	 ecx, DWORD PTR __Count$GSCopy$2$[ebp]
; File C:\Program Files\Microsoft Visual Studio\2022\Community\VC\Tools\MSVC\14.44.35207\include\xstring

; 435  :         value_type* _Result = _Bx._Buf;

  00292	89 45 bc	 mov	 DWORD PTR __Dest$7$[ebp], eax
  00295	89 45 14	 mov	 DWORD PTR __Dest$[ebp+4], eax
  00298	8d 45 d8	 lea	 eax, DWORD PTR __Groupstring$[ebp]

; 436  :         if (_Large_mode_engaged()) {

  0029b	0f 47 45 d8	 cmova	 eax, DWORD PTR __Groupstring$[ebp]
; File C:\Program Files\Microsoft Visual Studio\2022\Community\VC\Tools\MSVC\14.44.35207\include\xlocnum

; 1617 :         _Dest = _Put(_Dest, &_Groupstring[_Prefix], _Count - _Prefix);

  0029f	2b cb		 sub	 ecx, ebx
  002a1	51		 push	 ecx
; File C:\Program Files\Microsoft Visual Studio\2022\Community\VC\Tools\MSVC\14.44.35207\include\xstring

; 2272 :         return _Mypair._Myval2._Myptr()[_Off];

  002a2	03 c3		 add	 eax, ebx

; 435  :         value_type* _Result = _Bx._Buf;

  002a4	89 55 10	 mov	 DWORD PTR __Dest$[ebp], edx
; File C:\Program Files\Microsoft Visual Studio\2022\Community\VC\Tools\MSVC\14.44.35207\include\xlocnum

; 1617 :         _Dest = _Put(_Dest, &_Groupstring[_Prefix], _Count - _Prefix);

  002a7	8b 5d 08	 mov	 ebx, DWORD PTR _this$[ebp]
  002aa	50		 push	 eax
  002ab	ff 75 bc	 push	 DWORD PTR __Dest$7$[ebp]
  002ae	8d 45 ac	 lea	 eax, DWORD PTR $T2[ebp]
  002b1	52		 push	 edx
  002b2	50		 push	 eax
  002b3	53		 push	 ebx
  002b4	e8 00 00 00 00	 call	 ?_Put@?$num_put@DV?$ostreambuf_iterator@DU?$char_traits@D@std@@@std@@@std@@ABA?AV?$ostreambuf_iterator@DU?$char_traits@D@std@@@2@V32@PBDI@Z ; std::num_put<char,std::ostreambuf_iterator<char,std::char_traits<char> > >::_Put

; 1619 :         return _Rep(_Dest, _Fill, _Fillcount); // put trailing fill

  002b9	56		 push	 esi
  002ba	ff 75 1c	 push	 DWORD PTR __Fill$[ebp]
  002bd	8b 75 a8	 mov	 esi, DWORD PTR ___$ReturnUdt$GSCopy$1$[ebp]
  002c0	8b 08		 mov	 ecx, DWORD PTR [eax]
  002c2	8b 40 04	 mov	 eax, DWORD PTR [eax+4]
  002c5	50		 push	 eax
  002c6	51		 push	 ecx
  002c7	56		 push	 esi
  002c8	53		 push	 ebx
  002c9	89 4d 10	 mov	 DWORD PTR __Dest$[ebp], ecx
  002cc	89 45 14	 mov	 DWORD PTR __Dest$[ebp+4], eax
; File C:\Program Files\Microsoft Visual Studio\2022\Community\VC\Tools\MSVC\14.44.35207\include\xiosbase

; 284  :         _Wide                      = _Newwidth;

  002cf	c7 47 20 00 00
	00 00		 mov	 DWORD PTR [edi+32], 0
  002d6	c7 47 24 00 00
	00 00		 mov	 DWORD PTR [edi+36], 0
; File C:\Program Files\Microsoft Visual Studio\2022\Community\VC\Tools\MSVC\14.44.35207\include\xlocnum

; 1619 :         return _Rep(_Dest, _Fill, _Fillcount); // put trailing fill

  002dd	e8 00 00 00 00	 call	 ?_Rep@?$num_put@DV?$ostreambuf_iterator@DU?$char_traits@D@std@@@std@@@std@@ABA?AV?$ostreambuf_iterator@DU?$char_traits@D@std@@@2@V32@DI@Z ; std::num_put<char,std::ostreambuf_iterator<char,std::char_traits<char> > >::_Rep
; File C:\Program Files\Microsoft Visual Studio\2022\Community\VC\Tools\MSVC\14.44.35207\include\xstring

; 453  :         return _Myres > _Small_string_capacity;

  002e2	8b 4d d4	 mov	 ecx, DWORD PTR __Grouping$[ebp+20]
; File C:\Program Files\Microsoft Visual Studio\2022\Community\VC\Tools\MSVC\14.44.35207\include\xlocnum

; 1619 :         return _Rep(_Dest, _Fill, _Fillcount); // put trailing fill

  002e5	83 c4 30	 add	 esp, 48			; 00000030H
; File C:\Program Files\Microsoft Visual Studio\2022\Community\VC\Tools\MSVC\14.44.35207\include\xstring

; 453  :         return _Myres > _Small_string_capacity;

  002e8	83 f9 0f	 cmp	 ecx, 15			; 0000000fH

; 3083 :         if (_My_data._Large_mode_engaged()) {

  002eb	76 28		 jbe	 SHORT $LN97@Iput
; File C:\Program Files\Microsoft Visual Studio\2022\Community\VC\Tools\MSVC\14.44.35207\include\xmemory

; 985  :         _STD _Deallocate<_New_alignof<_Ty>>(_Ptr, sizeof(_Ty) * _Count);

  002ed	8b 55 c0	 mov	 edx, DWORD PTR __Grouping$[ebp]
; File C:\Program Files\Microsoft Visual Studio\2022\Community\VC\Tools\MSVC\14.44.35207\include\xstring

; 852  :         _Al.deallocate(_Old_ptr, _Capacity + 1); // +1 for null terminator

  002f0	41		 inc	 ecx
; File C:\Program Files\Microsoft Visual Studio\2022\Community\VC\Tools\MSVC\14.44.35207\include\xmemory

; 985  :         _STD _Deallocate<_New_alignof<_Ty>>(_Ptr, sizeof(_Ty) * _Count);

  002f1	8b c2		 mov	 eax, edx

; 284  :         if (_Bytes >= _Big_allocation_threshold) {

  002f3	81 f9 00 10 00
	00		 cmp	 ecx, 4096		; 00001000H
  002f9	72 10		 jb	 SHORT $LN102@Iput

; 205  :     const uintptr_t _Ptr_container   = _Ptr_user[-1];

  002fb	8b 50 fc	 mov	 edx, DWORD PTR [eax-4]
  002fe	83 c1 23	 add	 ecx, 35			; 00000023H
  00301	2b c2		 sub	 eax, edx

; 219  :     _STL_VERIFY(_Back_shift >= _Min_back_shift && _Back_shift <= _Non_user_size, "invalid argument");

  00303	83 c0 fc	 add	 eax, -4			; fffffffcH
  00306	83 f8 1f	 cmp	 eax, 31			; 0000001fH
  00309	77 6a		 ja	 SHORT $LN133@Iput
$LN102@Iput:

; 289  :         ::operator delete(_Ptr, _Bytes);

  0030b	51		 push	 ecx
  0030c	52		 push	 edx
  0030d	e8 00 00 00 00	 call	 ??3@YAXPAXI@Z		; operator delete
  00312	83 c4 08	 add	 esp, 8
$LN97@Iput:
; File C:\Program Files\Microsoft Visual Studio\2022\Community\VC\Tools\MSVC\14.44.35207\include\xstring

; 453  :         return _Myres > _Small_string_capacity;

  00315	8b 4d ec	 mov	 ecx, DWORD PTR __Groupstring$[ebp+20]

; 3090 :         _My_data._Mysize = 0;

  00318	c7 45 d0 00 00
	00 00		 mov	 DWORD PTR __Grouping$[ebp+16], 0

; 3091 :         _My_data._Myres  = _Small_string_capacity;

  0031f	c7 45 d4 0f 00
	00 00		 mov	 DWORD PTR __Grouping$[ebp+20], 15 ; 0000000fH

; 3092 :         // the _Traits::assign is last so the codegen doesn't think the char write can alias this
; 3093 :         _Traits::assign(_My_data._Bx._Buf[0], _Elem());

  00326	c6 45 c0 00	 mov	 BYTE PTR __Grouping$[ebp], 0

; 453  :         return _Myres > _Small_string_capacity;

  0032a	83 f9 0f	 cmp	 ecx, 15			; 0000000fH

; 3083 :         if (_My_data._Large_mode_engaged()) {

  0032d	76 28		 jbe	 SHORT $LN129@Iput
; File C:\Program Files\Microsoft Visual Studio\2022\Community\VC\Tools\MSVC\14.44.35207\include\xmemory

; 985  :         _STD _Deallocate<_New_alignof<_Ty>>(_Ptr, sizeof(_Ty) * _Count);

  0032f	8b 55 d8	 mov	 edx, DWORD PTR __Groupstring$[ebp]
; File C:\Program Files\Microsoft Visual Studio\2022\Community\VC\Tools\MSVC\14.44.35207\include\xstring

; 852  :         _Al.deallocate(_Old_ptr, _Capacity + 1); // +1 for null terminator

  00332	41		 inc	 ecx
; File C:\Program Files\Microsoft Visual Studio\2022\Community\VC\Tools\MSVC\14.44.35207\include\xmemory

; 985  :         _STD _Deallocate<_New_alignof<_Ty>>(_Ptr, sizeof(_Ty) * _Count);

  00333	8b c2		 mov	 eax, edx

; 284  :         if (_Bytes >= _Big_allocation_threshold) {

  00335	81 f9 00 10 00
	00		 cmp	 ecx, 4096		; 00001000H
  0033b	72 10		 jb	 SHORT $LN134@Iput

; 205  :     const uintptr_t _Ptr_container   = _Ptr_user[-1];

  0033d	8b 50 fc	 mov	 edx, DWORD PTR [eax-4]
  00340	83 c1 23	 add	 ecx, 35			; 00000023H
  00343	2b c2		 sub	 eax, edx

; 219  :     _STL_VERIFY(_Back_shift >= _Min_back_shift && _Back_shift <= _Non_user_size, "invalid argument");

  00345	83 c0 fc	 add	 eax, -4			; fffffffcH
  00348	83 f8 1f	 cmp	 eax, 31			; 0000001fH
  0034b	77 28		 ja	 SHORT $LN133@Iput
$LN134@Iput:

; 289  :         ::operator delete(_Ptr, _Bytes);

  0034d	51		 push	 ecx
  0034e	52		 push	 edx
  0034f	e8 00 00 00 00	 call	 ??3@YAXPAXI@Z		; operator delete
  00354	83 c4 08	 add	 esp, 8
$LN129@Iput:
; File C:\Program Files\Microsoft Visual Studio\2022\Community\VC\Tools\MSVC\14.44.35207\include\xlocnum

; 1619 :         return _Rep(_Dest, _Fill, _Fillcount); // put trailing fill

  00357	8b c6		 mov	 eax, esi

; 1620 :     }

  00359	8b 4d f4	 mov	 ecx, DWORD PTR __$EHRec$[ebp]
  0035c	64 89 0d 00 00
	00 00		 mov	 DWORD PTR fs:0, ecx
  00363	59		 pop	 ecx
  00364	5f		 pop	 edi
  00365	5e		 pop	 esi
  00366	5b		 pop	 ebx
  00367	8b 4d f0	 mov	 ecx, DWORD PTR __$ArrayPad$[ebp]
  0036a	33 cd		 xor	 ecx, ebp
  0036c	e8 00 00 00 00	 call	 @__security_check_cookie@4
  00371	8b e5		 mov	 esp, ebp
  00373	5d		 pop	 ebp
  00374	c3		 ret	 0
$LN133@Iput:
; File C:\Program Files\Microsoft Visual Studio\2022\Community\VC\Tools\MSVC\14.44.35207\include\xmemory

; 219  :     _STL_VERIFY(_Back_shift >= _Min_back_shift && _Back_shift <= _Non_user_size, "invalid argument");

  00375	6a 00		 push	 0
  00377	6a 00		 push	 0
  00379	6a 00		 push	 0
  0037b	6a 00		 push	 0
  0037d	6a 00		 push	 0
  0037f	e8 00 00 00 00	 call	 __invoke_watson
$LN192@Iput:
  00384	cc		 int	 3
_TEXT	ENDS
;	COMDAT text$x
text$x	SEGMENT
__unwindfunclet$?_Iput@?$num_put@DV?$ostreambuf_iterator@DU?$char_traits@D@std@@@std@@@std@@ABA?AV?$ostreambuf_iterator@DU?$char_traits@D@std@@@2@V32@AAVios_base@2@DPADI@Z$0:
  00000	8d 4d b4	 lea	 ecx, DWORD PTR $T5[ebp]
  00003	e9 00 00 00 00	 jmp	 ??1locale@std@@QAE@XZ	; std::locale::~locale
__unwindfunclet$?_Iput@?$num_put@DV?$ostreambuf_iterator@DU?$char_traits@D@std@@@std@@@std@@ABA?AV?$ostreambuf_iterator@DU?$char_traits@D@std@@@2@V32@AAVios_base@2@DPADI@Z$1:
  00008	8d 4d d8	 lea	 ecx, DWORD PTR __Groupstring$[ebp]
  0000b	e9 00 00 00 00	 jmp	 ??1?$basic_string@DU?$char_traits@D@std@@V?$allocator@D@2@@std@@QAE@XZ ; std::basic_string<char,std::char_traits<char>,std::allocator<char> >::~basic_string<char,std::char_traits<char>,std::allocator<char> >
__unwindfunclet$?_Iput@?$num_put@DV?$ostreambuf_iterator@DU?$char_traits@D@std@@@std@@@std@@ABA?AV?$ostreambuf_iterator@DU?$char_traits@D@std@@@2@V32@AAVios_base@2@DPADI@Z$2:
  00010	8d 4d b4	 lea	 ecx, DWORD PTR $T6[ebp]
  00013	e9 00 00 00 00	 jmp	 ??1locale@std@@QAE@XZ	; std::locale::~locale
__unwindfunclet$?_Iput@?$num_put@DV?$ostreambuf_iterator@DU?$char_traits@D@std@@@std@@@std@@ABA?AV?$ostreambuf_iterator@DU?$char_traits@D@std@@@2@V32@AAVios_base@2@DPADI@Z$3:
  00018	8d 4d c0	 lea	 ecx, DWORD PTR __Grouping$[ebp]
  0001b	e9 00 00 00 00	 jmp	 ??1?$basic_string@DU?$char_traits@D@std@@V?$allocator@D@2@@std@@QAE@XZ ; std::basic_string<char,std::char_traits<char>,std::allocator<char> >::~basic_string<char,std::char_traits<char>,std::allocator<char> >
  00020	cc		 int	 3
  00021	cc		 int	 3
  00022	cc		 int	 3
  00023	cc		 int	 3
  00024	cc		 int	 3
__ehhandler$?_Iput@?$num_put@DV?$ostreambuf_iterator@DU?$char_traits@D@std@@@std@@@std@@ABA?AV?$ostreambuf_iterator@DU?$char_traits@D@std@@@2@V32@AAVios_base@2@DPADI@Z:
  00025	90		 npad	 1
  00026	90		 npad	 1
  00027	8b 54 24 08	 mov	 edx, DWORD PTR [esp+8]
  0002b	8d 42 0c	 lea	 eax, DWORD PTR [edx+12]
  0002e	8b 4a a4	 mov	 ecx, DWORD PTR [edx-92]
  00031	33 c8		 xor	 ecx, eax
  00033	e8 00 00 00 00	 call	 @__security_check_cookie@4
  00038	8b 4a fc	 mov	 ecx, DWORD PTR [edx-4]
  0003b	33 c8		 xor	 ecx, eax
  0003d	e8 00 00 00 00	 call	 @__security_check_cookie@4
  00042	b8 00 00 00 00	 mov	 eax, OFFSET __ehfuncinfo$?_Iput@?$num_put@DV?$ostreambuf_iterator@DU?$char_traits@D@std@@@std@@@std@@ABA?AV?$ostreambuf_iterator@DU?$char_traits@D@std@@@2@V32@AAVios_base@2@DPADI@Z
  00047	e9 00 00 00 00	 jmp	 ___CxxFrameHandler3
text$x	ENDS
?_Iput@?$num_put@DV?$ostreambuf_iterator@DU?$char_traits@D@std@@@std@@@std@@ABA?AV?$ostreambuf_iterator@DU?$char_traits@D@std@@@2@V32@AAVios_base@2@DPADI@Z ENDP ; std::num_put<char,std::ostreambuf_iterator<char,std::char_traits<char> > >::_Iput
; Function compile flags: /Ogtp
; File C:\Program Files\Microsoft Visual Studio\2022\Community\VC\Tools\MSVC\14.44.35207\include\xlocnum
;	COMDAT ?_Ffmt@?$num_put@DV?$ostreambuf_iterator@DU?$char_traits@D@std@@@std@@@std@@ABAPADPADDH@Z
_TEXT	SEGMENT
_this$ = 8						; size = 4
__Fmt$ = 12						; size = 4
__Spec$ = 16						; size = 1
__Flags$ = 20						; size = 4
?_Ffmt@?$num_put@DV?$ostreambuf_iterator@DU?$char_traits@D@std@@@std@@@std@@ABAPADPADDH@Z PROC ; std::num_put<char,std::ostreambuf_iterator<char,std::char_traits<char> > >::_Ffmt, COMDAT

; 1416 :         char* _Fmt, char _Spec, ios_base::fmtflags _Flags) const { // generate sprintf format for floating-point

  00000	55		 push	 ebp
  00001	8b ec		 mov	 ebp, esp

; 1417 :         char* _Ptr = _Fmt;
; 1418 :         *_Ptr++    = '%';
; 1419 : 
; 1420 :         if (_Flags & ios_base::showpos) {

  00003	8b 55 14	 mov	 edx, DWORD PTR __Flags$[ebp]
  00006	56		 push	 esi
  00007	8b 75 0c	 mov	 esi, DWORD PTR __Fmt$[ebp]
  0000a	c6 06 25	 mov	 BYTE PTR [esi], 37	; 00000025H
  0000d	8d 46 01	 lea	 eax, DWORD PTR [esi+1]
  00010	f6 c2 20	 test	 dl, 32			; 00000020H
  00013	74 04		 je	 SHORT $LN2@Ffmt

; 1421 :             *_Ptr++ = '+';

  00015	c6 00 2b	 mov	 BYTE PTR [eax], 43	; 0000002bH
  00018	40		 inc	 eax
$LN2@Ffmt:

; 1422 :         }
; 1423 : 
; 1424 :         if (_Flags & ios_base::showpoint) {

  00019	f6 c2 10	 test	 dl, 16			; 00000010H
  0001c	74 04		 je	 SHORT $LN3@Ffmt

; 1425 :             *_Ptr++ = '#';

  0001e	c6 00 23	 mov	 BYTE PTR [eax], 35	; 00000023H
  00021	40		 inc	 eax
$LN3@Ffmt:

; 1426 :         }
; 1427 : 
; 1428 :         *_Ptr++ = '.';
; 1429 :         *_Ptr++ = '*'; // for precision argument
; 1430 :         if (_Spec != '\0') {

  00022	8a 4d 10	 mov	 cl, BYTE PTR __Spec$[ebp]
  00025	66 c7 00 2e 2a	 mov	 WORD PTR [eax], 10798	; 00002a2eH
  0002a	83 c0 02	 add	 eax, 2
  0002d	84 c9		 test	 cl, cl
  0002f	74 03		 je	 SHORT $LN4@Ffmt

; 1431 :             *_Ptr++ = _Spec; // 'L' qualifier for long double only

  00031	88 08		 mov	 BYTE PTR [eax], cl
  00033	40		 inc	 eax
$LN4@Ffmt:

; 1432 :         }
; 1433 : 
; 1434 :         char _Ch; // specifier
; 1435 :         ios_base::fmtflags _Ffl = _Flags & ios_base::floatfield;

  00034	8b ca		 mov	 ecx, edx
  00036	81 e1 00 30 00
	00		 and	 ecx, 12288		; 00003000H

; 1436 :         if (_Flags & ios_base::uppercase) {

  0003c	f6 c2 04	 test	 dl, 4
  0003f	74 45		 je	 SHORT $LN5@Ffmt

; 1437 :             if (_Ffl == ios_base::fixed) {

  00041	81 f9 00 20 00
	00		 cmp	 ecx, 8192		; 00002000H
  00047	75 0d		 jne	 SHORT $LN7@Ffmt

; 1438 :                 _Ch = 'F';

  00049	b1 46		 mov	 cl, 70			; 00000046H

; 1452 :                 _Ch = 'e';
; 1453 :             } else {
; 1454 :                 _Ch = 'g';
; 1455 :             }
; 1456 :         }
; 1457 :         *_Ptr++ = _Ch;

  0004b	88 08		 mov	 BYTE PTR [eax], cl

; 1458 : 
; 1459 :         *_Ptr = '\0';

  0004d	c6 40 01 00	 mov	 BYTE PTR [eax+1], 0

; 1460 :         return _Fmt;

  00051	8b c6		 mov	 eax, esi
  00053	5e		 pop	 esi

; 1461 :     }

  00054	5d		 pop	 ebp
  00055	c3		 ret	 0
$LN7@Ffmt:

; 1439 :             } else if (_Ffl == (ios_base::scientific | ios_base::fixed)) {

  00056	81 f9 00 30 00
	00		 cmp	 ecx, 12288		; 00003000H
  0005c	75 0d		 jne	 SHORT $LN9@Ffmt

; 1440 :                 _Ch = 'A';

  0005e	b1 41		 mov	 cl, 65			; 00000041H

; 1452 :                 _Ch = 'e';
; 1453 :             } else {
; 1454 :                 _Ch = 'g';
; 1455 :             }
; 1456 :         }
; 1457 :         *_Ptr++ = _Ch;

  00060	88 08		 mov	 BYTE PTR [eax], cl

; 1458 : 
; 1459 :         *_Ptr = '\0';

  00062	c6 40 01 00	 mov	 BYTE PTR [eax+1], 0

; 1460 :         return _Fmt;

  00066	8b c6		 mov	 eax, esi
  00068	5e		 pop	 esi

; 1461 :     }

  00069	5d		 pop	 ebp
  0006a	c3		 ret	 0
$LN9@Ffmt:

; 1441 :             } else if (_Ffl == ios_base::scientific) {

  0006b	81 f9 00 10 00
	00		 cmp	 ecx, 4096		; 00001000H
  00071	0f 95 c1	 setne	 cl
  00074	8d 0c 4d 45 00
	00 00		 lea	 ecx, DWORD PTR [ecx*2+69]

; 1452 :                 _Ch = 'e';
; 1453 :             } else {
; 1454 :                 _Ch = 'g';
; 1455 :             }
; 1456 :         }
; 1457 :         *_Ptr++ = _Ch;

  0007b	88 08		 mov	 BYTE PTR [eax], cl

; 1458 : 
; 1459 :         *_Ptr = '\0';

  0007d	c6 40 01 00	 mov	 BYTE PTR [eax+1], 0

; 1460 :         return _Fmt;

  00081	8b c6		 mov	 eax, esi
  00083	5e		 pop	 esi

; 1461 :     }

  00084	5d		 pop	 ebp
  00085	c3		 ret	 0
$LN5@Ffmt:

; 1442 :                 _Ch = 'E';
; 1443 :             } else {
; 1444 :                 _Ch = 'G';
; 1445 :             }
; 1446 :         } else {
; 1447 :             if (_Ffl == ios_base::fixed) {

  00086	81 f9 00 20 00
	00		 cmp	 ecx, 8192		; 00002000H
  0008c	75 0d		 jne	 SHORT $LN13@Ffmt

; 1448 :                 _Ch = 'f';

  0008e	b1 66		 mov	 cl, 102			; 00000066H

; 1452 :                 _Ch = 'e';
; 1453 :             } else {
; 1454 :                 _Ch = 'g';
; 1455 :             }
; 1456 :         }
; 1457 :         *_Ptr++ = _Ch;

  00090	88 08		 mov	 BYTE PTR [eax], cl

; 1458 : 
; 1459 :         *_Ptr = '\0';

  00092	c6 40 01 00	 mov	 BYTE PTR [eax+1], 0

; 1460 :         return _Fmt;

  00096	8b c6		 mov	 eax, esi
  00098	5e		 pop	 esi

; 1461 :     }

  00099	5d		 pop	 ebp
  0009a	c3		 ret	 0
$LN13@Ffmt:

; 1449 :             } else if (_Ffl == (ios_base::scientific | ios_base::fixed)) {

  0009b	81 f9 00 30 00
	00		 cmp	 ecx, 12288		; 00003000H
  000a1	75 0d		 jne	 SHORT $LN15@Ffmt

; 1450 :                 _Ch = 'a';

  000a3	b1 61		 mov	 cl, 97			; 00000061H

; 1452 :                 _Ch = 'e';
; 1453 :             } else {
; 1454 :                 _Ch = 'g';
; 1455 :             }
; 1456 :         }
; 1457 :         *_Ptr++ = _Ch;

  000a5	88 08		 mov	 BYTE PTR [eax], cl

; 1458 : 
; 1459 :         *_Ptr = '\0';

  000a7	c6 40 01 00	 mov	 BYTE PTR [eax+1], 0

; 1460 :         return _Fmt;

  000ab	8b c6		 mov	 eax, esi
  000ad	5e		 pop	 esi

; 1461 :     }

  000ae	5d		 pop	 ebp
  000af	c3		 ret	 0
$LN15@Ffmt:

; 1451 :             } else if (_Ffl == ios_base::scientific) {

  000b0	81 f9 00 10 00
	00		 cmp	 ecx, 4096		; 00001000H
  000b6	0f 95 c1	 setne	 cl
  000b9	8d 0c 4d 65 00
	00 00		 lea	 ecx, DWORD PTR [ecx*2+101]

; 1452 :                 _Ch = 'e';
; 1453 :             } else {
; 1454 :                 _Ch = 'g';
; 1455 :             }
; 1456 :         }
