; Listing generated by Microsoft (R) Optimizing Compiler Version 19.44.35215.0 

	TITLE	C:\EzAntiAntiCheat\EzAntiAntiCheat\Release\main.obj
	.686P
	.XMM
	include listing.inc
	.model	flat

INCLUDELIB LIBCMT
INCLUDELIB OLDNAMES

PUBLIC	__Avx2WmemEnabledWeakValue
PUBLIC	?g_ServiceInstalled@@3_NA			; g_ServiceInstalled
PUBLIC	?g_hService@@3PAUSC_HANDLE__@@A			; g_hService
PUBLIC	?g_hSCManager@@3PAUSC_HANDLE__@@A		; g_hSCManager
;	COMDAT __Avx2WmemEnabledWeakValue
_BSS	SEGMENT
__Avx2WmemEnabledWeakValue DD 01H DUP (?)
_BSS	ENDS
_BSS	SEGMENT
?g_ServiceInstalled@@3_NA DB 01H DUP (?)		; g_ServiceInstalled
	ALIGN	4

?g_hService@@3PAUSC_HANDLE__@@A DD 01H DUP (?)		; g_hService
?g_hSCManager@@3PAUSC_HANDLE__@@A DD 01H DUP (?)	; g_hSCManager
_BSS	ENDS
PUBLIC	___local_stdio_printf_options
PUBLIC	_sprintf_s
PUBLIC	_wmemcmp
PUBLIC	??0exception@std@@QAE@ABV01@@Z			; std::exception::exception
PUBLIC	??1exception@std@@UAE@XZ			; std::exception::~exception
PUBLIC	?what@exception@std@@UBEPBDXZ			; std::exception::what
PUBLIC	??_Gexception@std@@UAEPAXI@Z			; std::exception::`scalar deleting destructor'
PUBLIC	??0bad_alloc@std@@QAE@ABV01@@Z			; std::bad_alloc::bad_alloc
PUBLIC	??_Gbad_alloc@std@@UAEPAXI@Z			; std::bad_alloc::`scalar deleting destructor'
PUBLIC	??0bad_array_new_length@std@@QAE@XZ		; std::bad_array_new_length::bad_array_new_length
PUBLIC	??1bad_array_new_length@std@@UAE@XZ		; std::bad_array_new_length::~bad_array_new_length
PUBLIC	??0bad_array_new_length@std@@QAE@ABV01@@Z	; std::bad_array_new_length::bad_array_new_length
PUBLIC	??_Gbad_array_new_length@std@@UAEPAXI@Z		; std::bad_array_new_length::`scalar deleting destructor'
PUBLIC	?_Throw_bad_array_new_length@std@@YAXXZ		; std::_Throw_bad_array_new_length
PUBLIC	?_Xlen_string@std@@YAXXZ			; std::_Xlen_string
PUBLIC	??0?$basic_string@DU?$char_traits@D@std@@V?$allocator@D@2@@std@@QAE@ID@Z ; std::basic_string<char,std::char_traits<char>,std::allocator<char> >::basic_string<char,std::char_traits<char>,std::allocator<char> >
PUBLIC	??1?$basic_string@DU?$char_traits@D@std@@V?$allocator@D@2@@std@@QAE@XZ ; std::basic_string<char,std::char_traits<char>,std::allocator<char> >::~basic_string<char,std::char_traits<char>,std::allocator<char> >
PUBLIC	?append@?$basic_string@DU?$char_traits@D@std@@V?$allocator@D@2@@std@@QAEAAV12@QBDI@Z ; std::basic_string<char,std::char_traits<char>,std::allocator<char> >::append
PUBLIC	?append@?$basic_string@DU?$char_traits@D@std@@V?$allocator@D@2@@std@@QAEAAV12@ID@Z ; std::basic_string<char,std::char_traits<char>,std::allocator<char> >::append
PUBLIC	?push_back@?$basic_string@DU?$char_traits@D@std@@V?$allocator@D@2@@std@@QAEXD@Z ; std::basic_string<char,std::char_traits<char>,std::allocator<char> >::push_back
PUBLIC	?_Xran@?$_String_val@U?$_Simple_types@_W@std@@@std@@SAXXZ ; std::_String_val<std::_Simple_types<wchar_t> >::_Xran
PUBLIC	??0?$basic_string@_WU?$char_traits@_W@std@@V?$allocator@_W@2@@std@@QAE@ABV01@@Z ; std::basic_string<wchar_t,std::char_traits<wchar_t>,std::allocator<wchar_t> >::basic_string<wchar_t,std::char_traits<wchar_t>,std::allocator<wchar_t> >
PUBLIC	??0?$basic_string@_WU?$char_traits@_W@std@@V?$allocator@_W@2@@std@@QAE@QB_W@Z ; std::basic_string<wchar_t,std::char_traits<wchar_t>,std::allocator<wchar_t> >::basic_string<wchar_t,std::char_traits<wchar_t>,std::allocator<wchar_t> >
PUBLIC	??0?$basic_string@_WU?$char_traits@_W@std@@V?$allocator@_W@2@@std@@QAE@I_W@Z ; std::basic_string<wchar_t,std::char_traits<wchar_t>,std::allocator<wchar_t> >::basic_string<wchar_t,std::char_traits<wchar_t>,std::allocator<wchar_t> >
PUBLIC	?_Deallocate_for_capacity@?$basic_string@_WU?$char_traits@_W@std@@V?$allocator@_W@2@@std@@CAXAAV?$allocator@_W@2@QA_WI@Z ; std::basic_string<wchar_t,std::char_traits<wchar_t>,std::allocator<wchar_t> >::_Deallocate_for_capacity
PUBLIC	??1?$basic_string@_WU?$char_traits@_W@std@@V?$allocator@_W@2@@std@@QAE@XZ ; std::basic_string<wchar_t,std::char_traits<wchar_t>,std::allocator<wchar_t> >::~basic_string<wchar_t,std::char_traits<wchar_t>,std::allocator<wchar_t> >
PUBLIC	?append@?$basic_string@_WU?$char_traits@_W@std@@V?$allocator@_W@2@@std@@QAEAAV12@QB_WI@Z ; std::basic_string<wchar_t,std::char_traits<wchar_t>,std::allocator<wchar_t> >::append
PUBLIC	?find@?$basic_string@_WU?$char_traits@_W@std@@V?$allocator@_W@2@@std@@QBEIQB_WI@Z ; std::basic_string<wchar_t,std::char_traits<wchar_t>,std::allocator<wchar_t> >::find
PUBLIC	?_Tidy_deallocate@?$basic_string@_WU?$char_traits@_W@std@@V?$allocator@_W@2@@std@@AAEXXZ ; std::basic_string<wchar_t,std::char_traits<wchar_t>,std::allocator<wchar_t> >::_Tidy_deallocate
PUBLIC	??0runtime_error@std@@QAE@ABV01@@Z		; std::runtime_error::runtime_error
PUBLIC	??_Gruntime_error@std@@UAEPAXI@Z		; std::runtime_error::`scalar deleting destructor'
PUBLIC	??1error_category@std@@UAE@XZ			; std::error_category::~error_category
PUBLIC	?default_error_condition@error_category@std@@UBE?AVerror_condition@2@H@Z ; std::error_category::default_error_condition
PUBLIC	?equivalent@error_category@std@@UBE_NHABVerror_condition@2@@Z ; std::error_category::equivalent
PUBLIC	?equivalent@error_category@std@@UBE_NABVerror_code@2@H@Z ; std::error_category::equivalent
PUBLIC	?make_error_code@std@@YA?AVerror_code@1@W4io_errc@1@@Z ; std::make_error_code
PUBLIC	??0_System_error@std@@IAE@Verror_code@1@ABV?$basic_string@DU?$char_traits@D@std@@V?$allocator@D@2@@1@@Z ; std::_System_error::_System_error
PUBLIC	??0_System_error@std@@QAE@ABV01@@Z		; std::_System_error::_System_error
PUBLIC	??_G_System_error@std@@UAEPAXI@Z		; std::_System_error::`scalar deleting destructor'
PUBLIC	??1system_error@std@@UAE@XZ			; std::system_error::~system_error
PUBLIC	??0system_error@std@@QAE@ABV01@@Z		; std::system_error::system_error
PUBLIC	??_Gsystem_error@std@@UAEPAXI@Z			; std::system_error::`scalar deleting destructor'
PUBLIC	?name@_Iostream_error_category2@std@@UBEPBDXZ	; std::_Iostream_error_category2::name
PUBLIC	?message@_Iostream_error_category2@std@@UBE?AV?$basic_string@DU?$char_traits@D@std@@V?$allocator@D@2@@2@H@Z ; std::_Iostream_error_category2::message
PUBLIC	??_G_Iostream_error_category2@std@@UAEPAXI@Z	; std::_Iostream_error_category2::`scalar deleting destructor'
PUBLIC	??$_Immortalize_memcpy_image@V_Iostream_error_category2@std@@@std@@YAABV_Iostream_error_category2@0@XZ ; std::_Immortalize_memcpy_image<std::_Iostream_error_category2>
PUBLIC	??0bad_cast@std@@QAE@XZ				; std::bad_cast::bad_cast
PUBLIC	??1bad_cast@std@@UAE@XZ				; std::bad_cast::~bad_cast
PUBLIC	??0bad_cast@std@@QAE@ABV01@@Z			; std::bad_cast::bad_cast
PUBLIC	??_Gbad_cast@std@@UAEPAXI@Z			; std::bad_cast::`scalar deleting destructor'
PUBLIC	?_Throw_bad_cast@std@@YAXXZ			; std::_Throw_bad_cast
PUBLIC	??1_Facet_base@std@@UAE@XZ			; std::_Facet_base::~_Facet_base
PUBLIC	??_G_Facet_base@std@@UAEPAXI@Z			; std::_Facet_base::`scalar deleting destructor'
PUBLIC	??0_Locinfo@std@@QAE@PBD@Z			; std::_Locinfo::_Locinfo
PUBLIC	??1_Locinfo@std@@QAE@XZ				; std::_Locinfo::~_Locinfo
PUBLIC	??1?$_Yarn@D@std@@QAE@XZ			; std::_Yarn<char>::~_Yarn<char>
PUBLIC	??1?$_Yarn@_W@std@@QAE@XZ			; std::_Yarn<wchar_t>::~_Yarn<wchar_t>
PUBLIC	?_Incref@facet@locale@std@@UAEXXZ		; std::locale::facet::_Incref
PUBLIC	?_Decref@facet@locale@std@@UAEPAV_Facet_base@3@XZ ; std::locale::facet::_Decref
PUBLIC	??1facet@locale@std@@MAE@XZ			; std::locale::facet::~facet
PUBLIC	??_Gfacet@locale@std@@MAEPAXI@Z			; std::locale::facet::`scalar deleting destructor'
PUBLIC	??1locale@std@@QAE@XZ				; std::locale::~locale
PUBLIC	??$_Maklocstr@_W@std@@YAPA_WPBDPA_WABU_Cvtvec@@@Z ; std::_Maklocstr<wchar_t>
PUBLIC	??1ctype_base@std@@UAE@XZ			; std::ctype_base::~ctype_base
PUBLIC	??_Gctype_base@std@@UAEPAXI@Z			; std::ctype_base::`scalar deleting destructor'
PUBLIC	??1?$ctype@D@std@@MAE@XZ			; std::ctype<char>::~ctype<char>
PUBLIC	?do_tolower@?$ctype@D@std@@MBEDD@Z		; std::ctype<char>::do_tolower
PUBLIC	?do_tolower@?$ctype@D@std@@MBEPBDPADPBD@Z	; std::ctype<char>::do_tolower
PUBLIC	?do_toupper@?$ctype@D@std@@MBEDD@Z		; std::ctype<char>::do_toupper
PUBLIC	?do_toupper@?$ctype@D@std@@MBEPBDPADPBD@Z	; std::ctype<char>::do_toupper
PUBLIC	?do_widen@?$ctype@D@std@@MBEDD@Z		; std::ctype<char>::do_widen
PUBLIC	?do_widen@?$ctype@D@std@@MBEPBDPBD0PAD@Z	; std::ctype<char>::do_widen
PUBLIC	?do_narrow@?$ctype@D@std@@MBEDDD@Z		; std::ctype<char>::do_narrow
PUBLIC	?do_narrow@?$ctype@D@std@@MBEPBDPBD0DPAD@Z	; std::ctype<char>::do_narrow
PUBLIC	??_G?$ctype@D@std@@MAEPAXI@Z			; std::ctype<char>::`scalar deleting destructor'
PUBLIC	??$use_facet@V?$ctype@D@std@@@std@@YAABV?$ctype@D@0@ABVlocale@0@@Z ; std::use_facet<std::ctype<char> >
PUBLIC	??1?$ctype@_W@std@@MAE@XZ			; std::ctype<wchar_t>::~ctype<wchar_t>
PUBLIC	?do_is@?$ctype@_W@std@@MBE_NF_W@Z		; std::ctype<wchar_t>::do_is
PUBLIC	?do_is@?$ctype@_W@std@@MBEPB_WPB_W0PAF@Z	; std::ctype<wchar_t>::do_is
PUBLIC	?do_scan_is@?$ctype@_W@std@@MBEPB_WFPB_W0@Z	; std::ctype<wchar_t>::do_scan_is
PUBLIC	?do_scan_not@?$ctype@_W@std@@MBEPB_WFPB_W0@Z	; std::ctype<wchar_t>::do_scan_not
PUBLIC	?do_tolower@?$ctype@_W@std@@MBE_W_W@Z		; std::ctype<wchar_t>::do_tolower
PUBLIC	?do_tolower@?$ctype@_W@std@@MBEPB_WPA_WPB_W@Z	; std::ctype<wchar_t>::do_tolower
PUBLIC	?do_toupper@?$ctype@_W@std@@MBE_W_W@Z		; std::ctype<wchar_t>::do_toupper
PUBLIC	?do_toupper@?$ctype@_W@std@@MBEPB_WPA_WPB_W@Z	; std::ctype<wchar_t>::do_toupper
PUBLIC	?do_widen@?$ctype@_W@std@@MBE_WD@Z		; std::ctype<wchar_t>::do_widen
PUBLIC	?do_widen@?$ctype@_W@std@@MBEPBDPBD0PA_W@Z	; std::ctype<wchar_t>::do_widen
PUBLIC	?do_narrow@?$ctype@_W@std@@MBED_WD@Z		; std::ctype<wchar_t>::do_narrow
PUBLIC	?do_narrow@?$ctype@_W@std@@MBEPB_WPB_W0DPAD@Z	; std::ctype<wchar_t>::do_narrow
PUBLIC	??_G?$ctype@_W@std@@MAEPAXI@Z			; std::ctype<wchar_t>::`scalar deleting destructor'
PUBLIC	??0failure@ios_base@std@@QAE@PBDABVerror_code@2@@Z ; std::ios_base::failure::failure
PUBLIC	??1failure@ios_base@std@@UAE@XZ			; std::ios_base::failure::~failure
PUBLIC	??0failure@ios_base@std@@QAE@ABV012@@Z		; std::ios_base::failure::failure
PUBLIC	??_Gfailure@ios_base@std@@UAEPAXI@Z		; std::ios_base::failure::`scalar deleting destructor'
PUBLIC	?clear@ios_base@std@@QAEXH_N@Z			; std::ios_base::clear
PUBLIC	?RunMenu@@YAXXZ					; RunMenu
PUBLIC	?CleanupOnExit@@YAXXZ				; CleanupOnExit
PUBLIC	?ConsoleHandler@@YGHK@Z				; ConsoleHandler
PUBLIC	?IsSafeWipePath@@YA_NABV?$basic_string@_WU?$char_traits@_W@std@@V?$allocator@_W@2@@std@@@Z ; IsSafeWipePath
PUBLIC	?IsFileOwnerSystemOrAdmin@@YA_NABV?$basic_string@_WU?$char_traits@_W@std@@V?$allocator@_W@2@@std@@@Z ; IsFileOwnerSystemOrAdmin
PUBLIC	?SecureWipeFile@@YAXABV?$basic_string@_WU?$char_traits@_W@std@@V?$allocator@_W@2@@std@@T_LARGE_INTEGER@@@Z ; SecureWipeFile
PUBLIC	?setstate@?$basic_ios@DU?$char_traits@D@std@@@std@@QAEXH_N@Z ; std::basic_ios<char,std::char_traits<char> >::setstate
PUBLIC	?_Osfx@?$basic_ostream@DU?$char_traits@D@std@@@std@@QAEXXZ ; std::basic_ostream<char,std::char_traits<char> >::_Osfx
PUBLIC	?flush@?$basic_ostream@DU?$char_traits@D@std@@@std@@QAEAAV12@XZ ; std::basic_ostream<char,std::char_traits<char> >::flush
PUBLIC	??$?6U?$char_traits@D@std@@@std@@YAAAV?$basic_ostream@DU?$char_traits@D@std@@@0@AAV10@PBD@Z ; std::operator<<<std::char_traits<char> >
PUBLIC	??1?$vector@EV?$allocator@E@std@@@std@@QAE@XZ	; std::vector<unsigned char,std::allocator<unsigned char> >::~vector<unsigned char,std::allocator<unsigned char> >
PUBLIC	?_Tidy@?$vector@EV?$allocator@E@std@@@std@@AAEXXZ ; std::vector<unsigned char,std::allocator<unsigned char> >::_Tidy
PUBLIC	??R?$mersenne_twister@I$0CA@$0CHA@$0BIN@$0BP@$0JJAILANP@$0L@$06$0JNCMFGIA@$0P@$0OPMGAAAA@$0BC@@std@@QAEIXZ ; std::mersenne_twister<unsigned int,32,624,397,31,2567483615,11,7,2636928640,15,4022730752,18>::operator()
PUBLIC	?ListAndWipeProcess@@YAXXZ			; ListAndWipeProcess
PUBLIC	??1?$vector@V?$basic_string@_WU?$char_traits@_W@std@@V?$allocator@_W@2@@std@@V?$allocator@V?$basic_string@_WU?$char_traits@_W@std@@V?$allocator@_W@2@@std@@@2@@std@@QAE@XZ ; std::vector<std::basic_string<wchar_t,std::char_traits<wchar_t>,std::allocator<wchar_t> >,std::allocator<std::basic_string<wchar_t,std::char_traits<wchar_t>,std::allocator<wchar_t> > > >::~vector<std::basic_string<wchar_t,std::char_traits<wchar_t>,std::allocator<wchar_t> >,std::allocator<std::basic_string<wchar_t,std::char_traits<wchar_t>,std::allocator<wchar_t> > > >
PUBLIC	?_Tidy@?$vector@V?$basic_string@_WU?$char_traits@_W@std@@V?$allocator@_W@2@@std@@V?$allocator@V?$basic_string@_WU?$char_traits@_W@std@@V?$allocator@_W@2@@std@@@2@@std@@AAEXXZ ; std::vector<std::basic_string<wchar_t,std::char_traits<wchar_t>,std::allocator<wchar_t> >,std::allocator<std::basic_string<wchar_t,std::char_traits<wchar_t>,std::allocator<wchar_t> > > >::_Tidy
PUBLIC	?_Xlength@?$vector@V?$basic_string@_WU?$char_traits@_W@std@@V?$allocator@_W@2@@std@@V?$allocator@V?$basic_string@_WU?$char_traits@_W@std@@V?$allocator@_W@2@@std@@@2@@std@@CAXXZ ; std::vector<std::basic_string<wchar_t,std::char_traits<wchar_t>,std::allocator<wchar_t> >,std::allocator<std::basic_string<wchar_t,std::char_traits<wchar_t>,std::allocator<wchar_t> > > >::_Xlength
PUBLIC	??1?$vector@KV?$allocator@K@std@@@std@@QAE@XZ	; std::vector<unsigned long,std::allocator<unsigned long> >::~vector<unsigned long,std::allocator<unsigned long> >
PUBLIC	?_Xlength@?$vector@KV?$allocator@K@std@@@std@@CAXXZ ; std::vector<unsigned long,std::allocator<unsigned long> >::_Xlength
PUBLIC	?setstate@?$basic_ios@_WU?$char_traits@_W@std@@@std@@QAEXH_N@Z ; std::basic_ios<wchar_t,std::char_traits<wchar_t> >::setstate
PUBLIC	?_Osfx@?$basic_ostream@_WU?$char_traits@_W@std@@@std@@QAEXXZ ; std::basic_ostream<wchar_t,std::char_traits<wchar_t> >::_Osfx
PUBLIC	??6?$basic_ostream@_WU?$char_traits@_W@std@@@std@@QAEAAV01@H@Z ; std::basic_ostream<wchar_t,std::char_traits<wchar_t> >::operator<<
PUBLIC	??6?$basic_ostream@_WU?$char_traits@_W@std@@@std@@QAEAAV01@K@Z ; std::basic_ostream<wchar_t,std::char_traits<wchar_t> >::operator<<
PUBLIC	?flush@?$basic_ostream@_WU?$char_traits@_W@std@@@std@@QAEAAV12@XZ ; std::basic_ostream<wchar_t,std::char_traits<wchar_t> >::flush
PUBLIC	??$?6_WU?$char_traits@_W@std@@@std@@YAAAV?$basic_ostream@_WU?$char_traits@_W@std@@@0@AAV10@PBD@Z ; std::operator<<<wchar_t,std::char_traits<wchar_t> >
PUBLIC	??$?6_WU?$char_traits@_W@std@@V?$allocator@_W@1@@std@@YAAAV?$basic_ostream@_WU?$char_traits@_W@std@@@0@AAV10@ABV?$basic_string@_WU?$char_traits@_W@std@@V?$allocator@_W@2@@0@@Z ; std::operator<<<wchar_t,std::char_traits<wchar_t>,std::allocator<wchar_t> >
PUBLIC	?_Ipfx@?$basic_istream@DU?$char_traits@D@std@@@std@@QAE_N_N@Z ; std::basic_istream<char,std::char_traits<char> >::_Ipfx
PUBLIC	?get@?$basic_istream@DU?$char_traits@D@std@@@std@@QAEHXZ ; std::basic_istream<char,std::char_traits<char> >::get
PUBLIC	?ignore@?$basic_istream@DU?$char_traits@D@std@@@std@@QAEAAV12@_JH@Z ; std::basic_istream<char,std::char_traits<char> >::ignore
PUBLIC	??$?6_WU?$char_traits@_W@std@@@std@@YAAAV?$basic_ostream@_WU?$char_traits@_W@std@@@0@AAV10@PB_W@Z ; std::operator<<<wchar_t,std::char_traits<wchar_t> >
PUBLIC	?IsSystemAccount@@YA_NXZ			; IsSystemAccount
PUBLIC	_main
PUBLIC	??1?$unique_ptr@V_Facet_base@std@@U?$default_delete@V_Facet_base@std@@@2@@std@@QAE@XZ ; std::unique_ptr<std::_Facet_base,std::default_delete<std::_Facet_base> >::~unique_ptr<std::_Facet_base,std::default_delete<std::_Facet_base> >
PUBLIC	??1_Sentry_base@?$basic_ostream@DU?$char_traits@D@std@@@std@@QAE@XZ ; std::basic_ostream<char,std::char_traits<char> >::_Sentry_base::~_Sentry_base
PUBLIC	??0sentry@?$basic_ostream@DU?$char_traits@D@std@@@std@@QAE@AAV12@@Z ; std::basic_ostream<char,std::char_traits<char> >::sentry::sentry
PUBLIC	??1sentry@?$basic_ostream@DU?$char_traits@D@std@@@std@@QAE@XZ ; std::basic_ostream<char,std::char_traits<char> >::sentry::~sentry
PUBLIC	??1_Sentry_base@?$basic_ostream@_WU?$char_traits@_W@std@@@std@@QAE@XZ ; std::basic_ostream<wchar_t,std::char_traits<wchar_t> >::_Sentry_base::~_Sentry_base
PUBLIC	??0sentry@?$basic_ostream@_WU?$char_traits@_W@std@@@std@@QAE@AAV12@@Z ; std::basic_ostream<wchar_t,std::char_traits<wchar_t> >::sentry::sentry
PUBLIC	??1sentry@?$basic_ostream@_WU?$char_traits@_W@std@@@std@@QAE@XZ ; std::basic_ostream<wchar_t,std::char_traits<wchar_t> >::sentry::~sentry
PUBLIC	??$use_facet@V?$ctype@_W@std@@@std@@YAABV?$ctype@_W@0@ABVlocale@0@@Z ; std::use_facet<std::ctype<wchar_t> >
PUBLIC	??$_Insert_string@_WU?$char_traits@_W@std@@I@std@@YAAAV?$basic_ostream@_WU?$char_traits@_W@std@@@0@AAV10@QB_WI@Z ; std::_Insert_string<wchar_t,std::char_traits<wchar_t>,unsigned int>
PUBLIC	??$_Construct@$00PB_W@?$basic_string@_WU?$char_traits@_W@std@@V?$allocator@_W@2@@std@@AAEXQB_WI@Z ; std::basic_string<wchar_t,std::char_traits<wchar_t>,std::allocator<wchar_t> >::_Construct<1,wchar_t const *>
PUBLIC	??$_Construct@$00PBD@?$basic_string@DU?$char_traits@D@std@@V?$allocator@D@2@@std@@AAEXQBDI@Z ; std::basic_string<char,std::char_traits<char>,std::allocator<char> >::_Construct<1,char const *>
PUBLIC	??$use_facet@V?$num_put@_WV?$ostreambuf_iterator@_WU?$char_traits@_W@std@@@std@@@std@@@std@@YAABV?$num_put@_WV?$ostreambuf_iterator@_WU?$char_traits@_W@std@@@std@@@0@ABVlocale@0@@Z ; std::use_facet<std::num_put<wchar_t,std::ostreambuf_iterator<wchar_t,std::char_traits<wchar_t> > > >
PUBLIC	??1?$num_put@_WV?$ostreambuf_iterator@_WU?$char_traits@_W@std@@@std@@@std@@MAE@XZ ; std::num_put<wchar_t,std::ostreambuf_iterator<wchar_t,std::char_traits<wchar_t> > >::~num_put<wchar_t,std::ostreambuf_iterator<wchar_t,std::char_traits<wchar_t> > >
PUBLIC	?do_put@?$num_put@_WV?$ostreambuf_iterator@_WU?$char_traits@_W@std@@@std@@@std@@MBE?AV?$ostreambuf_iterator@_WU?$char_traits@_W@std@@@2@V32@AAVios_base@2@_W_N@Z ; std::num_put<wchar_t,std::ostreambuf_iterator<wchar_t,std::char_traits<wchar_t> > >::do_put
PUBLIC	?do_put@?$num_put@_WV?$ostreambuf_iterator@_WU?$char_traits@_W@std@@@std@@@std@@MBE?AV?$ostreambuf_iterator@_WU?$char_traits@_W@std@@@2@V32@AAVios_base@2@_WJ@Z ; std::num_put<wchar_t,std::ostreambuf_iterator<wchar_t,std::char_traits<wchar_t> > >::do_put
PUBLIC	?do_put@?$num_put@_WV?$ostreambuf_iterator@_WU?$char_traits@_W@std@@@std@@@std@@MBE?AV?$ostreambuf_iterator@_WU?$char_traits@_W@std@@@2@V32@AAVios_base@2@_WK@Z ; std::num_put<wchar_t,std::ostreambuf_iterator<wchar_t,std::char_traits<wchar_t> > >::do_put
PUBLIC	?do_put@?$num_put@_WV?$ostreambuf_iterator@_WU?$char_traits@_W@std@@@std@@@std@@MBE?AV?$ostreambuf_iterator@_WU?$char_traits@_W@std@@@2@V32@AAVios_base@2@_W_J@Z ; std::num_put<wchar_t,std::ostreambuf_iterator<wchar_t,std::char_traits<wchar_t> > >::do_put
PUBLIC	?do_put@?$num_put@_WV?$ostreambuf_iterator@_WU?$char_traits@_W@std@@@std@@@std@@MBE?AV?$ostreambuf_iterator@_WU?$char_traits@_W@std@@@2@V32@AAVios_base@2@_W_K@Z ; std::num_put<wchar_t,std::ostreambuf_iterator<wchar_t,std::char_traits<wchar_t> > >::do_put
PUBLIC	?do_put@?$num_put@_WV?$ostreambuf_iterator@_WU?$char_traits@_W@std@@@std@@@std@@MBE?AV?$ostreambuf_iterator@_WU?$char_traits@_W@std@@@2@V32@AAVios_base@2@_WN@Z ; std::num_put<wchar_t,std::ostreambuf_iterator<wchar_t,std::char_traits<wchar_t> > >::do_put
PUBLIC	?do_put@?$num_put@_WV?$ostreambuf_iterator@_WU?$char_traits@_W@std@@@std@@@std@@MBE?AV?$ostreambuf_iterator@_WU?$char_traits@_W@std@@@2@V32@AAVios_base@2@_WO@Z ; std::num_put<wchar_t,std::ostreambuf_iterator<wchar_t,std::char_traits<wchar_t> > >::do_put
PUBLIC	?do_put@?$num_put@_WV?$ostreambuf_iterator@_WU?$char_traits@_W@std@@@std@@@std@@MBE?AV?$ostreambuf_iterator@_WU?$char_traits@_W@std@@@2@V32@AAVios_base@2@_WPBX@Z ; std::num_put<wchar_t,std::ostreambuf_iterator<wchar_t,std::char_traits<wchar_t> > >::do_put
PUBLIC	?_Ffmt@?$num_put@_WV?$ostreambuf_iterator@_WU?$char_traits@_W@std@@@std@@@std@@ABAPADPADDH@Z ; std::num_put<wchar_t,std::ostreambuf_iterator<wchar_t,std::char_traits<wchar_t> > >::_Ffmt
PUBLIC	?_Iput@?$num_put@_WV?$ostreambuf_iterator@_WU?$char_traits@_W@std@@@std@@@std@@ABA?AV?$ostreambuf_iterator@_WU?$char_traits@_W@std@@@2@V32@AAVios_base@2@_WPADI@Z ; std::num_put<wchar_t,std::ostreambuf_iterator<wchar_t,std::char_traits<wchar_t> > >::_Iput
PUBLIC	?_Put@?$num_put@_WV?$ostreambuf_iterator@_WU?$char_traits@_W@std@@@std@@@std@@ABA?AV?$ostreambuf_iterator@_WU?$char_traits@_W@std@@@2@V32@PB_WI@Z ; std::num_put<wchar_t,std::ostreambuf_iterator<wchar_t,std::char_traits<wchar_t> > >::_Put
PUBLIC	?_Rep@?$num_put@_WV?$ostreambuf_iterator@_WU?$char_traits@_W@std@@@std@@@std@@ABA?AV?$ostreambuf_iterator@_WU?$char_traits@_W@std@@@2@V32@_WI@Z ; std::num_put<wchar_t,std::ostreambuf_iterator<wchar_t,std::char_traits<wchar_t> > >::_Rep
PUBLIC	??_G?$num_put@_WV?$ostreambuf_iterator@_WU?$char_traits@_W@std@@@std@@@std@@MAEPAXI@Z ; std::num_put<wchar_t,std::ostreambuf_iterator<wchar_t,std::char_traits<wchar_t> > >::`scalar deleting destructor'
PUBLIC	??1_Sentry_base@?$basic_istream@DU?$char_traits@D@std@@@std@@QAE@XZ ; std::basic_istream<char,std::char_traits<char> >::_Sentry_base::~_Sentry_base
PUBLIC	??1sentry@?$basic_istream@DU?$char_traits@D@std@@@std@@QAE@XZ ; std::basic_istream<char,std::char_traits<char> >::sentry::~sentry
PUBLIC	??$_Common_extract_with_num_get@J@?$basic_istream@DU?$char_traits@D@std@@@std@@AAEAAV01@AAJ@Z ; std::basic_istream<char,std::char_traits<char> >::_Common_extract_with_num_get<long>
PUBLIC	??$_Emplace_reallocate@ABK@?$vector@KV?$allocator@K@std@@@std@@AAEPAKQAKABK@Z ; std::vector<unsigned long,std::allocator<unsigned long> >::_Emplace_reallocate<unsigned long const &>
PUBLIC	??$_Emplace_reallocate@ABV?$basic_string@_WU?$char_traits@_W@std@@V?$allocator@_W@2@@std@@@?$vector@V?$basic_string@_WU?$char_traits@_W@std@@V?$allocator@_W@2@@std@@V?$allocator@V?$basic_string@_WU?$char_traits@_W@std@@V?$allocator@_W@2@@std@@@2@@std@@AAEPAV?$basic_string@_WU?$char_traits@_W@std@@V?$allocator@_W@2@@1@QAV21@ABV21@@Z ; std::vector<std::basic_string<wchar_t,std::char_traits<wchar_t>,std::allocator<wchar_t> >,std::allocator<std::basic_string<wchar_t,std::char_traits<wchar_t>,std::allocator<wchar_t> > > >::_Emplace_reallocate<std::basic_string<wchar_t,std::char_traits<wchar_t>,std::allocator<wchar_t> > const &>
PUBLIC	??1?$_Tidy_guard@V?$vector@V?$basic_string@_WU?$char_traits@_W@std@@V?$allocator@_W@2@@std@@V?$allocator@V?$basic_string@_WU?$char_traits@_W@std@@V?$allocator@_W@2@@std@@@2@@std@@@std@@QAE@XZ ; std::_Tidy_guard<std::vector<std::basic_string<wchar_t,std::char_traits<wchar_t>,std::allocator<wchar_t> >,std::allocator<std::basic_string<wchar_t,std::char_traits<wchar_t>,std::allocator<wchar_t> > > > >::~_Tidy_guard<std::vector<std::basic_string<wchar_t,std::char_traits<wchar_t>,std::allocator<wchar_t> >,std::allocator<std::basic_string<wchar_t,std::char_traits<wchar_t>,std::allocator<wchar_t> > > > >
PUBLIC	??$_Search_vectorized@$$CB_W$$CB_W@std@@YAPB_WQB_W00I@Z ; std::_Search_vectorized<wchar_t const ,wchar_t const >
PUBLIC	??$use_facet@V?$num_get@DV?$istreambuf_iterator@DU?$char_traits@D@std@@@std@@@std@@@std@@YAABV?$num_get@DV?$istreambuf_iterator@DU?$char_traits@D@std@@@std@@@0@ABVlocale@0@@Z ; std::use_facet<std::num_get<char,std::istreambuf_iterator<char,std::char_traits<char> > > >
PUBLIC	??1?$num_get@DV?$istreambuf_iterator@DU?$char_traits@D@std@@@std@@@std@@MAE@XZ ; std::num_get<char,std::istreambuf_iterator<char,std::char_traits<char> > >::~num_get<char,std::istreambuf_iterator<char,std::char_traits<char> > >
PUBLIC	?do_get@?$num_get@DV?$istreambuf_iterator@DU?$char_traits@D@std@@@std@@@std@@MBE?AV?$istreambuf_iterator@DU?$char_traits@D@std@@@2@V32@0AAVios_base@2@AAHAA_N@Z ; std::num_get<char,std::istreambuf_iterator<char,std::char_traits<char> > >::do_get
PUBLIC	?do_get@?$num_get@DV?$istreambuf_iterator@DU?$char_traits@D@std@@@std@@@std@@MBE?AV?$istreambuf_iterator@DU?$char_traits@D@std@@@2@V32@0AAVios_base@2@AAHAAG@Z ; std::num_get<char,std::istreambuf_iterator<char,std::char_traits<char> > >::do_get
PUBLIC	?do_get@?$num_get@DV?$istreambuf_iterator@DU?$char_traits@D@std@@@std@@@std@@MBE?AV?$istreambuf_iterator@DU?$char_traits@D@std@@@2@V32@0AAVios_base@2@AAHAAI@Z ; std::num_get<char,std::istreambuf_iterator<char,std::char_traits<char> > >::do_get
PUBLIC	?do_get@?$num_get@DV?$istreambuf_iterator@DU?$char_traits@D@std@@@std@@@std@@MBE?AV?$istreambuf_iterator@DU?$char_traits@D@std@@@2@V32@0AAVios_base@2@AAHAAJ@Z ; std::num_get<char,std::istreambuf_iterator<char,std::char_traits<char> > >::do_get
PUBLIC	?do_get@?$num_get@DV?$istreambuf_iterator@DU?$char_traits@D@std@@@std@@@std@@MBE?AV?$istreambuf_iterator@DU?$char_traits@D@std@@@2@V32@0AAVios_base@2@AAHAAK@Z ; std::num_get<char,std::istreambuf_iterator<char,std::char_traits<char> > >::do_get
PUBLIC	?do_get@?$num_get@DV?$istreambuf_iterator@DU?$char_traits@D@std@@@std@@@std@@MBE?AV?$istreambuf_iterator@DU?$char_traits@D@std@@@2@V32@0AAVios_base@2@AAHAA_J@Z ; std::num_get<char,std::istreambuf_iterator<char,std::char_traits<char> > >::do_get
PUBLIC	?do_get@?$num_get@DV?$istreambuf_iterator@DU?$char_traits@D@std@@@std@@@std@@MBE?AV?$istreambuf_iterator@DU?$char_traits@D@std@@@2@V32@0AAVios_base@2@AAHAA_K@Z ; std::num_get<char,std::istreambuf_iterator<char,std::char_traits<char> > >::do_get
PUBLIC	?do_get@?$num_get@DV?$istreambuf_iterator@DU?$char_traits@D@std@@@std@@@std@@MBE?AV?$istreambuf_iterator@DU?$char_traits@D@std@@@2@V32@0AAVios_base@2@AAHAAM@Z ; std::num_get<char,std::istreambuf_iterator<char,std::char_traits<char> > >::do_get
PUBLIC	?do_get@?$num_get@DV?$istreambuf_iterator@DU?$char_traits@D@std@@@std@@@std@@MBE?AV?$istreambuf_iterator@DU?$char_traits@D@std@@@2@V32@0AAVios_base@2@AAHAAN@Z ; std::num_get<char,std::istreambuf_iterator<char,std::char_traits<char> > >::do_get
PUBLIC	?do_get@?$num_get@DV?$istreambuf_iterator@DU?$char_traits@D@std@@@std@@@std@@MBE?AV?$istreambuf_iterator@DU?$char_traits@D@std@@@2@V32@0AAVios_base@2@AAHAAO@Z ; std::num_get<char,std::istreambuf_iterator<char,std::char_traits<char> > >::do_get
PUBLIC	?do_get@?$num_get@DV?$istreambuf_iterator@DU?$char_traits@D@std@@@std@@@std@@MBE?AV?$istreambuf_iterator@DU?$char_traits@D@std@@@2@V32@0AAVios_base@2@AAHAAPAX@Z ; std::num_get<char,std::istreambuf_iterator<char,std::char_traits<char> > >::do_get
PUBLIC	??_G?$num_get@DV?$istreambuf_iterator@DU?$char_traits@D@std@@@std@@@std@@MAEPAXI@Z ; std::num_get<char,std::istreambuf_iterator<char,std::char_traits<char> > >::`scalar deleting destructor'
PUBLIC	??D?$istreambuf_iterator@DU?$char_traits@D@std@@@std@@QBEDXZ ; std::istreambuf_iterator<char,std::char_traits<char> >::operator*
PUBLIC	??E?$istreambuf_iterator@DU?$char_traits@D@std@@@std@@QAEAAV01@XZ ; std::istreambuf_iterator<char,std::char_traits<char> >::operator++
PUBLIC	??$_Float_put_desired_precision@O@std@@YAH_JH@Z	; std::_Float_put_desired_precision<long double>
PUBLIC	??$_Fput_v3@$0A@@?$num_put@_WV?$ostreambuf_iterator@_WU?$char_traits@_W@std@@@std@@@std@@ABE?AV?$ostreambuf_iterator@_WU?$char_traits@_W@std@@@1@V21@AAVios_base@1@_WPBDI_N@Z ; std::num_put<wchar_t,std::ostreambuf_iterator<wchar_t,std::char_traits<wchar_t> > >::_Fput_v3<0>
PUBLIC	??$_Float_put_desired_precision@N@std@@YAH_JH@Z	; std::_Float_put_desired_precision<double>
PUBLIC	??$use_facet@V?$numpunct@_W@std@@@std@@YAABV?$numpunct@_W@0@ABVlocale@0@@Z ; std::use_facet<std::numpunct<wchar_t> >
PUBLIC	?_Getcat@?$numpunct@_W@std@@SAIPAPBVfacet@locale@2@PBV42@@Z ; std::numpunct<wchar_t>::_Getcat
PUBLIC	??1?$numpunct@_W@std@@MAE@XZ			; std::numpunct<wchar_t>::~numpunct<wchar_t>
PUBLIC	?do_decimal_point@?$numpunct@_W@std@@MBE_WXZ	; std::numpunct<wchar_t>::do_decimal_point
PUBLIC	?do_thousands_sep@?$numpunct@_W@std@@MBE_WXZ	; std::numpunct<wchar_t>::do_thousands_sep
PUBLIC	?do_grouping@?$numpunct@_W@std@@MBE?AV?$basic_string@DU?$char_traits@D@std@@V?$allocator@D@2@@2@XZ ; std::numpunct<wchar_t>::do_grouping
PUBLIC	?do_falsename@?$numpunct@_W@std@@MBE?AV?$basic_string@_WU?$char_traits@_W@std@@V?$allocator@_W@2@@2@XZ ; std::numpunct<wchar_t>::do_falsename
PUBLIC	?do_truename@?$numpunct@_W@std@@MBE?AV?$basic_string@_WU?$char_traits@_W@std@@V?$allocator@_W@2@@2@XZ ; std::numpunct<wchar_t>::do_truename
PUBLIC	??_G?$numpunct@_W@std@@MAEPAXI@Z		; std::numpunct<wchar_t>::`scalar deleting destructor'
PUBLIC	??1_Reallocation_guard@?$vector@V?$basic_string@_WU?$char_traits@_W@std@@V?$allocator@_W@2@@std@@V?$allocator@V?$basic_string@_WU?$char_traits@_W@std@@V?$allocator@_W@2@@std@@@2@@std@@QAE@XZ ; std::vector<std::basic_string<wchar_t,std::char_traits<wchar_t>,std::allocator<wchar_t> >,std::allocator<std::basic_string<wchar_t,std::char_traits<wchar_t>,std::allocator<wchar_t> > > >::_Reallocation_guard::~_Reallocation_guard
PUBLIC	??$_Uninitialized_move@PAV?$basic_string@_WU?$char_traits@_W@std@@V?$allocator@_W@2@@std@@V?$allocator@V?$basic_string@_WU?$char_traits@_W@std@@V?$allocator@_W@2@@std@@@2@@std@@YAPAV?$basic_string@_WU?$char_traits@_W@std@@V?$allocator@_W@2@@0@QAV10@0PAV10@AAV?$allocator@V?$basic_string@_WU?$char_traits@_W@std@@V?$allocator@_W@2@@std@@@0@@Z ; std::_Uninitialized_move<std::basic_string<wchar_t,std::char_traits<wchar_t>,std::allocator<wchar_t> > *,std::allocator<std::basic_string<wchar_t,std::char_traits<wchar_t>,std::allocator<wchar_t> > > >
PUBLIC	??1?$_Uninitialized_backout_al@V?$allocator@V?$basic_string@_WU?$char_traits@_W@std@@V?$allocator@_W@2@@std@@@std@@@std@@QAE@XZ ; std::_Uninitialized_backout_al<std::allocator<std::basic_string<wchar_t,std::char_traits<wchar_t>,std::allocator<wchar_t> > > >::~_Uninitialized_backout_al<std::allocator<std::basic_string<wchar_t,std::char_traits<wchar_t>,std::allocator<wchar_t> > > >
PUBLIC	??$_Zero_range@PAE@std@@YAPAEQAE0@Z		; std::_Zero_range<unsigned char *>
PUBLIC	??$_Parse_int_with_locale@$0A@@?$num_get@DV?$istreambuf_iterator@DU?$char_traits@D@std@@@std@@@std@@CA?AU_Num_get_parse_result@1@QADAAV?$istreambuf_iterator@DU?$char_traits@D@std@@@1@1HABVlocale@1@@Z ; std::num_get<char,std::istreambuf_iterator<char,std::char_traits<char> > >::_Parse_int_with_locale<0>
PUBLIC	??$?8DU?$char_traits@D@std@@@std@@YA_NABV?$istreambuf_iterator@DU?$char_traits@D@std@@@0@0@Z ; std::operator==<char,std::char_traits<char> >
PUBLIC	??$_Parse_fp_with_locale@$0A@@?$num_get@DV?$istreambuf_iterator@DU?$char_traits@D@std@@@std@@@std@@CA?AU_Num_get_parse_result@1@QADHAAV?$istreambuf_iterator@DU?$char_traits@D@std@@@1@1ABVlocale@1@@Z ; std::num_get<char,std::istreambuf_iterator<char,std::char_traits<char> > >::_Parse_fp_with_locale<0>
PUBLIC	??$use_facet@V?$numpunct@D@std@@@std@@YAABV?$numpunct@D@0@ABVlocale@0@@Z ; std::use_facet<std::numpunct<char> >
PUBLIC	??1?$numpunct@D@std@@MAE@XZ			; std::numpunct<char>::~numpunct<char>
PUBLIC	?do_decimal_point@?$numpunct@D@std@@MBEDXZ	; std::numpunct<char>::do_decimal_point
PUBLIC	?do_thousands_sep@?$numpunct@D@std@@MBEDXZ	; std::numpunct<char>::do_thousands_sep
PUBLIC	?do_grouping@?$numpunct@D@std@@MBE?AV?$basic_string@DU?$char_traits@D@std@@V?$allocator@D@2@@2@XZ ; std::numpunct<char>::do_grouping
PUBLIC	?do_falsename@?$numpunct@D@std@@MBE?AV?$basic_string@DU?$char_traits@D@std@@V?$allocator@D@2@@2@XZ ; std::numpunct<char>::do_falsename
PUBLIC	?do_truename@?$numpunct@D@std@@MBE?AV?$basic_string@DU?$char_traits@D@std@@V?$allocator@D@2@@2@XZ ; std::numpunct<char>::do_truename
PUBLIC	??_G?$numpunct@D@std@@MAEPAXI@Z			; std::numpunct<char>::`scalar deleting destructor'
PUBLIC	??$_Getloctxt@V?$istreambuf_iterator@DU?$char_traits@D@std@@@std@@D@std@@YAHAAV?$istreambuf_iterator@DU?$char_traits@D@std@@@0@0IPBDW4_Case_sensitive@0@@Z ; std::_Getloctxt<std::istreambuf_iterator<char,std::char_traits<char> >,char>
PUBLIC	??$_Copy_memmove@PAKPAK@std@@YAPAKPAK00@Z	; std::_Copy_memmove<unsigned long *,unsigned long *>
PUBLIC	??$?9DU?$char_traits@D@std@@@std@@YA_NABV?$istreambuf_iterator@DU?$char_traits@D@std@@@0@0@Z ; std::operator!=<char,std::char_traits<char> >
PUBLIC	??$_Find_elem@D$0BL@@std@@YAIAAY0BL@$$CBDD@Z	; std::_Find_elem<char,27>
PUBLIC	??$_Find_elem@D$0BN@@std@@YAIAAY0BN@$$CBDD@Z	; std::_Find_elem<char,29>
PUBLIC	??$_Copy_memmove_tail@PAK@std@@YAPAKQBDQAKII@Z	; std::_Copy_memmove_tail<unsigned long *>
PUBLIC	??$_Reverse_vectorized@$00@std@@YAXPAX0@Z	; std::_Reverse_vectorized<1>
PUBLIC	??$_Allocate@$07U_Default_allocate_traits@std@@@std@@YAPAXI@Z ; std::_Allocate<8,std::_Default_allocate_traits>
PUBLIC	??$_Find_vectorized@$$CBDD@std@@YAPBDQBD0D@Z	; std::_Find_vectorized<char const ,char>
PUBLIC	??$_Allocate_manually_vector_aligned@U_Default_allocate_traits@std@@@std@@YAPAXI@Z ; std::_Allocate_manually_vector_aligned<std::_Default_allocate_traits>
PUBLIC	??1?$_Tidy_guard@V?$numpunct@_W@std@@@std@@QAE@XZ ; std::_Tidy_guard<std::numpunct<wchar_t> >::~_Tidy_guard<std::numpunct<wchar_t> >
PUBLIC	??$_Maklocstr@D@std@@YAPADPBDPADABU_Cvtvec@@@Z	; std::_Maklocstr<char>
PUBLIC	??1?$_Tidy_guard@V?$numpunct@D@std@@@std@@QAE@XZ ; std::_Tidy_guard<std::numpunct<char> >::~_Tidy_guard<std::numpunct<char> >
PUBLIC	??$_Maklocchr@D@std@@YADDPADABU_Cvtvec@@@Z	; std::_Maklocchr<char>
PUBLIC	?_OptionsStorage@?1??__local_stdio_printf_options@@9@4_KA ; `__local_stdio_printf_options'::`2'::_OptionsStorage
PUBLIC	??_7exception@std@@6B@				; std::exception::`vftable'
PUBLIC	??_C@_0BC@EOODALEL@Unknown?5exception@		; `string'
PUBLIC	??_7bad_alloc@std@@6B@				; std::bad_alloc::`vftable'
PUBLIC	??_7bad_array_new_length@std@@6B@		; std::bad_array_new_length::`vftable'
PUBLIC	??_C@_0BF@KINCDENJ@bad?5array?5new?5length@	; `string'
PUBLIC	??_R0?AVexception@std@@@8			; std::exception `RTTI Type Descriptor'
PUBLIC	__CT??_R0?AVexception@std@@@8??0exception@std@@QAE@ABV01@@Z12
PUBLIC	__TI3?AVbad_array_new_length@std@@
PUBLIC	__CTA3?AVbad_array_new_length@std@@
PUBLIC	??_R0?AVbad_array_new_length@std@@@8		; std::bad_array_new_length `RTTI Type Descriptor'
PUBLIC	__CT??_R0?AVbad_array_new_length@std@@@8??0bad_array_new_length@std@@QAE@ABV01@@Z12
PUBLIC	??_R0?AVbad_alloc@std@@@8			; std::bad_alloc `RTTI Type Descriptor'
PUBLIC	__CT??_R0?AVbad_alloc@std@@@8??0bad_alloc@std@@QAE@ABV01@@Z12
PUBLIC	??_C@_0BA@JFNIOLAK@string?5too?5long@		; `string'
PUBLIC	??_7runtime_error@std@@6B@			; std::runtime_error::`vftable'
PUBLIC	??_R0?AVruntime_error@std@@@8			; std::runtime_error `RTTI Type Descriptor'
PUBLIC	__CT??_R0?AVruntime_error@std@@@8??0runtime_error@std@@QAE@ABV01@@Z12
PUBLIC	??_7_System_error@std@@6B@			; std::_System_error::`vftable'
PUBLIC	??_C@_02LMMGGCAJ@?3?5@				; `string'
PUBLIC	??_7system_error@std@@6B@			; std::system_error::`vftable'
PUBLIC	??_R0?AVsystem_error@std@@@8			; std::system_error `RTTI Type Descriptor'
PUBLIC	__CT??_R0?AVsystem_error@std@@@8??0system_error@std@@QAE@ABV01@@Z20
PUBLIC	??_R0?AV_System_error@std@@@8			; std::_System_error `RTTI Type Descriptor'
PUBLIC	__CT??_R0?AV_System_error@std@@@8??0_System_error@std@@QAE@ABV01@@Z20
PUBLIC	??_7_Iostream_error_category2@std@@6B@		; std::_Iostream_error_category2::`vftable'
PUBLIC	??_C@_08LLGCOLLL@iostream@			; `string'
PUBLIC	?_Iostream_error@?4??message@_Iostream_error_category2@std@@UBE?AV?$basic_string@DU?$char_traits@D@std@@V?$allocator@D@2@@3@H@Z@4QBDB ; `std::_Iostream_error_category2::message'::`5'::_Iostream_error
PUBLIC	??_7bad_cast@std@@6B@				; std::bad_cast::`vftable'
PUBLIC	??_C@_08EPJLHIJG@bad?5cast@			; `string'
PUBLIC	__TI2?AVbad_cast@std@@
PUBLIC	__CTA2?AVbad_cast@std@@
PUBLIC	??_R0?AVbad_cast@std@@@8			; std::bad_cast `RTTI Type Descriptor'
PUBLIC	__CT??_R0?AVbad_cast@std@@@8??0bad_cast@std@@QAE@ABV01@@Z12
PUBLIC	??_7_Facet_base@std@@6B@			; std::_Facet_base::`vftable'
PUBLIC	??_C@_0BA@ELKIONDK@bad?5locale?5name@		; `string'
PUBLIC	??_C@_05LAPONLG@false@				; `string'
PUBLIC	??_C@_04LOAJBDKD@true@				; `string'
PUBLIC	??_7facet@locale@std@@6B@			; std::locale::facet::`vftable'
PUBLIC	??_C@_00CNPNBAHC@@				; `string'
PUBLIC	??_7ctype_base@std@@6B@				; std::ctype_base::`vftable'
PUBLIC	??_7?$ctype@D@std@@6B@				; std::ctype<char>::`vftable'
PUBLIC	??_7?$ctype@_W@std@@6B@				; std::ctype<wchar_t>::`vftable'
PUBLIC	??_7failure@ios_base@std@@6B@			; std::ios_base::failure::`vftable'
PUBLIC	??_C@_0BF@PHHKMMFD@ios_base?3?3badbit?5set@	; `string'
PUBLIC	??_C@_0BG@FMKFHCIL@ios_base?3?3failbit?5set@	; `string'
PUBLIC	??_C@_0BF@OOHOMBOF@ios_base?3?3eofbit?5set@	; `string'
PUBLIC	__TI5?AVfailure@ios_base@std@@
PUBLIC	__CTA5?AVfailure@ios_base@std@@
PUBLIC	??_R0?AVfailure@ios_base@std@@@8		; std::ios_base::failure `RTTI Type Descriptor'
PUBLIC	__CT??_R0?AVfailure@ios_base@std@@@8??0failure@ios_base@std@@QAE@ABV012@@Z20
PUBLIC	??_C@_1BE@NMFIMKAA@?$AA?2?$AAw?$AAi?$AAn?$AAd?$AAo?$AAw?$AAs?$AA?2@ ; `string'
PUBLIC	??_C@_1BG@NCCDOFIB@?$AA?2?$AAs?$AAy?$AAs?$AAt?$AAe?$AAm?$AA3?$AA2?$AA?2@ ; `string'
PUBLIC	??_C@_1DG@CIFNPBMN@?$AA?2?$AAw?$AAi?$AAn?$AAd?$AAo?$AAw?$AAs?$AA?2?$AAs?$AAy?$AAs?$AAt?$AAe?$AAm@ ; `string'
PUBLIC	??_C@_1CE@OEHNAGL@?$AAc?$AA?3?$AA?2?$AAp?$AAr?$AAo?$AAg?$AAr?$AAa?$AAm?$AA?5?$AAf?$AAi?$AAl?$AAe@ ; `string'
PUBLIC	??_C@_1DA@NPPKGKBB@?$AAc?$AA?3?$AA?2?$AAp?$AAr?$AAo?$AAg?$AAr?$AAa?$AAm?$AA?5?$AAf?$AAi?$AAl?$AAe@ ; `string'
PUBLIC	??_C@_1BC@FOGOLNOF@?$AAS?$AA?9?$AA1?$AA?9?$AA5?$AA?9?$AA1?$AA8@ ; `string'
PUBLIC	??_C@_1BK@KDDKMJBN@?$AAS?$AA?9?$AA1?$AA?9?$AA5?$AA?9?$AA3?$AA2?$AA?9?$AA5?$AA4?$AA4@ ; `string'
PUBLIC	??_C@_0CD@JHGEGGMB@Failed?5to?5open?5file?5for?5overwri@ ; `string'
PUBLIC	??_C@_0CD@HIEHLICF@Failed?5to?5write?5null?5data?5to?5fi@ ; `string'
PUBLIC	??_C@_0BL@KNKFCKIE@Executable?5securely?5wiped?6@ ; `string'
PUBLIC	??_C@_0DB@PHJEDLD@Executable?5wipe?5incomplete?5due?5@ ; `string'
PUBLIC	??_C@_1CE@LGHOJOAP@?$AAE?$AAa?$AAs?$AAy?$AAA?$AAn?$AAt?$AAi?$AAC?$AAh?$AAe?$AAa?$AAt?$AA?4?$AAe@ ; `string'
PUBLIC	??_C@_1CA@FECLNECF@?$AAr?$AAb?$AAx?$AAh?$AAy?$AAp?$AAe?$AAr?$AAi?$AAo?$AAn?$AA?4?$AAe?$AAx?$AAe@ ; `string'
PUBLIC	??_C@_1BA@NHFJGJJ@?$AAv?$AAg?$AAk?$AA?4?$AAe?$AAx?$AAe@ ; `string'
PUBLIC	??_C@_1BK@KHLBIGMC@?$AAV?$AAa?$AAn?$AAg?$AAu?$AAa?$AAr?$AAd?$AA?4?$AAe?$AAx?$AAe@ ; `string'
PUBLIC	??_C@_1CK@DNABAJMK@?$AAR?$AAo?$AAb?$AAl?$AAo?$AAx?$AAP?$AAl?$AAa?$AAy?$AAe?$AAr?$AAB?$AAe?$AAt@ ; `string'
PUBLIC	??_C@_0CD@HMDMDLOM@Failed?5to?5create?5process?5snapsh@ ; `string'
PUBLIC	??_C@_02MNMNLDAI@?$CJ?6@			; `string'
PUBLIC	??_C@_07GOJKIMHK@?5?$CIPID?3?5@			; `string'
PUBLIC	??_C@_02KHOJGJKF@?4?5@				; `string'
PUBLIC	??_C@_0CH@DBEMKEBP@No?5allowed?5anti?9cheat?5processes@ ; `string'
PUBLIC	??_C@_0DF@OBKIMPA@Select?5process?5to?5terminate?5and@ ; `string'
PUBLIC	??_C@_0L@GMIBBJLF@Cancelled?6@			; `string'
PUBLIC	??_C@_13LBAGMAIH@?$AA?6@			; `string'
PUBLIC	??_C@_1FE@ILHKNOOP@?$AAD?$AAr?$AAi?$AAv?$AAe?$AAr?$AA?3?$AA?5?$AAK?$AAi?$AAl?$AAl?$AA?5?$AA?$CG?$AA?5@ ; `string'
PUBLIC	??_C@_1FI@FBPFGPFA@?$AAD?$AAr?$AAi?$AAv?$AAe?$AAr?$AA?3?$AA?5?$AAK?$AAi?$AAl?$AAl?$AA?5?$AA?$CG?$AA?5@ ; `string'
PUBLIC	??_C@_0DC@ILHIMEPI@Failed?5to?5open?5process?5for?5quer@ ; `string'
PUBLIC	??_C@_0BP@GLDIOEL@Failed?5to?5get?5executable?5path?6@ ; `string'
PUBLIC	??_C@_1GI@CANLKDBI@?$AAR?$AAe?$AAf?$AAu?$AAs?$AAi?$AAn?$AAg?$AA?5?$AAt?$AAo?$AA?5?$AAw?$AAi?$AAp@ ; `string'
PUBLIC	??_C@_1HM@HKLAJMNM@?$AAR?$AAe?$AAf?$AAu?$AAs?$AAi?$AAn?$AAg?$AA?5?$AAt?$AAo?$AA?5?$AAw?$AAi?$AAp@ ; `string'
PUBLIC	??_C@_1BC@NNIHPOBO@?$AAT?$AAa?$AAr?$AAg?$AAe?$AAt?$AA?3?$AA?5@ ; `string'
PUBLIC	??_C@_0BN@DJMCJGKF@Failed?5to?5terminate?5process?6@ ; `string'
PUBLIC	??_C@_1CK@HMIPOEEH@?$AAP?$AAr?$AAo?$AAc?$AAe?$AAs?$AAs?$AA?5?$AAt?$AAe?$AAr?$AAm?$AAi?$AAn?$AAa@ ; `string'
PUBLIC	??_C@_19PAKAKPNB@?$AA?4?$AAb?$AAa?$AAk@		; `string'
PUBLIC	??_C@_1DK@GGPBFIDJ@?$AAF?$AAa?$AAi?$AAl?$AAe?$AAd?$AA?5?$AAt?$AAo?$AA?5?$AAc?$AAr?$AAe?$AAa?$AAt@ ; `string'
PUBLIC	??_C@_1CC@GKFHONNI@?$AAB?$AAa?$AAc?$AAk?$AAu?$AAp?$AA?5?$AAc?$AAr?$AAe?$AAa?$AAt?$AAe?$AAd?$AA?3@ ; `string'
PUBLIC	??_C@_0BJ@PGKDKKC@Failed?5to?5get?5file?5size?6@ ; `string'
PUBLIC	??_C@_0BC@BNCCJELM@?60?4?5Exit?6Choice?3?5@	; `string'
PUBLIC	??_C@_0BP@OCJOJNKG@?64?4?5Kill?5?$CG?5Wipe?5Anti?9Cheat?5EXE@ ; `string'
PUBLIC	??_C@_0BO@HCKJMIGK@?63?4?5Create?5Service?5?$CIrequired?$CJ@ ; `string'
PUBLIC	??_C@_0BH@OJMELANK@?62?4?5Disable?5Protection@	; `string'
PUBLIC	??_C@_0BG@JOPEPBBN@?61?4?5Enable?5Protection@	; `string'
PUBLIC	??_C@_0P@NFDEKPFN@Invalid?5input?6@		; `string'
PUBLIC	??_C@_0BE@MMCBKBP@Protection?5enabled?6@	; `string'
PUBLIC	??_C@_0BN@EGKIEGE@Failed?5to?5enable?5protection?6@ ; `string'
PUBLIC	??_C@_0BF@DONBIPBH@Protection?5disabled?6@	; `string'
PUBLIC	??_C@_0BO@DDDAMELB@Failed?5to?5disable?5protection?6@ ; `string'
PUBLIC	??_C@_0CM@HEBMLGBH@Service?5installed?5and?5started?5s@ ; `string'
PUBLIC	??_C@_0CB@ELPLAANP@Failed?5to?5install?1start?5service@ ; `string'
PUBLIC	??_C@_08IEHHMBPO@Exiting?6@			; `string'
PUBLIC	??_C@_0BA@MECFPBGI@Invalid?5choice?6@		; `string'
PUBLIC	??_C@_0EO@DEFMDMEG@This?5application?5must?5be?5run?5as@ ; `string'
PUBLIC	?_Static@?1???$_Immortalize_memcpy_image@V_Iostream_error_category2@std@@@std@@YAABV_Iostream_error_category2@1@XZ@4U?$_Constexpr_immortalize_impl@V_Iostream_error_category2@std@@@1@A ; `std::_Immortalize_memcpy_image<std::_Iostream_error_category2>'::`2'::_Static
PUBLIC	?_Psave@?$_Facetptr@V?$ctype@D@std@@@std@@2PBVfacet@locale@2@B ; std::_Facetptr<std::ctype<char> >::_Psave
PUBLIC	?id@?$num_put@_WV?$ostreambuf_iterator@_WU?$char_traits@_W@std@@@std@@@std@@2V0locale@2@A ; std::num_put<wchar_t,std::ostreambuf_iterator<wchar_t,std::char_traits<wchar_t> > >::id
PUBLIC	??_7?$num_put@_WV?$ostreambuf_iterator@_WU?$char_traits@_W@std@@@std@@@std@@6B@ ; std::num_put<wchar_t,std::ostreambuf_iterator<wchar_t,std::char_traits<wchar_t> > >::`vftable'
PUBLIC	?_Psave@?$_Facetptr@V?$ctype@_W@std@@@std@@2PBVfacet@locale@2@B ; std::_Facetptr<std::ctype<wchar_t> >::_Psave
PUBLIC	?_Psave@?$_Facetptr@V?$num_put@_WV?$ostreambuf_iterator@_WU?$char_traits@_W@std@@@std@@@std@@@std@@2PBVfacet@locale@2@B ; std::_Facetptr<std::num_put<wchar_t,std::ostreambuf_iterator<wchar_t,std::char_traits<wchar_t> > > >::_Psave
PUBLIC	?id@?$num_get@DV?$istreambuf_iterator@DU?$char_traits@D@std@@@std@@@std@@2V0locale@2@A ; std::num_get<char,std::istreambuf_iterator<char,std::char_traits<char> > >::id
PUBLIC	??_7?$num_get@DV?$istreambuf_iterator@DU?$char_traits@D@std@@@std@@@std@@6B@ ; std::num_get<char,std::istreambuf_iterator<char,std::char_traits<char> > >::`vftable'
PUBLIC	??_C@_02BBAHNLBA@?$CFp@				; `string'
PUBLIC	??_C@_02CLHGNPPK@Lu@				; `string'
PUBLIC	??_C@_02HIKPPMOK@Ld@				; `string'
PUBLIC	??_C@_02BDDLJJBK@lu@				; `string'
PUBLIC	??_C@_02EAOCLKAK@ld@				; `string'
PUBLIC	?id@?$numpunct@_W@std@@2V0locale@2@A		; std::numpunct<wchar_t>::id
PUBLIC	??_7?$numpunct@_W@std@@6B@			; std::numpunct<wchar_t>::`vftable'
PUBLIC	?_Psave@?$_Facetptr@V?$num_get@DV?$istreambuf_iterator@DU?$char_traits@D@std@@@std@@@std@@@std@@2PBVfacet@locale@2@B ; std::_Facetptr<std::num_get<char,std::istreambuf_iterator<char,std::char_traits<char> > > >::_Psave
PUBLIC	??_C@_02MDKMJEGG@eE@				; `string'
PUBLIC	??_C@_02OOPEBDOJ@pP@				; `string'
PUBLIC	??_C@_01LFCBOECM@?4@				; `string'
PUBLIC	?_Psave@?$_Facetptr@V?$numpunct@_W@std@@@std@@2PBVfacet@locale@2@B ; std::_Facetptr<std::numpunct<wchar_t> >::_Psave
PUBLIC	?id@?$numpunct@D@std@@2V0locale@2@A		; std::numpunct<char>::id
PUBLIC	??_7?$numpunct@D@std@@6B@			; std::numpunct<char>::`vftable'
PUBLIC	?_Src@?1???$_Parse_int_with_locale@$0A@@?$num_get@DV?$istreambuf_iterator@DU?$char_traits@D@std@@@std@@@std@@CA?AU_Num_get_parse_result@2@QADAAV?$istreambuf_iterator@DU?$char_traits@D@std@@@2@1HABVlocale@2@@Z@4QBDB ; `std::num_get<char,std::istreambuf_iterator<char,std::char_traits<char> > >::_Parse_int_with_locale<0>'::`2'::_Src
PUBLIC	?_Src@?1???$_Parse_fp_with_locale@$0A@@?$num_get@DV?$istreambuf_iterator@DU?$char_traits@D@std@@@std@@@std@@CA?AU_Num_get_parse_result@2@QADHAAV?$istreambuf_iterator@DU?$char_traits@D@std@@@2@1ABVlocale@2@@Z@4QBDB ; `std::num_get<char,std::istreambuf_iterator<char,std::char_traits<char> > >::_Parse_fp_with_locale<0>'::`2'::_Src
PUBLIC	?_Psave@?$_Facetptr@V?$numpunct@D@std@@@std@@2PBVfacet@locale@2@B ; std::_Facetptr<std::numpunct<char> >::_Psave
PUBLIC	??_C@_0BA@FOIKENOD@vector?5too?5long@		; `string'
PUBLIC	??_C@_0BI@CFPLBAOH@invalid?5string?5position@	; `string'
PUBLIC	??_R4exception@std@@6B@				; std::exception::`RTTI Complete Object Locator'
PUBLIC	??_R3exception@std@@8				; std::exception::`RTTI Class Hierarchy Descriptor'
PUBLIC	??_R2exception@std@@8				; std::exception::`RTTI Base Class Array'
PUBLIC	??_R1A@?0A@EA@exception@std@@8			; std::exception::`RTTI Base Class Descriptor at (0,-1,0,64)'
PUBLIC	??_R4bad_array_new_length@std@@6B@		; std::bad_array_new_length::`RTTI Complete Object Locator'
PUBLIC	??_R3bad_array_new_length@std@@8		; std::bad_array_new_length::`RTTI Class Hierarchy Descriptor'
PUBLIC	??_R2bad_array_new_length@std@@8		; std::bad_array_new_length::`RTTI Base Class Array'
PUBLIC	??_R1A@?0A@EA@bad_array_new_length@std@@8	; std::bad_array_new_length::`RTTI Base Class Descriptor at (0,-1,0,64)'
PUBLIC	??_R1A@?0A@EA@bad_alloc@std@@8			; std::bad_alloc::`RTTI Base Class Descriptor at (0,-1,0,64)'
PUBLIC	??_R3bad_alloc@std@@8				; std::bad_alloc::`RTTI Class Hierarchy Descriptor'
PUBLIC	??_R2bad_alloc@std@@8				; std::bad_alloc::`RTTI Base Class Array'
PUBLIC	??_R4bad_alloc@std@@6B@				; std::bad_alloc::`RTTI Complete Object Locator'
PUBLIC	??_R4runtime_error@std@@6B@			; std::runtime_error::`RTTI Complete Object Locator'
PUBLIC	??_R3runtime_error@std@@8			; std::runtime_error::`RTTI Class Hierarchy Descriptor'
PUBLIC	??_R2runtime_error@std@@8			; std::runtime_error::`RTTI Base Class Array'
PUBLIC	??_R1A@?0A@EA@runtime_error@std@@8		; std::runtime_error::`RTTI Base Class Descriptor at (0,-1,0,64)'
PUBLIC	??_R0?AVerror_category@std@@@8			; std::error_category `RTTI Type Descriptor'
PUBLIC	??_R3error_category@std@@8			; std::error_category::`RTTI Class Hierarchy Descriptor'
PUBLIC	??_R2error_category@std@@8			; std::error_category::`RTTI Base Class Array'
PUBLIC	??_R1A@?0A@EA@error_category@std@@8		; std::error_category::`RTTI Base Class Descriptor at (0,-1,0,64)'
PUBLIC	??_R4_System_error@std@@6B@			; std::_System_error::`RTTI Complete Object Locator'
PUBLIC	??_R3_System_error@std@@8			; std::_System_error::`RTTI Class Hierarchy Descriptor'
PUBLIC	??_R2_System_error@std@@8			; std::_System_error::`RTTI Base Class Array'
PUBLIC	??_R1A@?0A@EA@_System_error@std@@8		; std::_System_error::`RTTI Base Class Descriptor at (0,-1,0,64)'
PUBLIC	??_R4system_error@std@@6B@			; std::system_error::`RTTI Complete Object Locator'
PUBLIC	??_R3system_error@std@@8			; std::system_error::`RTTI Class Hierarchy Descriptor'
PUBLIC	??_R2system_error@std@@8			; std::system_error::`RTTI Base Class Array'
PUBLIC	??_R1A@?0A@EA@system_error@std@@8		; std::system_error::`RTTI Base Class Descriptor at (0,-1,0,64)'
PUBLIC	??_R4_Iostream_error_category2@std@@6B@		; std::_Iostream_error_category2::`RTTI Complete Object Locator'
PUBLIC	??_R0?AV_Iostream_error_category2@std@@@8	; std::_Iostream_error_category2 `RTTI Type Descriptor'
PUBLIC	??_R3_Iostream_error_category2@std@@8		; std::_Iostream_error_category2::`RTTI Class Hierarchy Descriptor'
PUBLIC	??_R2_Iostream_error_category2@std@@8		; std::_Iostream_error_category2::`RTTI Base Class Array'
PUBLIC	??_R1A@?0A@EA@_Iostream_error_category2@std@@8	; std::_Iostream_error_category2::`RTTI Base Class Descriptor at (0,-1,0,64)'
PUBLIC	??_R4bad_cast@std@@6B@				; std::bad_cast::`RTTI Complete Object Locator'
PUBLIC	??_R3bad_cast@std@@8				; std::bad_cast::`RTTI Class Hierarchy Descriptor'
PUBLIC	??_R2bad_cast@std@@8				; std::bad_cast::`RTTI Base Class Array'
PUBLIC	??_R1A@?0A@EA@bad_cast@std@@8			; std::bad_cast::`RTTI Base Class Descriptor at (0,-1,0,64)'
PUBLIC	??_R4_Facet_base@std@@6B@			; std::_Facet_base::`RTTI Complete Object Locator'
PUBLIC	??_R0?AV_Facet_base@std@@@8			; std::_Facet_base `RTTI Type Descriptor'
PUBLIC	??_R3_Facet_base@std@@8				; std::_Facet_base::`RTTI Class Hierarchy Descriptor'
PUBLIC	??_R2_Facet_base@std@@8				; std::_Facet_base::`RTTI Base Class Array'
PUBLIC	??_R1A@?0A@EA@_Facet_base@std@@8		; std::_Facet_base::`RTTI Base Class Descriptor at (0,-1,0,64)'
PUBLIC	??_R4facet@locale@std@@6B@			; std::locale::facet::`RTTI Complete Object Locator'
PUBLIC	??_R0?AVfacet@locale@std@@@8			; std::locale::facet `RTTI Type Descriptor'
PUBLIC	??_R3facet@locale@std@@8			; std::locale::facet::`RTTI Class Hierarchy Descriptor'
PUBLIC	??_R2facet@locale@std@@8			; std::locale::facet::`RTTI Base Class Array'
PUBLIC	??_R1A@?0A@EA@facet@locale@std@@8		; std::locale::facet::`RTTI Base Class Descriptor at (0,-1,0,64)'
PUBLIC	??_R13?0A@EA@_Crt_new_delete@std@@8		; std::_Crt_new_delete::`RTTI Base Class Descriptor at (4,-1,0,64)'
PUBLIC	??_R0?AU_Crt_new_delete@std@@@8			; std::_Crt_new_delete `RTTI Type Descriptor'
PUBLIC	??_R3_Crt_new_delete@std@@8			; std::_Crt_new_delete::`RTTI Class Hierarchy Descriptor'
PUBLIC	??_R2_Crt_new_delete@std@@8			; std::_Crt_new_delete::`RTTI Base Class Array'
PUBLIC	??_R1A@?0A@EA@_Crt_new_delete@std@@8		; std::_Crt_new_delete::`RTTI Base Class Descriptor at (0,-1,0,64)'
PUBLIC	??_R4ctype_base@std@@6B@			; std::ctype_base::`RTTI Complete Object Locator'
PUBLIC	??_R0?AUctype_base@std@@@8			; std::ctype_base `RTTI Type Descriptor'
PUBLIC	??_R3ctype_base@std@@8				; std::ctype_base::`RTTI Class Hierarchy Descriptor'
PUBLIC	??_R2ctype_base@std@@8				; std::ctype_base::`RTTI Base Class Array'
PUBLIC	??_R1A@?0A@EA@ctype_base@std@@8			; std::ctype_base::`RTTI Base Class Descriptor at (0,-1,0,64)'
PUBLIC	??_R4?$ctype@D@std@@6B@				; std::ctype<char>::`RTTI Complete Object Locator'
PUBLIC	??_R0?AV?$ctype@D@std@@@8			; std::ctype<char> `RTTI Type Descriptor'
PUBLIC	??_R3?$ctype@D@std@@8				; std::ctype<char>::`RTTI Class Hierarchy Descriptor'
PUBLIC	??_R2?$ctype@D@std@@8				; std::ctype<char>::`RTTI Base Class Array'
PUBLIC	??_R1A@?0A@EA@?$ctype@D@std@@8			; std::ctype<char>::`RTTI Base Class Descriptor at (0,-1,0,64)'
PUBLIC	??_R4?$ctype@_W@std@@6B@			; std::ctype<wchar_t>::`RTTI Complete Object Locator'
PUBLIC	??_R0?AV?$ctype@_W@std@@@8			; std::ctype<wchar_t> `RTTI Type Descriptor'
PUBLIC	??_R3?$ctype@_W@std@@8				; std::ctype<wchar_t>::`RTTI Class Hierarchy Descriptor'
PUBLIC	??_R2?$ctype@_W@std@@8				; std::ctype<wchar_t>::`RTTI Base Class Array'
PUBLIC	??_R1A@?0A@EA@?$ctype@_W@std@@8			; std::ctype<wchar_t>::`RTTI Base Class Descriptor at (0,-1,0,64)'
PUBLIC	??_R4failure@ios_base@std@@6B@			; std::ios_base::failure::`RTTI Complete Object Locator'
PUBLIC	??_R3failure@ios_base@std@@8			; std::ios_base::failure::`RTTI Class Hierarchy Descriptor'
PUBLIC	??_R2failure@ios_base@std@@8			; std::ios_base::failure::`RTTI Base Class Array'
PUBLIC	??_R1A@?0A@EA@failure@ios_base@std@@8		; std::ios_base::failure::`RTTI Base Class Descriptor at (0,-1,0,64)'
PUBLIC	??_R4?$num_put@_WV?$ostreambuf_iterator@_WU?$char_traits@_W@std@@@std@@@std@@6B@ ; std::num_put<wchar_t,std::ostreambuf_iterator<wchar_t,std::char_traits<wchar_t> > >::`RTTI Complete Object Locator'
PUBLIC	??_R0?AV?$num_put@_WV?$ostreambuf_iterator@_WU?$char_traits@_W@std@@@std@@@std@@@8 ; std::num_put<wchar_t,std::ostreambuf_iterator<wchar_t,std::char_traits<wchar_t> > > `RTTI Type Descriptor'
PUBLIC	??_R3?$num_put@_WV?$ostreambuf_iterator@_WU?$char_traits@_W@std@@@std@@@std@@8 ; std::num_put<wchar_t,std::ostreambuf_iterator<wchar_t,std::char_traits<wchar_t> > >::`RTTI Class Hierarchy Descriptor'
PUBLIC	??_R2?$num_put@_WV?$ostreambuf_iterator@_WU?$char_traits@_W@std@@@std@@@std@@8 ; std::num_put<wchar_t,std::ostreambuf_iterator<wchar_t,std::char_traits<wchar_t> > >::`RTTI Base Class Array'
PUBLIC	??_R1A@?0A@EA@?$num_put@_WV?$ostreambuf_iterator@_WU?$char_traits@_W@std@@@std@@@std@@8 ; std::num_put<wchar_t,std::ostreambuf_iterator<wchar_t,std::char_traits<wchar_t> > >::`RTTI Base Class Descriptor at (0,-1,0,64)'
PUBLIC	??_R4?$num_get@DV?$istreambuf_iterator@DU?$char_traits@D@std@@@std@@@std@@6B@ ; std::num_get<char,std::istreambuf_iterator<char,std::char_traits<char> > >::`RTTI Complete Object Locator'
PUBLIC	??_R0?AV?$num_get@DV?$istreambuf_iterator@DU?$char_traits@D@std@@@std@@@std@@@8 ; std::num_get<char,std::istreambuf_iterator<char,std::char_traits<char> > > `RTTI Type Descriptor'
PUBLIC	??_R3?$num_get@DV?$istreambuf_iterator@DU?$char_traits@D@std@@@std@@@std@@8 ; std::num_get<char,std::istreambuf_iterator<char,std::char_traits<char> > >::`RTTI Class Hierarchy Descriptor'
PUBLIC	??_R2?$num_get@DV?$istreambuf_iterator@DU?$char_traits@D@std@@@std@@@std@@8 ; std::num_get<char,std::istreambuf_iterator<char,std::char_traits<char> > >::`RTTI Base Class Array'
PUBLIC	??_R1A@?0A@EA@?$num_get@DV?$istreambuf_iterator@DU?$char_traits@D@std@@@std@@@std@@8 ; std::num_get<char,std::istreambuf_iterator<char,std::char_traits<char> > >::`RTTI Base Class Descriptor at (0,-1,0,64)'
PUBLIC	??_R4?$numpunct@_W@std@@6B@			; std::numpunct<wchar_t>::`RTTI Complete Object Locator'
PUBLIC	??_R0?AV?$numpunct@_W@std@@@8			; std::numpunct<wchar_t> `RTTI Type Descriptor'
PUBLIC	??_R3?$numpunct@_W@std@@8			; std::numpunct<wchar_t>::`RTTI Class Hierarchy Descriptor'
PUBLIC	??_R2?$numpunct@_W@std@@8			; std::numpunct<wchar_t>::`RTTI Base Class Array'
PUBLIC	??_R1A@?0A@EA@?$numpunct@_W@std@@8		; std::numpunct<wchar_t>::`RTTI Base Class Descriptor at (0,-1,0,64)'
PUBLIC	??_R4?$numpunct@D@std@@6B@			; std::numpunct<char>::`RTTI Complete Object Locator'
PUBLIC	??_R0?AV?$numpunct@D@std@@@8			; std::numpunct<char> `RTTI Type Descriptor'
PUBLIC	??_R3?$numpunct@D@std@@8			; std::numpunct<char>::`RTTI Class Hierarchy Descriptor'
PUBLIC	??_R2?$numpunct@D@std@@8			; std::numpunct<char>::`RTTI Base Class Array'
PUBLIC	??_R1A@?0A@EA@?$numpunct@D@std@@8		; std::numpunct<char>::`RTTI Base Class Descriptor at (0,-1,0,64)'
PUBLIC	__real@4202a05f20000000
PUBLIC	__xmm@7fffffffffffffff7fffffffffffffff
EXTRN	??_M@YGXPAXIIP6EX0@Z@Z:PROC			; `eh vector destructor iterator'
EXTRN	__purecall:PROC
EXTRN	??2@YAPAXI@Z:PROC				; operator new
EXTRN	??3@YAXPAXI@Z:PROC				; operator delete
EXTRN	??_V@YAXPAX@Z:PROC				; operator delete[]
EXTRN	_atexit:PROC
EXTRN	__Init_thread_header:PROC
EXTRN	__Init_thread_abort:PROC
EXTRN	__Init_thread_footer:PROC
EXTRN	___std_terminate:PROC
EXTRN	__invoke_watson:PROC
EXTRN	_towlower:PROC
EXTRN	__errno:PROC
EXTRN	_strcspn:PROC
EXTRN	__imp__CreateFileW@28:PROC
EXTRN	__imp__GetFileSizeEx@8:PROC
EXTRN	__imp__WriteFile@20:PROC
EXTRN	__imp__CloseHandle@4:PROC
EXTRN	__imp__WaitForSingleObject@8:PROC
EXTRN	__imp__GetCurrentProcess@0:PROC
EXTRN	__imp__TerminateProcess@8:PROC
EXTRN	__imp__OpenProcessToken@12:PROC
EXTRN	__imp__OpenProcess@12:PROC
EXTRN	__imp__GetTokenInformation@20:PROC
EXTRN	__imp__LocalFree@4:PROC
EXTRN	__imp__CopyFileW@12:PROC
EXTRN	__imp__SetConsoleCtrlHandler@8:PROC
EXTRN	_calloc:PROC
EXTRN	_free:PROC
EXTRN	_malloc:PROC
EXTRN	_strtof:PROC
EXTRN	_strtod:PROC
EXTRN	??0_Lockit@std@@QAE@H@Z:PROC			; std::_Lockit::_Lockit
EXTRN	??1_Lockit@std@@QAE@XZ:PROC			; std::_Lockit::~_Lockit
EXTRN	_frexp:PROC
EXTRN	___stdio_common_vsprintf_s:PROC
EXTRN	___std_reverse_trivially_swappable_1:PROC
EXTRN	___std_find_trivial_1@12:PROC
EXTRN	___std_search_2@16:PROC
EXTRN	?_Xbad_alloc@std@@YAXXZ:PROC			; std::_Xbad_alloc
EXTRN	?_Xlength_error@std@@YAXPBD@Z:PROC		; std::_Xlength_error
EXTRN	?_Xout_of_range@std@@YAXPBD@Z:PROC		; std::_Xout_of_range
EXTRN	?_Xruntime_error@std@@YAXPBD@Z:PROC		; std::_Xruntime_error
EXTRN	?uncaught_exception@std@@YA_NXZ:PROC		; std::uncaught_exception
EXTRN	___std_exception_copy:PROC
EXTRN	___std_exception_destroy:PROC
EXTRN	??_Eexception@std@@UAEPAXI@Z:PROC		; std::exception::`vector deleting destructor'
EXTRN	??_Ebad_alloc@std@@UAEPAXI@Z:PROC		; std::bad_alloc::`vector deleting destructor'
EXTRN	??_Ebad_array_new_length@std@@UAEPAXI@Z:PROC	; std::bad_array_new_length::`vector deleting destructor'
EXTRN	__imp__GetNamedSecurityInfoW@32:PROC
EXTRN	_ConvertSidToStringSidW@8:PROC
EXTRN	_CreateToolhelp32Snapshot@8:PROC
EXTRN	_Process32FirstW@8:PROC
EXTRN	_Process32NextW@8:PROC
EXTRN	??_Eruntime_error@std@@UAEPAXI@Z:PROC		; std::runtime_error::`vector deleting destructor'
EXTRN	??_E_System_error@std@@UAEPAXI@Z:PROC		; std::_System_error::`vector deleting destructor'
EXTRN	??_Esystem_error@std@@UAEPAXI@Z:PROC		; std::system_error::`vector deleting destructor'
EXTRN	?_Syserror_map@std@@YAPBDH@Z:PROC		; std::_Syserror_map
EXTRN	??_E_Iostream_error_category2@std@@UAEPAXI@Z:PROC ; std::_Iostream_error_category2::`vector deleting destructor'
EXTRN	??_Ebad_cast@std@@UAEPAXI@Z:PROC		; std::bad_cast::`vector deleting destructor'
EXTRN	??_E_Facet_base@std@@UAEPAXI@Z:PROC		; std::_Facet_base::`vector deleting destructor'
EXTRN	?_Facet_Register@std@@YAXPAV_Facet_base@1@@Z:PROC ; std::_Facet_Register
EXTRN	_localeconv:PROC
EXTRN	__Getctype:PROC
EXTRN	__Getcvt:PROC
EXTRN	__Mbrtowc:PROC
EXTRN	__Tolower:PROC
EXTRN	__Toupper:PROC
EXTRN	__Wcrtomb:PROC
EXTRN	__Getwctype:PROC
EXTRN	__Getwctypes:PROC
EXTRN	__Towlower:PROC
EXTRN	__Towupper:PROC
EXTRN	?_Locinfo_ctor@_Locinfo@std@@SAXPAV12@PBD@Z:PROC ; std::_Locinfo::_Locinfo_ctor
EXTRN	?_Locinfo_dtor@_Locinfo@std@@SAXPAV12@@Z:PROC	; std::_Locinfo::_Locinfo_dtor
EXTRN	??_Efacet@locale@std@@MAEPAXI@Z:PROC		; std::locale::facet::`vector deleting destructor'
EXTRN	?_Init@locale@std@@CAPAV_Locimp@12@_N@Z:PROC	; std::locale::_Init
EXTRN	?_Getgloballocale@locale@std@@CAPAV_Locimp@12@XZ:PROC ; std::locale::_Getgloballocale
EXTRN	??_Ectype_base@std@@UAEPAXI@Z:PROC		; std::ctype_base::`vector deleting destructor'
EXTRN	??_E?$ctype@D@std@@MAEPAXI@Z:PROC		; std::ctype<char>::`vector deleting destructor'
EXTRN	??_E?$ctype@_W@std@@MAEPAXI@Z:PROC		; std::ctype<wchar_t>::`vector deleting destructor'
EXTRN	??_Efailure@ios_base@std@@UAEPAXI@Z:PROC	; std::ios_base::failure::`vector deleting destructor'
EXTRN	__Stolx:PROC
EXTRN	__Stoulx:PROC
EXTRN	__Stollx:PROC
EXTRN	__Stoullx:PROC
EXTRN	_K32GetModuleFileNameExW@16:PROC
EXTRN	?_Random_device@std@@YAIXZ:PROC			; std::_Random_device
EXTRN	?InstallService@@YA_NXZ:PROC			; InstallService
EXTRN	?UnloadDriver@@YA_NXZ:PROC			; UnloadDriver
EXTRN	?SendIoctl@@YA_NKPAXK@Z:PROC			; SendIoctl
EXTRN	??_E?$num_put@_WV?$ostreambuf_iterator@_WU?$char_traits@_W@std@@@std@@@std@@MAEPAXI@Z:PROC ; std::num_put<wchar_t,std::ostreambuf_iterator<wchar_t,std::char_traits<wchar_t> > >::`vector deleting destructor'
EXTRN	??_E?$num_get@DV?$istreambuf_iterator@DU?$char_traits@D@std@@@std@@@std@@MAEPAXI@Z:PROC ; std::num_get<char,std::istreambuf_iterator<char,std::char_traits<char> > >::`vector deleting destructor'
EXTRN	??_E?$numpunct@_W@std@@MAEPAXI@Z:PROC		; std::numpunct<wchar_t>::`vector deleting destructor'
EXTRN	??_E?$numpunct@D@std@@MAEPAXI@Z:PROC		; std::numpunct<char>::`vector deleting destructor'
EXTRN	@__security_check_cookie@4:PROC
EXTRN	__CxxThrowException@8:PROC
EXTRN	___CxxFrameHandler3:PROC
EXTRN	__chkstk:PROC
EXTRN	__dclass:PROC
EXTRN	__ldclass:PROC
EXTRN	_memcpy:PROC
EXTRN	_memmove:PROC
EXTRN	_memset:PROC
EXTRN	__Init_thread_epoch:DWORD
EXTRN	__Avx2WmemEnabled:DWORD
EXTRN	??_7type_info@@6B@:QWORD			; type_info::`vftable'
EXTRN	?_Id_cnt@id@locale@std@@0HA:DWORD		; std::locale::id::_Id_cnt
EXTRN	?id@?$ctype@D@std@@2V0locale@2@A:DWORD		; std::ctype<char>::id
EXTRN	?id@?$ctype@_W@std@@2V0locale@2@A:DWORD		; std::ctype<wchar_t>::id
EXTRN	?cin@std@@3V?$basic_istream@DU?$char_traits@D@std@@@1@A:BYTE ; std::cin
EXTRN	?cout@std@@3V?$basic_ostream@DU?$char_traits@D@std@@@1@A:BYTE ; std::cout
EXTRN	?wcout@std@@3V?$basic_ostream@_WU?$char_traits@_W@std@@@1@A:BYTE ; std::wcout
EXTRN	___security_cookie:DWORD
EXTRN	__fltused:DWORD
EXTRN	__tls_array:DWORD
EXTRN	__tls_index:DWORD
;	COMDAT ?_OptionsStorage@?1??__local_stdio_printf_options@@9@4_KA
_BSS	SEGMENT
?_OptionsStorage@?1??__local_stdio_printf_options@@9@4_KA DQ 01H DUP (?) ; `__local_stdio_printf_options'::`2'::_OptionsStorage
_BSS	ENDS
;	COMDAT ?allowedExecutables@?1??ListAndWipeProcess@@YAXXZ@4V?$vector@V?$basic_string@_WU?$char_traits@_W@std@@V?$allocator@_W@2@@std@@V?$allocator@V?$basic_string@_WU?$char_traits@_W@std@@V?$allocator@_W@2@@std@@@2@@std@@B
_BSS	SEGMENT
?allowedExecutables@?1??ListAndWipeProcess@@YAXXZ@4V?$vector@V?$basic_string@_WU?$char_traits@_W@std@@V?$allocator@_W@2@@std@@V?$allocator@V?$basic_string@_WU?$char_traits@_W@std@@V?$allocator@_W@2@@std@@@2@@std@@B DB 0cH DUP (?) ; `ListAndWipeProcess'::`2'::allowedExecutables
_BSS	ENDS
;	COMDAT ?$TSS0@?1??ListAndWipeProcess@@YAXXZ@4HA
_BSS	SEGMENT
?$TSS0@?1??ListAndWipeProcess@@YAXXZ@4HA DD 01H DUP (?)	; `ListAndWipeProcess'::`2'::$TSS0
_BSS	ENDS
;	COMDAT ?_Psave@?$_Facetptr@V?$ctype@D@std@@@std@@2PBVfacet@locale@2@B
_BSS	SEGMENT
?_Psave@?$_Facetptr@V?$ctype@D@std@@@std@@2PBVfacet@locale@2@B DD 01H DUP (?) ; std::_Facetptr<std::ctype<char> >::_Psave
_BSS	ENDS
;	COMDAT ?id@?$num_put@_WV?$ostreambuf_iterator@_WU?$char_traits@_W@std@@@std@@@std@@2V0locale@2@A
_BSS	SEGMENT
?id@?$num_put@_WV?$ostreambuf_iterator@_WU?$char_traits@_W@std@@@std@@@std@@2V0locale@2@A DD 01H DUP (?) ; std::num_put<wchar_t,std::ostreambuf_iterator<wchar_t,std::char_traits<wchar_t> > >::id
_BSS	ENDS
;	COMDAT ?_Psave@?$_Facetptr@V?$ctype@_W@std@@@std@@2PBVfacet@locale@2@B
_BSS	SEGMENT
?_Psave@?$_Facetptr@V?$ctype@_W@std@@@std@@2PBVfacet@locale@2@B DD 01H DUP (?) ; std::_Facetptr<std::ctype<wchar_t> >::_Psave
_BSS	ENDS
;	COMDAT ?_Psave@?$_Facetptr@V?$num_put@_WV?$ostreambuf_iterator@_WU?$char_traits@_W@std@@@std@@@std@@@std@@2PBVfacet@locale@2@B
_BSS	SEGMENT
?_Psave@?$_Facetptr@V?$num_put@_WV?$ostreambuf_iterator@_WU?$char_traits@_W@std@@@std@@@std@@@std@@2PBVfacet@locale@2@B DD 01H DUP (?) ; std::_Facetptr<std::num_put<wchar_t,std::ostreambuf_iterator<wchar_t,std::char_traits<wchar_t> > > >::_Psave
_BSS	ENDS
;	COMDAT ?id@?$num_get@DV?$istreambuf_iterator@DU?$char_traits@D@std@@@std@@@std@@2V0locale@2@A
_BSS	SEGMENT
?id@?$num_get@DV?$istreambuf_iterator@DU?$char_traits@D@std@@@std@@@std@@2V0locale@2@A DD 01H DUP (?) ; std::num_get<char,std::istreambuf_iterator<char,std::char_traits<char> > >::id
_BSS	ENDS
;	COMDAT ?id@?$numpunct@_W@std@@2V0locale@2@A
_BSS	SEGMENT
?id@?$numpunct@_W@std@@2V0locale@2@A DD 01H DUP (?)	; std::numpunct<wchar_t>::id
_BSS	ENDS
;	COMDAT ?_Psave@?$_Facetptr@V?$num_get@DV?$istreambuf_iterator@DU?$char_traits@D@std@@@std@@@std@@@std@@2PBVfacet@locale@2@B
_BSS	SEGMENT
?_Psave@?$_Facetptr@V?$num_get@DV?$istreambuf_iterator@DU?$char_traits@D@std@@@std@@@std@@@std@@2PBVfacet@locale@2@B DD 01H DUP (?) ; std::_Facetptr<std::num_get<char,std::istreambuf_iterator<char,std::char_traits<char> > > >::_Psave
_BSS	ENDS
;	COMDAT ?_Psave@?$_Facetptr@V?$numpunct@_W@std@@@std@@2PBVfacet@locale@2@B
_BSS	SEGMENT
?_Psave@?$_Facetptr@V?$numpunct@_W@std@@@std@@2PBVfacet@locale@2@B DD 01H DUP (?) ; std::_Facetptr<std::numpunct<wchar_t> >::_Psave
_BSS	ENDS
;	COMDAT ?id@?$numpunct@D@std@@2V0locale@2@A
_BSS	SEGMENT
?id@?$numpunct@D@std@@2V0locale@2@A DD 01H DUP (?)	; std::numpunct<char>::id
_BSS	ENDS
;	COMDAT ?_Psave@?$_Facetptr@V?$numpunct@D@std@@@std@@2PBVfacet@locale@2@B
_BSS	SEGMENT
?_Psave@?$_Facetptr@V?$numpunct@D@std@@@std@@2PBVfacet@locale@2@B DD 01H DUP (?) ; std::_Facetptr<std::numpunct<char> >::_Psave
_BSS	ENDS
;	COMDAT __xmm@7fffffffffffffff7fffffffffffffff
CONST	SEGMENT
__xmm@7fffffffffffffff7fffffffffffffff DB 0ffH, 0ffH, 0ffH, 0ffH, 0ffH, 0ffH
	DB	0ffH, 07fH, 0ffH, 0ffH, 0ffH, 0ffH, 0ffH, 0ffH, 0ffH, 07fH
CONST	ENDS
;	COMDAT __real@4202a05f20000000
CONST	SEGMENT
__real@4202a05f20000000 DQ 04202a05f20000000r	; 1e+10
CONST	ENDS
;	COMDAT ??_R1A@?0A@EA@?$numpunct@D@std@@8
rdata$r	SEGMENT
??_R1A@?0A@EA@?$numpunct@D@std@@8 DD FLAT:??_R0?AV?$numpunct@D@std@@@8 ; std::numpunct<char>::`RTTI Base Class Descriptor at (0,-1,0,64)'
	DD	03H
	DD	00H
	DD	0ffffffffH
	DD	00H
	DD	040H
	DD	FLAT:??_R3?$numpunct@D@std@@8
rdata$r	ENDS
;	COMDAT ??_R2?$numpunct@D@std@@8
rdata$r	SEGMENT
??_R2?$numpunct@D@std@@8 DD FLAT:??_R1A@?0A@EA@?$numpunct@D@std@@8 ; std::numpunct<char>::`RTTI Base Class Array'
	DD	FLAT:??_R1A@?0A@EA@facet@locale@std@@8
	DD	FLAT:??_R1A@?0A@EA@_Facet_base@std@@8
	DD	FLAT:??_R13?0A@EA@_Crt_new_delete@std@@8
rdata$r	ENDS
;	COMDAT ??_R3?$numpunct@D@std@@8
rdata$r	SEGMENT
??_R3?$numpunct@D@std@@8 DD 00H				; std::numpunct<char>::`RTTI Class Hierarchy Descriptor'
	DD	01H
	DD	04H
	DD	FLAT:??_R2?$numpunct@D@std@@8
rdata$r	ENDS
;	COMDAT ??_R0?AV?$numpunct@D@std@@@8
data$rs	SEGMENT
??_R0?AV?$numpunct@D@std@@@8 DD FLAT:??_7type_info@@6B@	; std::numpunct<char> `RTTI Type Descriptor'
	DD	00H
	DB	'.?AV?$numpunct@D@std@@', 00H
data$rs	ENDS
;	COMDAT ??_R4?$numpunct@D@std@@6B@
rdata$r	SEGMENT
??_R4?$numpunct@D@std@@6B@ DD 00H			; std::numpunct<char>::`RTTI Complete Object Locator'
	DD	00H
	DD	00H
	DD	FLAT:??_R0?AV?$numpunct@D@std@@@8
	DD	FLAT:??_R3?$numpunct@D@std@@8
rdata$r	ENDS
;	COMDAT ??_R1A@?0A@EA@?$numpunct@_W@std@@8
rdata$r	SEGMENT
??_R1A@?0A@EA@?$numpunct@_W@std@@8 DD FLAT:??_R0?AV?$numpunct@_W@std@@@8 ; std::numpunct<wchar_t>::`RTTI Base Class Descriptor at (0,-1,0,64)'
	DD	03H
	DD	00H
	DD	0ffffffffH
	DD	00H
	DD	040H
	DD	FLAT:??_R3?$numpunct@_W@std@@8
rdata$r	ENDS
;	COMDAT ??_R2?$numpunct@_W@std@@8
rdata$r	SEGMENT
??_R2?$numpunct@_W@std@@8 DD FLAT:??_R1A@?0A@EA@?$numpunct@_W@std@@8 ; std::numpunct<wchar_t>::`RTTI Base Class Array'
	DD	FLAT:??_R1A@?0A@EA@facet@locale@std@@8
	DD	FLAT:??_R1A@?0A@EA@_Facet_base@std@@8
	DD	FLAT:??_R13?0A@EA@_Crt_new_delete@std@@8
rdata$r	ENDS
;	COMDAT ??_R3?$numpunct@_W@std@@8
rdata$r	SEGMENT
??_R3?$numpunct@_W@std@@8 DD 00H			; std::numpunct<wchar_t>::`RTTI Class Hierarchy Descriptor'
	DD	01H
	DD	04H
	DD	FLAT:??_R2?$numpunct@_W@std@@8
rdata$r	ENDS
;	COMDAT ??_R0?AV?$numpunct@_W@std@@@8
data$rs	SEGMENT
??_R0?AV?$numpunct@_W@std@@@8 DD FLAT:??_7type_info@@6B@ ; std::numpunct<wchar_t> `RTTI Type Descriptor'
	DD	00H
	DB	'.?AV?$numpunct@_W@std@@', 00H
data$rs	ENDS
;	COMDAT ??_R4?$numpunct@_W@std@@6B@
rdata$r	SEGMENT
??_R4?$numpunct@_W@std@@6B@ DD 00H			; std::numpunct<wchar_t>::`RTTI Complete Object Locator'
	DD	00H
	DD	00H
	DD	FLAT:??_R0?AV?$numpunct@_W@std@@@8
	DD	FLAT:??_R3?$numpunct@_W@std@@8
rdata$r	ENDS
;	COMDAT ??_R1A@?0A@EA@?$num_get@DV?$istreambuf_iterator@DU?$char_traits@D@std@@@std@@@std@@8
rdata$r	SEGMENT
??_R1A@?0A@EA@?$num_get@DV?$istreambuf_iterator@DU?$char_traits@D@std@@@std@@@std@@8 DD FLAT:??_R0?AV?$num_get@DV?$istreambuf_iterator@DU?$char_traits@D@std@@@std@@@std@@@8 ; std::num_get<char,std::istreambuf_iterator<char,std::char_traits<char> > >::`RTTI Base Class Descriptor at (0,-1,0,64)'
	DD	03H
	DD	00H
	DD	0ffffffffH
	DD	00H
	DD	040H
	DD	FLAT:??_R3?$num_get@DV?$istreambuf_iterator@DU?$char_traits@D@std@@@std@@@std@@8
rdata$r	ENDS
;	COMDAT ??_R2?$num_get@DV?$istreambuf_iterator@DU?$char_traits@D@std@@@std@@@std@@8
rdata$r	SEGMENT
??_R2?$num_get@DV?$istreambuf_iterator@DU?$char_traits@D@std@@@std@@@std@@8 DD FLAT:??_R1A@?0A@EA@?$num_get@DV?$istreambuf_iterator@DU?$char_traits@D@std@@@std@@@std@@8 ; std::num_get<char,std::istreambuf_iterator<char,std::char_traits<char> > >::`RTTI Base Class Array'
	DD	FLAT:??_R1A@?0A@EA@facet@locale@std@@8
	DD	FLAT:??_R1A@?0A@EA@_Facet_base@std@@8
	DD	FLAT:??_R13?0A@EA@_Crt_new_delete@std@@8
rdata$r	ENDS
;	COMDAT ??_R3?$num_get@DV?$istreambuf_iterator@DU?$char_traits@D@std@@@std@@@std@@8
rdata$r	SEGMENT
??_R3?$num_get@DV?$istreambuf_iterator@DU?$char_traits@D@std@@@std@@@std@@8 DD 00H ; std::num_get<char,std::istreambuf_iterator<char,std::char_traits<char> > >::`RTTI Class Hierarchy Descriptor'
	DD	01H
	DD	04H
	DD	FLAT:??_R2?$num_get@DV?$istreambuf_iterator@DU?$char_traits@D@std@@@std@@@std@@8
rdata$r	ENDS
;	COMDAT ??_R0?AV?$num_get@DV?$istreambuf_iterator@DU?$char_traits@D@std@@@std@@@std@@@8
data$rs	SEGMENT
??_R0?AV?$num_get@DV?$istreambuf_iterator@DU?$char_traits@D@std@@@std@@@std@@@8 DD FLAT:??_7type_info@@6B@ ; std::num_get<char,std::istreambuf_iterator<char,std::char_traits<char> > > `RTTI Type Descriptor'
	DD	00H
	DB	'.?AV?$num_get@DV?$istreambuf_iterator@DU?$char_traits@D@'
	DB	'std@@@std@@@std@@', 00H
data$rs	ENDS
;	COMDAT ??_R4?$num_get@DV?$istreambuf_iterator@DU?$char_traits@D@std@@@std@@@std@@6B@
rdata$r	SEGMENT
??_R4?$num_get@DV?$istreambuf_iterator@DU?$char_traits@D@std@@@std@@@std@@6B@ DD 00H ; std::num_get<char,std::istreambuf_iterator<char,std::char_traits<char> > >::`RTTI Complete Object Locator'
	DD	00H
	DD	00H
	DD	FLAT:??_R0?AV?$num_get@DV?$istreambuf_iterator@DU?$char_traits@D@std@@@std@@@std@@@8
	DD	FLAT:??_R3?$num_get@DV?$istreambuf_iterator@DU?$char_traits@D@std@@@std@@@std@@8
rdata$r	ENDS
;	COMDAT ??_R1A@?0A@EA@?$num_put@_WV?$ostreambuf_iterator@_WU?$char_traits@_W@std@@@std@@@std@@8
rdata$r	SEGMENT
??_R1A@?0A@EA@?$num_put@_WV?$ostreambuf_iterator@_WU?$char_traits@_W@std@@@std@@@std@@8 DD FLAT:??_R0?AV?$num_put@_WV?$ostreambuf_iterator@_WU?$char_traits@_W@std@@@std@@@std@@@8 ; std::num_put<wchar_t,std::ostreambuf_iterator<wchar_t,std::char_traits<wchar_t> > >::`RTTI Base Class Descriptor at (0,-1,0,64)'
	DD	03H
	DD	00H
	DD	0ffffffffH
	DD	00H
	DD	040H
	DD	FLAT:??_R3?$num_put@_WV?$ostreambuf_iterator@_WU?$char_traits@_W@std@@@std@@@std@@8
rdata$r	ENDS
;	COMDAT ??_R2?$num_put@_WV?$ostreambuf_iterator@_WU?$char_traits@_W@std@@@std@@@std@@8
rdata$r	SEGMENT
??_R2?$num_put@_WV?$ostreambuf_iterator@_WU?$char_traits@_W@std@@@std@@@std@@8 DD FLAT:??_R1A@?0A@EA@?$num_put@_WV?$ostreambuf_iterator@_WU?$char_traits@_W@std@@@std@@@std@@8 ; std::num_put<wchar_t,std::ostreambuf_iterator<wchar_t,std::char_traits<wchar_t> > >::`RTTI Base Class Array'
	DD	FLAT:??_R1A@?0A@EA@facet@locale@std@@8
	DD	FLAT:??_R1A@?0A@EA@_Facet_base@std@@8
	DD	FLAT:??_R13?0A@EA@_Crt_new_delete@std@@8
rdata$r	ENDS
;	COMDAT ??_R3?$num_put@_WV?$ostreambuf_iterator@_WU?$char_traits@_W@std@@@std@@@std@@8
rdata$r	SEGMENT
??_R3?$num_put@_WV?$ostreambuf_iterator@_WU?$char_traits@_W@std@@@std@@@std@@8 DD 00H ; std::num_put<wchar_t,std::ostreambuf_iterator<wchar_t,std::char_traits<wchar_t> > >::`RTTI Class Hierarchy Descriptor'
	DD	01H
	DD	04H
	DD	FLAT:??_R2?$num_put@_WV?$ostreambuf_iterator@_WU?$char_traits@_W@std@@@std@@@std@@8
rdata$r	ENDS
;	COMDAT ??_R0?AV?$num_put@_WV?$ostreambuf_iterator@_WU?$char_traits@_W@std@@@std@@@std@@@8
data$rs	SEGMENT
??_R0?AV?$num_put@_WV?$ostreambuf_iterator@_WU?$char_traits@_W@std@@@std@@@std@@@8 DD FLAT:??_7type_info@@6B@ ; std::num_put<wchar_t,std::ostreambuf_iterator<wchar_t,std::char_traits<wchar_t> > > `RTTI Type Descriptor'
	DD	00H
	DB	'.?AV?$num_put@_WV?$ostreambuf_iterator@_WU?$char_traits@'
	DB	'_W@std@@@std@@@std@@', 00H
data$rs	ENDS
;	COMDAT ??_R4?$num_put@_WV?$ostreambuf_iterator@_WU?$char_traits@_W@std@@@std@@@std@@6B@
rdata$r	SEGMENT
??_R4?$num_put@_WV?$ostreambuf_iterator@_WU?$char_traits@_W@std@@@std@@@std@@6B@ DD 00H ; std::num_put<wchar_t,std::ostreambuf_iterator<wchar_t,std::char_traits<wchar_t> > >::`RTTI Complete Object Locator'
	DD	00H
	DD	00H
	DD	FLAT:??_R0?AV?$num_put@_WV?$ostreambuf_iterator@_WU?$char_traits@_W@std@@@std@@@std@@@8
	DD	FLAT:??_R3?$num_put@_WV?$ostreambuf_iterator@_WU?$char_traits@_W@std@@@std@@@std@@8
rdata$r	ENDS
;	COMDAT ??_R1A@?0A@EA@failure@ios_base@std@@8
rdata$r	SEGMENT
??_R1A@?0A@EA@failure@ios_base@std@@8 DD FLAT:??_R0?AVfailure@ios_base@std@@@8 ; std::ios_base::failure::`RTTI Base Class Descriptor at (0,-1,0,64)'
	DD	04H
	DD	00H
	DD	0ffffffffH
	DD	00H
	DD	040H
	DD	FLAT:??_R3failure@ios_base@std@@8
rdata$r	ENDS
;	COMDAT ??_R2failure@ios_base@std@@8
rdata$r	SEGMENT
??_R2failure@ios_base@std@@8 DD FLAT:??_R1A@?0A@EA@failure@ios_base@std@@8 ; std::ios_base::failure::`RTTI Base Class Array'
	DD	FLAT:??_R1A@?0A@EA@system_error@std@@8
	DD	FLAT:??_R1A@?0A@EA@_System_error@std@@8
	DD	FLAT:??_R1A@?0A@EA@runtime_error@std@@8
	DD	FLAT:??_R1A@?0A@EA@exception@std@@8
rdata$r	ENDS
;	COMDAT ??_R3failure@ios_base@std@@8
rdata$r	SEGMENT
??_R3failure@ios_base@std@@8 DD 00H			; std::ios_base::failure::`RTTI Class Hierarchy Descriptor'
	DD	00H
	DD	05H
	DD	FLAT:??_R2failure@ios_base@std@@8
rdata$r	ENDS
;	COMDAT ??_R4failure@ios_base@std@@6B@
rdata$r	SEGMENT
??_R4failure@ios_base@std@@6B@ DD 00H			; std::ios_base::failure::`RTTI Complete Object Locator'
	DD	00H
	DD	00H
	DD	FLAT:??_R0?AVfailure@ios_base@std@@@8
	DD	FLAT:??_R3failure@ios_base@std@@8
rdata$r	ENDS
;	COMDAT ??_R1A@?0A@EA@?$ctype@_W@std@@8
rdata$r	SEGMENT
??_R1A@?0A@EA@?$ctype@_W@std@@8 DD FLAT:??_R0?AV?$ctype@_W@std@@@8 ; std::ctype<wchar_t>::`RTTI Base Class Descriptor at (0,-1,0,64)'
	DD	04H
	DD	00H
	DD	0ffffffffH
	DD	00H
	DD	040H
	DD	FLAT:??_R3?$ctype@_W@std@@8
rdata$r	ENDS
;	COMDAT ??_R2?$ctype@_W@std@@8
rdata$r	SEGMENT
??_R2?$ctype@_W@std@@8 DD FLAT:??_R1A@?0A@EA@?$ctype@_W@std@@8 ; std::ctype<wchar_t>::`RTTI Base Class Array'
	DD	FLAT:??_R1A@?0A@EA@ctype_base@std@@8
	DD	FLAT:??_R1A@?0A@EA@facet@locale@std@@8
	DD	FLAT:??_R1A@?0A@EA@_Facet_base@std@@8
	DD	FLAT:??_R13?0A@EA@_Crt_new_delete@std@@8
rdata$r	ENDS
;	COMDAT ??_R3?$ctype@_W@std@@8
rdata$r	SEGMENT
??_R3?$ctype@_W@std@@8 DD 00H				; std::ctype<wchar_t>::`RTTI Class Hierarchy Descriptor'
	DD	01H
	DD	05H
	DD	FLAT:??_R2?$ctype@_W@std@@8
rdata$r	ENDS
;	COMDAT ??_R0?AV?$ctype@_W@std@@@8
data$rs	SEGMENT
??_R0?AV?$ctype@_W@std@@@8 DD FLAT:??_7type_info@@6B@	; std::ctype<wchar_t> `RTTI Type Descriptor'
	DD	00H
	DB	'.?AV?$ctype@_W@std@@', 00H
data$rs	ENDS
;	COMDAT ??_R4?$ctype@_W@std@@6B@
rdata$r	SEGMENT
??_R4?$ctype@_W@std@@6B@ DD 00H				; std::ctype<wchar_t>::`RTTI Complete Object Locator'
	DD	00H
	DD	00H
	DD	FLAT:??_R0?AV?$ctype@_W@std@@@8
	DD	FLAT:??_R3?$ctype@_W@std@@8
rdata$r	ENDS
;	COMDAT ??_R1A@?0A@EA@?$ctype@D@std@@8
rdata$r	SEGMENT
??_R1A@?0A@EA@?$ctype@D@std@@8 DD FLAT:??_R0?AV?$ctype@D@std@@@8 ; std::ctype<char>::`RTTI Base Class Descriptor at (0,-1,0,64)'
	DD	04H
	DD	00H
	DD	0ffffffffH
	DD	00H
	DD	040H
	DD	FLAT:??_R3?$ctype@D@std@@8
rdata$r	ENDS
;	COMDAT ??_R2?$ctype@D@std@@8
rdata$r	SEGMENT
??_R2?$ctype@D@std@@8 DD FLAT:??_R1A@?0A@EA@?$ctype@D@std@@8 ; std::ctype<char>::`RTTI Base Class Array'
	DD	FLAT:??_R1A@?0A@EA@ctype_base@std@@8
	DD	FLAT:??_R1A@?0A@EA@facet@locale@std@@8
	DD	FLAT:??_R1A@?0A@EA@_Facet_base@std@@8
	DD	FLAT:??_R13?0A@EA@_Crt_new_delete@std@@8
rdata$r	ENDS
;	COMDAT ??_R3?$ctype@D@std@@8
rdata$r	SEGMENT
??_R3?$ctype@D@std@@8 DD 00H				; std::ctype<char>::`RTTI Class Hierarchy Descriptor'
	DD	01H
	DD	05H
	DD	FLAT:??_R2?$ctype@D@std@@8
rdata$r	ENDS
;	COMDAT ??_R0?AV?$ctype@D@std@@@8
data$rs	SEGMENT
??_R0?AV?$ctype@D@std@@@8 DD FLAT:??_7type_info@@6B@	; std::ctype<char> `RTTI Type Descriptor'
	DD	00H
	DB	'.?AV?$ctype@D@std@@', 00H
data$rs	ENDS
;	COMDAT ??_R4?$ctype@D@std@@6B@
rdata$r	SEGMENT
??_R4?$ctype@D@std@@6B@ DD 00H				; std::ctype<char>::`RTTI Complete Object Locator'
	DD	00H
	DD	00H
	DD	FLAT:??_R0?AV?$ctype@D@std@@@8
	DD	FLAT:??_R3?$ctype@D@std@@8
rdata$r	ENDS
;	COMDAT ??_R1A@?0A@EA@ctype_base@std@@8
rdata$r	SEGMENT
??_R1A@?0A@EA@ctype_base@std@@8 DD FLAT:??_R0?AUctype_base@std@@@8 ; std::ctype_base::`RTTI Base Class Descriptor at (0,-1,0,64)'
	DD	03H
	DD	00H
	DD	0ffffffffH
	DD	00H
	DD	040H
	DD	FLAT:??_R3ctype_base@std@@8
rdata$r	ENDS
;	COMDAT ??_R2ctype_base@std@@8
rdata$r	SEGMENT
??_R2ctype_base@std@@8 DD FLAT:??_R1A@?0A@EA@ctype_base@std@@8 ; std::ctype_base::`RTTI Base Class Array'
	DD	FLAT:??_R1A@?0A@EA@facet@locale@std@@8
	DD	FLAT:??_R1A@?0A@EA@_Facet_base@std@@8
	DD	FLAT:??_R13?0A@EA@_Crt_new_delete@std@@8
rdata$r	ENDS
;	COMDAT ??_R3ctype_base@std@@8
rdata$r	SEGMENT
??_R3ctype_base@std@@8 DD 00H				; std::ctype_base::`RTTI Class Hierarchy Descriptor'
	DD	01H
	DD	04H
	DD	FLAT:??_R2ctype_base@std@@8
rdata$r	ENDS
;	COMDAT ??_R0?AUctype_base@std@@@8
data$rs	SEGMENT
??_R0?AUctype_base@std@@@8 DD FLAT:??_7type_info@@6B@	; std::ctype_base `RTTI Type Descriptor'
	DD	00H
	DB	'.?AUctype_base@std@@', 00H
data$rs	ENDS
;	COMDAT ??_R4ctype_base@std@@6B@
rdata$r	SEGMENT
??_R4ctype_base@std@@6B@ DD 00H				; std::ctype_base::`RTTI Complete Object Locator'
	DD	00H
	DD	00H
	DD	FLAT:??_R0?AUctype_base@std@@@8
	DD	FLAT:??_R3ctype_base@std@@8
rdata$r	ENDS
;	COMDAT ??_R1A@?0A@EA@_Crt_new_delete@std@@8
rdata$r	SEGMENT
??_R1A@?0A@EA@_Crt_new_delete@std@@8 DD FLAT:??_R0?AU_Crt_new_delete@std@@@8 ; std::_Crt_new_delete::`RTTI Base Class Descriptor at (0,-1,0,64)'
	DD	00H
	DD	00H
	DD	0ffffffffH
	DD	00H
	DD	040H
	DD	FLAT:??_R3_Crt_new_delete@std@@8
rdata$r	ENDS
;	COMDAT ??_R2_Crt_new_delete@std@@8
rdata$r	SEGMENT
??_R2_Crt_new_delete@std@@8 DD FLAT:??_R1A@?0A@EA@_Crt_new_delete@std@@8 ; std::_Crt_new_delete::`RTTI Base Class Array'
rdata$r	ENDS
;	COMDAT ??_R3_Crt_new_delete@std@@8
rdata$r	SEGMENT
??_R3_Crt_new_delete@std@@8 DD 00H			; std::_Crt_new_delete::`RTTI Class Hierarchy Descriptor'
	DD	00H
	DD	01H
	DD	FLAT:??_R2_Crt_new_delete@std@@8
rdata$r	ENDS
;	COMDAT ??_R0?AU_Crt_new_delete@std@@@8
data$rs	SEGMENT
??_R0?AU_Crt_new_delete@std@@@8 DD FLAT:??_7type_info@@6B@ ; std::_Crt_new_delete `RTTI Type Descriptor'
	DD	00H
	DB	'.?AU_Crt_new_delete@std@@', 00H
data$rs	ENDS
;	COMDAT ??_R13?0A@EA@_Crt_new_delete@std@@8
rdata$r	SEGMENT
??_R13?0A@EA@_Crt_new_delete@std@@8 DD FLAT:??_R0?AU_Crt_new_delete@std@@@8 ; std::_Crt_new_delete::`RTTI Base Class Descriptor at (4,-1,0,64)'
	DD	00H
	DD	04H
	DD	0ffffffffH
	DD	00H
	DD	040H
	DD	FLAT:??_R3_Crt_new_delete@std@@8
rdata$r	ENDS
;	COMDAT ??_R1A@?0A@EA@facet@locale@std@@8
rdata$r	SEGMENT
??_R1A@?0A@EA@facet@locale@std@@8 DD FLAT:??_R0?AVfacet@locale@std@@@8 ; std::locale::facet::`RTTI Base Class Descriptor at (0,-1,0,64)'
	DD	02H
	DD	00H
	DD	0ffffffffH
	DD	00H
	DD	040H
	DD	FLAT:??_R3facet@locale@std@@8
rdata$r	ENDS
;	COMDAT ??_R2facet@locale@std@@8
rdata$r	SEGMENT
??_R2facet@locale@std@@8 DD FLAT:??_R1A@?0A@EA@facet@locale@std@@8 ; std::locale::facet::`RTTI Base Class Array'
	DD	FLAT:??_R1A@?0A@EA@_Facet_base@std@@8
	DD	FLAT:??_R13?0A@EA@_Crt_new_delete@std@@8
rdata$r	ENDS
;	COMDAT ??_R3facet@locale@std@@8
rdata$r	SEGMENT
??_R3facet@locale@std@@8 DD 00H				; std::locale::facet::`RTTI Class Hierarchy Descriptor'
	DD	01H
	DD	03H
	DD	FLAT:??_R2facet@locale@std@@8
rdata$r	ENDS
;	COMDAT ??_R0?AVfacet@locale@std@@@8
data$rs	SEGMENT
??_R0?AVfacet@locale@std@@@8 DD FLAT:??_7type_info@@6B@	; std::locale::facet `RTTI Type Descriptor'
	DD	00H
	DB	'.?AVfacet@locale@std@@', 00H
data$rs	ENDS
;	COMDAT ??_R4facet@locale@std@@6B@
rdata$r	SEGMENT
??_R4facet@locale@std@@6B@ DD 00H			; std::locale::facet::`RTTI Complete Object Locator'
	DD	00H
	DD	00H
	DD	FLAT:??_R0?AVfacet@locale@std@@@8
	DD	FLAT:??_R3facet@locale@std@@8
rdata$r	ENDS
;	COMDAT ??_R1A@?0A@EA@_Facet_base@std@@8
rdata$r	SEGMENT
??_R1A@?0A@EA@_Facet_base@std@@8 DD FLAT:??_R0?AV_Facet_base@std@@@8 ; std::_Facet_base::`RTTI Base Class Descriptor at (0,-1,0,64)'
	DD	00H
	DD	00H
	DD	0ffffffffH
	DD	00H
	DD	040H
	DD	FLAT:??_R3_Facet_base@std@@8
rdata$r	ENDS
;	COMDAT ??_R2_Facet_base@std@@8
rdata$r	SEGMENT
??_R2_Facet_base@std@@8 DD FLAT:??_R1A@?0A@EA@_Facet_base@std@@8 ; std::_Facet_base::`RTTI Base Class Array'
rdata$r	ENDS
;	COMDAT ??_R3_Facet_base@std@@8
rdata$r	SEGMENT
??_R3_Facet_base@std@@8 DD 00H				; std::_Facet_base::`RTTI Class Hierarchy Descriptor'
	DD	00H
	DD	01H
	DD	FLAT:??_R2_Facet_base@std@@8
rdata$r	ENDS
;	COMDAT ??_R0?AV_Facet_base@std@@@8
data$rs	SEGMENT
??_R0?AV_Facet_base@std@@@8 DD FLAT:??_7type_info@@6B@	; std::_Facet_base `RTTI Type Descriptor'
	DD	00H
	DB	'.?AV_Facet_base@std@@', 00H
data$rs	ENDS
;	COMDAT ??_R4_Facet_base@std@@6B@
rdata$r	SEGMENT
??_R4_Facet_base@std@@6B@ DD 00H			; std::_Facet_base::`RTTI Complete Object Locator'
	DD	00H
	DD	00H
	DD	FLAT:??_R0?AV_Facet_base@std@@@8
	DD	FLAT:??_R3_Facet_base@std@@8
rdata$r	ENDS
;	COMDAT ??_R1A@?0A@EA@bad_cast@std@@8
rdata$r	SEGMENT
??_R1A@?0A@EA@bad_cast@std@@8 DD FLAT:??_R0?AVbad_cast@std@@@8 ; std::bad_cast::`RTTI Base Class Descriptor at (0,-1,0,64)'
	DD	01H
	DD	00H
	DD	0ffffffffH
	DD	00H
	DD	040H
	DD	FLAT:??_R3bad_cast@std@@8
rdata$r	ENDS
;	COMDAT ??_R2bad_cast@std@@8
rdata$r	SEGMENT
??_R2bad_cast@std@@8 DD FLAT:??_R1A@?0A@EA@bad_cast@std@@8 ; std::bad_cast::`RTTI Base Class Array'
	DD	FLAT:??_R1A@?0A@EA@exception@std@@8
rdata$r	ENDS
;	COMDAT ??_R3bad_cast@std@@8
rdata$r	SEGMENT
??_R3bad_cast@std@@8 DD 00H				; std::bad_cast::`RTTI Class Hierarchy Descriptor'
	DD	00H
	DD	02H
	DD	FLAT:??_R2bad_cast@std@@8
rdata$r	ENDS
;	COMDAT ??_R4bad_cast@std@@6B@
rdata$r	SEGMENT
??_R4bad_cast@std@@6B@ DD 00H				; std::bad_cast::`RTTI Complete Object Locator'
	DD	00H
	DD	00H
	DD	FLAT:??_R0?AVbad_cast@std@@@8
	DD	FLAT:??_R3bad_cast@std@@8
rdata$r	ENDS
;	COMDAT ??_R1A@?0A@EA@_Iostream_error_category2@std@@8
rdata$r	SEGMENT
??_R1A@?0A@EA@_Iostream_error_category2@std@@8 DD FLAT:??_R0?AV_Iostream_error_category2@std@@@8 ; std::_Iostream_error_category2::`RTTI Base Class Descriptor at (0,-1,0,64)'
	DD	01H
	DD	00H
	DD	0ffffffffH
	DD	00H
	DD	040H
	DD	FLAT:??_R3_Iostream_error_category2@std@@8
rdata$r	ENDS
;	COMDAT ??_R2_Iostream_error_category2@std@@8
rdata$r	SEGMENT
??_R2_Iostream_error_category2@std@@8 DD FLAT:??_R1A@?0A@EA@_Iostream_error_category2@std@@8 ; std::_Iostream_error_category2::`RTTI Base Class Array'
	DD	FLAT:??_R1A@?0A@EA@error_category@std@@8
rdata$r	ENDS
;	COMDAT ??_R3_Iostream_error_category2@std@@8
rdata$r	SEGMENT
??_R3_Iostream_error_category2@std@@8 DD 00H		; std::_Iostream_error_category2::`RTTI Class Hierarchy Descriptor'
	DD	00H
	DD	02H
	DD	FLAT:??_R2_Iostream_error_category2@std@@8
rdata$r	ENDS
;	COMDAT ??_R0?AV_Iostream_error_category2@std@@@8
data$rs	SEGMENT
??_R0?AV_Iostream_error_category2@std@@@8 DD FLAT:??_7type_info@@6B@ ; std::_Iostream_error_category2 `RTTI Type Descriptor'
	DD	00H
	DB	'.?AV_Iostream_error_category2@std@@', 00H
data$rs	ENDS
;	COMDAT ??_R4_Iostream_error_category2@std@@6B@
rdata$r	SEGMENT
??_R4_Iostream_error_category2@std@@6B@ DD 00H		; std::_Iostream_error_category2::`RTTI Complete Object Locator'
	DD	00H
	DD	00H
	DD	FLAT:??_R0?AV_Iostream_error_category2@std@@@8
	DD	FLAT:??_R3_Iostream_error_category2@std@@8
rdata$r	ENDS
;	COMDAT ??_R1A@?0A@EA@system_error@std@@8
rdata$r	SEGMENT
??_R1A@?0A@EA@system_error@std@@8 DD FLAT:??_R0?AVsystem_error@std@@@8 ; std::system_error::`RTTI Base Class Descriptor at (0,-1,0,64)'
	DD	03H
	DD	00H
	DD	0ffffffffH
	DD	00H
	DD	040H
	DD	FLAT:??_R3system_error@std@@8
rdata$r	ENDS
;	COMDAT ??_R2system_error@std@@8
rdata$r	SEGMENT
??_R2system_error@std@@8 DD FLAT:??_R1A@?0A@EA@system_error@std@@8 ; std::system_error::`RTTI Base Class Array'
	DD	FLAT:??_R1A@?0A@EA@_System_error@std@@8
	DD	FLAT:??_R1A@?0A@EA@runtime_error@std@@8
	DD	FLAT:??_R1A@?0A@EA@exception@std@@8
rdata$r	ENDS
;	COMDAT ??_R3system_error@std@@8
rdata$r	SEGMENT
??_R3system_error@std@@8 DD 00H				; std::system_error::`RTTI Class Hierarchy Descriptor'
	DD	00H
	DD	04H
	DD	FLAT:??_R2system_error@std@@8
rdata$r	ENDS
;	COMDAT ??_R4system_error@std@@6B@
rdata$r	SEGMENT
??_R4system_error@std@@6B@ DD 00H			; std::system_error::`RTTI Complete Object Locator'
	DD	00H
	DD	00H
	DD	FLAT:??_R0?AVsystem_error@std@@@8
	DD	FLAT:??_R3system_error@std@@8
rdata$r	ENDS
;	COMDAT ??_R1A@?0A@EA@_System_error@std@@8
rdata$r	SEGMENT
??_R1A@?0A@EA@_System_error@std@@8 DD FLAT:??_R0?AV_System_error@std@@@8 ; std::_System_error::`RTTI Base Class Descriptor at (0,-1,0,64)'
	DD	02H
	DD	00H
	DD	0ffffffffH
	DD	00H
	DD	040H
	DD	FLAT:??_R3_System_error@std@@8
rdata$r	ENDS
;	COMDAT ??_R2_System_error@std@@8
rdata$r	SEGMENT
??_R2_System_error@std@@8 DD FLAT:??_R1A@?0A@EA@_System_error@std@@8 ; std::_System_error::`RTTI Base Class Array'
	DD	FLAT:??_R1A@?0A@EA@runtime_error@std@@8
	DD	FLAT:??_R1A@?0A@EA@exception@std@@8
rdata$r	ENDS
;	COMDAT ??_R3_System_error@std@@8
rdata$r	SEGMENT
??_R3_System_error@std@@8 DD 00H			; std::_System_error::`RTTI Class Hierarchy Descriptor'
	DD	00H
	DD	03H
	DD	FLAT:??_R2_System_error@std@@8
rdata$r	ENDS
;	COMDAT ??_R4_System_error@std@@6B@
rdata$r	SEGMENT
??_R4_System_error@std@@6B@ DD 00H			; std::_System_error::`RTTI Complete Object Locator'
	DD	00H
	DD	00H
	DD	FLAT:??_R0?AV_System_error@std@@@8
	DD	FLAT:??_R3_System_error@std@@8
rdata$r	ENDS
;	COMDAT ??_R1A@?0A@EA@error_category@std@@8
rdata$r	SEGMENT
??_R1A@?0A@EA@error_category@std@@8 DD FLAT:??_R0?AVerror_category@std@@@8 ; std::error_category::`RTTI Base Class Descriptor at (0,-1,0,64)'
	DD	00H
	DD	00H
	DD	0ffffffffH
	DD	00H
	DD	040H
	DD	FLAT:??_R3error_category@std@@8
rdata$r	ENDS
;	COMDAT ??_R2error_category@std@@8
rdata$r	SEGMENT
??_R2error_category@std@@8 DD FLAT:??_R1A@?0A@EA@error_category@std@@8 ; std::error_category::`RTTI Base Class Array'
rdata$r	ENDS
;	COMDAT ??_R3error_category@std@@8
rdata$r	SEGMENT
??_R3error_category@std@@8 DD 00H			; std::error_category::`RTTI Class Hierarchy Descriptor'
	DD	00H
	DD	01H
	DD	FLAT:??_R2error_category@std@@8
rdata$r	ENDS
;	COMDAT ??_R0?AVerror_category@std@@@8
data$rs	SEGMENT
??_R0?AVerror_category@std@@@8 DD FLAT:??_7type_info@@6B@ ; std::error_category `RTTI Type Descriptor'
	DD	00H
	DB	'.?AVerror_category@std@@', 00H
data$rs	ENDS
;	COMDAT ??_R1A@?0A@EA@runtime_error@std@@8
rdata$r	SEGMENT
??_R1A@?0A@EA@runtime_error@std@@8 DD FLAT:??_R0?AVruntime_error@std@@@8 ; std::runtime_error::`RTTI Base Class Descriptor at (0,-1,0,64)'
	DD	01H
	DD	00H
	DD	0ffffffffH
	DD	00H
	DD	040H
	DD	FLAT:??_R3runtime_error@std@@8
rdata$r	ENDS
;	COMDAT ??_R2runtime_error@std@@8
rdata$r	SEGMENT
??_R2runtime_error@std@@8 DD FLAT:??_R1A@?0A@EA@runtime_error@std@@8 ; std::runtime_error::`RTTI Base Class Array'
	DD	FLAT:??_R1A@?0A@EA@exception@std@@8
rdata$r	ENDS
;	COMDAT ??_R3runtime_error@std@@8
rdata$r	SEGMENT
??_R3runtime_error@std@@8 DD 00H			; std::runtime_error::`RTTI Class Hierarchy Descriptor'
	DD	00H
	DD	02H
	DD	FLAT:??_R2runtime_error@std@@8
rdata$r	ENDS
;	COMDAT ??_R4runtime_error@std@@6B@
rdata$r	SEGMENT
??_R4runtime_error@std@@6B@ DD 00H			; std::runtime_error::`RTTI Complete Object Locator'
	DD	00H
	DD	00H
	DD	FLAT:??_R0?AVruntime_error@std@@@8
	DD	FLAT:??_R3runtime_error@std@@8
rdata$r	ENDS
;	COMDAT ??_R4bad_alloc@std@@6B@
rdata$r	SEGMENT
??_R4bad_alloc@std@@6B@ DD 00H				; std::bad_alloc::`RTTI Complete Object Locator'
	DD	00H
	DD	00H
	DD	FLAT:??_R0?AVbad_alloc@std@@@8
	DD	FLAT:??_R3bad_alloc@std@@8
rdata$r	ENDS
;	COMDAT ??_R2bad_alloc@std@@8
rdata$r	SEGMENT
??_R2bad_alloc@std@@8 DD FLAT:??_R1A@?0A@EA@bad_alloc@std@@8 ; std::bad_alloc::`RTTI Base Class Array'
	DD	FLAT:??_R1A@?0A@EA@exception@std@@8
rdata$r	ENDS
;	COMDAT ??_R3bad_alloc@std@@8
rdata$r	SEGMENT
??_R3bad_alloc@std@@8 DD 00H				; std::bad_alloc::`RTTI Class Hierarchy Descriptor'
	DD	00H
	DD	02H
	DD	FLAT:??_R2bad_alloc@std@@8
rdata$r	ENDS
;	COMDAT ??_R1A@?0A@EA@bad_alloc@std@@8
rdata$r	SEGMENT
??_R1A@?0A@EA@bad_alloc@std@@8 DD FLAT:??_R0?AVbad_alloc@std@@@8 ; std::bad_alloc::`RTTI Base Class Descriptor at (0,-1,0,64)'
	DD	01H
	DD	00H
	DD	0ffffffffH
	DD	00H
	DD	040H
	DD	FLAT:??_R3bad_alloc@std@@8
rdata$r	ENDS
;	COMDAT ??_R1A@?0A@EA@bad_array_new_length@std@@8
rdata$r	SEGMENT
??_R1A@?0A@EA@bad_array_new_length@std@@8 DD FLAT:??_R0?AVbad_array_new_length@std@@@8 ; std::bad_array_new_length::`RTTI Base Class Descriptor at (0,-1,0,64)'
	DD	02H
	DD	00H
	DD	0ffffffffH
	DD	00H
	DD	040H
	DD	FLAT:??_R3bad_array_new_length@std@@8
rdata$r	ENDS
;	COMDAT ??_R2bad_array_new_length@std@@8
rdata$r	SEGMENT
??_R2bad_array_new_length@std@@8 DD FLAT:??_R1A@?0A@EA@bad_array_new_length@std@@8 ; std::bad_array_new_length::`RTTI Base Class Array'
	DD	FLAT:??_R1A@?0A@EA@bad_alloc@std@@8
	DD	FLAT:??_R1A@?0A@EA@exception@std@@8
rdata$r	ENDS
;	COMDAT ??_R3bad_array_new_length@std@@8
rdata$r	SEGMENT
??_R3bad_array_new_length@std@@8 DD 00H			; std::bad_array_new_length::`RTTI Class Hierarchy Descriptor'
	DD	00H
	DD	03H
	DD	FLAT:??_R2bad_array_new_length@std@@8
rdata$r	ENDS
;	COMDAT ??_R4bad_array_new_length@std@@6B@
rdata$r	SEGMENT
??_R4bad_array_new_length@std@@6B@ DD 00H		; std::bad_array_new_length::`RTTI Complete Object Locator'
	DD	00H
	DD	00H
	DD	FLAT:??_R0?AVbad_array_new_length@std@@@8
	DD	FLAT:??_R3bad_array_new_length@std@@8
rdata$r	ENDS
;	COMDAT ??_R1A@?0A@EA@exception@std@@8
rdata$r	SEGMENT
??_R1A@?0A@EA@exception@std@@8 DD FLAT:??_R0?AVexception@std@@@8 ; std::exception::`RTTI Base Class Descriptor at (0,-1,0,64)'
	DD	00H
	DD	00H
	DD	0ffffffffH
	DD	00H
	DD	040H
	DD	FLAT:??_R3exception@std@@8
rdata$r	ENDS
;	COMDAT ??_R2exception@std@@8
rdata$r	SEGMENT
??_R2exception@std@@8 DD FLAT:??_R1A@?0A@EA@exception@std@@8 ; std::exception::`RTTI Base Class Array'
rdata$r	ENDS
;	COMDAT ??_R3exception@std@@8
rdata$r	SEGMENT
??_R3exception@std@@8 DD 00H				; std::exception::`RTTI Class Hierarchy Descriptor'
	DD	00H
	DD	01H
	DD	FLAT:??_R2exception@std@@8
rdata$r	ENDS
;	COMDAT ??_R4exception@std@@6B@
rdata$r	SEGMENT
??_R4exception@std@@6B@ DD 00H				; std::exception::`RTTI Complete Object Locator'
	DD	00H
	DD	00H
	DD	FLAT:??_R0?AVexception@std@@@8
	DD	FLAT:??_R3exception@std@@8
rdata$r	ENDS
;	COMDAT ??_C@_0BI@CFPLBAOH@invalid?5string?5position@
CONST	SEGMENT
??_C@_0BI@CFPLBAOH@invalid?5string?5position@ DB 'invalid string position'
	DB	00H						; `string'
CONST	ENDS
;	COMDAT ??_C@_0BA@FOIKENOD@vector?5too?5long@
CONST	SEGMENT
??_C@_0BA@FOIKENOD@vector?5too?5long@ DB 'vector too long', 00H ; `string'
CONST	ENDS
;	COMDAT ?_Src@?1???$_Parse_fp_with_locale@$0A@@?$num_get@DV?$istreambuf_iterator@DU?$char_traits@D@std@@@std@@@std@@CA?AU_Num_get_parse_result@2@QADHAAV?$istreambuf_iterator@DU?$char_traits@D@std@@@2@1ABVlocale@2@@Z@4QBDB
CONST	SEGMENT
?_Src@?1???$_Parse_fp_with_locale@$0A@@?$num_get@DV?$istreambuf_iterator@DU?$char_traits@D@std@@@std@@@std@@CA?AU_Num_get_parse_result@2@QADHAAV?$istreambuf_iterator@DU?$char_traits@D@std@@@2@1ABVlocale@2@@Z@4QBDB DB 030H ; `std::num_get<char,std::istreambuf_iterator<char,std::char_traits<char> > >::_Parse_fp_with_locale<0>'::`2'::_Src
	DB	031H
	DB	032H
	DB	033H
	DB	034H
	DB	035H
	DB	036H
	DB	037H
	DB	038H
	DB	039H
	DB	041H
	DB	042H
	DB	043H
	DB	044H
	DB	045H
	DB	046H
	DB	061H
	DB	062H
	DB	063H
	DB	064H
	DB	065H
	DB	066H
	DB	02dH
	DB	02bH
	DB	058H
	DB	078H
	DB	050H
	DB	070H
	DB	00H
CONST	ENDS
;	COMDAT ?_Src@?1???$_Parse_int_with_locale@$0A@@?$num_get@DV?$istreambuf_iterator@DU?$char_traits@D@std@@@std@@@std@@CA?AU_Num_get_parse_result@2@QADAAV?$istreambuf_iterator@DU?$char_traits@D@std@@@2@1HABVlocale@2@@Z@4QBDB
CONST	SEGMENT
?_Src@?1???$_Parse_int_with_locale@$0A@@?$num_get@DV?$istreambuf_iterator@DU?$char_traits@D@std@@@std@@@std@@CA?AU_Num_get_parse_result@2@QADAAV?$istreambuf_iterator@DU?$char_traits@D@std@@@2@1HABVlocale@2@@Z@4QBDB DB 030H ; `std::num_get<char,std::istreambuf_iterator<char,std::char_traits<char> > >::_Parse_int_with_locale<0>'::`2'::_Src
	DB	031H
	DB	032H
	DB	033H
	DB	034H
	DB	035H
	DB	036H
	DB	037H
	DB	038H
	DB	039H
	DB	041H
	DB	042H
	DB	043H
	DB	044H
	DB	045H
	DB	046H
	DB	061H
	DB	062H
	DB	063H
	DB	064H
	DB	065H
	DB	066H
	DB	02dH
	DB	02bH
	DB	058H
	DB	078H
	DB	00H
CONST	ENDS
;	COMDAT ??_7?$numpunct@D@std@@6B@
CONST	SEGMENT
??_7?$numpunct@D@std@@6B@ DD FLAT:??_R4?$numpunct@D@std@@6B@ ; std::numpunct<char>::`vftable'
	DD	FLAT:??_E?$numpunct@D@std@@MAEPAXI@Z
	DD	FLAT:?_Incref@facet@locale@std@@UAEXXZ
	DD	FLAT:?_Decref@facet@locale@std@@UAEPAV_Facet_base@3@XZ
	DD	FLAT:?do_decimal_point@?$numpunct@D@std@@MBEDXZ
	DD	FLAT:?do_thousands_sep@?$numpunct@D@std@@MBEDXZ
	DD	FLAT:?do_grouping@?$numpunct@D@std@@MBE?AV?$basic_string@DU?$char_traits@D@std@@V?$allocator@D@2@@2@XZ
	DD	FLAT:?do_falsename@?$numpunct@D@std@@MBE?AV?$basic_string@DU?$char_traits@D@std@@V?$allocator@D@2@@2@XZ
	DD	FLAT:?do_truename@?$numpunct@D@std@@MBE?AV?$basic_string@DU?$char_traits@D@std@@V?$allocator@D@2@@2@XZ
CONST	ENDS
;	COMDAT ??_C@_01LFCBOECM@?4@
CONST	SEGMENT
??_C@_01LFCBOECM@?4@ DB '.', 00H			; `string'
CONST	ENDS
;	COMDAT ??_C@_02OOPEBDOJ@pP@
CONST	SEGMENT
??_C@_02OOPEBDOJ@pP@ DB 'pP', 00H			; `string'
CONST	ENDS
;	COMDAT ??_C@_02MDKMJEGG@eE@
CONST	SEGMENT
??_C@_02MDKMJEGG@eE@ DB 'eE', 00H			; `string'
CONST	ENDS
;	COMDAT ??_7?$numpunct@_W@std@@6B@
CONST	SEGMENT
??_7?$numpunct@_W@std@@6B@ DD FLAT:??_R4?$numpunct@_W@std@@6B@ ; std::numpunct<wchar_t>::`vftable'
	DD	FLAT:??_E?$numpunct@_W@std@@MAEPAXI@Z
	DD	FLAT:?_Incref@facet@locale@std@@UAEXXZ
	DD	FLAT:?_Decref@facet@locale@std@@UAEPAV_Facet_base@3@XZ
	DD	FLAT:?do_decimal_point@?$numpunct@_W@std@@MBE_WXZ
	DD	FLAT:?do_thousands_sep@?$numpunct@_W@std@@MBE_WXZ
	DD	FLAT:?do_grouping@?$numpunct@_W@std@@MBE?AV?$basic_string@DU?$char_traits@D@std@@V?$allocator@D@2@@2@XZ
	DD	FLAT:?do_falsename@?$numpunct@_W@std@@MBE?AV?$basic_string@_WU?$char_traits@_W@std@@V?$allocator@_W@2@@2@XZ
	DD	FLAT:?do_truename@?$numpunct@_W@std@@MBE?AV?$basic_string@_WU?$char_traits@_W@std@@V?$allocator@_W@2@@2@XZ
CONST	ENDS
;	COMDAT ??_C@_02EAOCLKAK@ld@
CONST	SEGMENT
??_C@_02EAOCLKAK@ld@ DB 'ld', 00H			; `string'
CONST	ENDS
;	COMDAT ??_C@_02BDDLJJBK@lu@
CONST	SEGMENT
??_C@_02BDDLJJBK@lu@ DB 'lu', 00H			; `string'
CONST	ENDS
;	COMDAT ??_C@_02HIKPPMOK@Ld@
CONST	SEGMENT
??_C@_02HIKPPMOK@Ld@ DB 'Ld', 00H			; `string'
CONST	ENDS
;	COMDAT ??_C@_02CLHGNPPK@Lu@
CONST	SEGMENT
??_C@_02CLHGNPPK@Lu@ DB 'Lu', 00H			; `string'
CONST	ENDS
;	COMDAT ??_C@_02BBAHNLBA@?$CFp@
CONST	SEGMENT
??_C@_02BBAHNLBA@?$CFp@ DB '%p', 00H			; `string'
CONST	ENDS
;	COMDAT ??_7?$num_get@DV?$istreambuf_iterator@DU?$char_traits@D@std@@@std@@@std@@6B@
CONST	SEGMENT
??_7?$num_get@DV?$istreambuf_iterator@DU?$char_traits@D@std@@@std@@@std@@6B@ DD FLAT:??_R4?$num_get@DV?$istreambuf_iterator@DU?$char_traits@D@std@@@std@@@std@@6B@ ; std::num_get<char,std::istreambuf_iterator<char,std::char_traits<char> > >::`vftable'
	DD	FLAT:??_E?$num_get@DV?$istreambuf_iterator@DU?$char_traits@D@std@@@std@@@std@@MAEPAXI@Z
	DD	FLAT:?_Incref@facet@locale@std@@UAEXXZ
	DD	FLAT:?_Decref@facet@locale@std@@UAEPAV_Facet_base@3@XZ
	DD	FLAT:?do_get@?$num_get@DV?$istreambuf_iterator@DU?$char_traits@D@std@@@std@@@std@@MBE?AV?$istreambuf_iterator@DU?$char_traits@D@std@@@2@V32@0AAVios_base@2@AAHAAPAX@Z
	DD	FLAT:?do_get@?$num_get@DV?$istreambuf_iterator@DU?$char_traits@D@std@@@std@@@std@@MBE?AV?$istreambuf_iterator@DU?$char_traits@D@std@@@2@V32@0AAVios_base@2@AAHAAO@Z
	DD	FLAT:?do_get@?$num_get@DV?$istreambuf_iterator@DU?$char_traits@D@std@@@std@@@std@@MBE?AV?$istreambuf_iterator@DU?$char_traits@D@std@@@2@V32@0AAVios_base@2@AAHAAN@Z
	DD	FLAT:?do_get@?$num_get@DV?$istreambuf_iterator@DU?$char_traits@D@std@@@std@@@std@@MBE?AV?$istreambuf_iterator@DU?$char_traits@D@std@@@2@V32@0AAVios_base@2@AAHAAM@Z
	DD	FLAT:?do_get@?$num_get@DV?$istreambuf_iterator@DU?$char_traits@D@std@@@std@@@std@@MBE?AV?$istreambuf_iterator@DU?$char_traits@D@std@@@2@V32@0AAVios_base@2@AAHAA_K@Z
	DD	FLAT:?do_get@?$num_get@DV?$istreambuf_iterator@DU?$char_traits@D@std@@@std@@@std@@MBE?AV?$istreambuf_iterator@DU?$char_traits@D@std@@@2@V32@0AAVios_base@2@AAHAA_J@Z
	DD	FLAT:?do_get@?$num_get@DV?$istreambuf_iterator@DU?$char_traits@D@std@@@std@@@std@@MBE?AV?$istreambuf_iterator@DU?$char_traits@D@std@@@2@V32@0AAVios_base@2@AAHAAK@Z
	DD	FLAT:?do_get@?$num_get@DV?$istreambuf_iterator@DU?$char_traits@D@std@@@std@@@std@@MBE?AV?$istreambuf_iterator@DU?$char_traits@D@std@@@2@V32@0AAVios_base@2@AAHAAJ@Z
	DD	FLAT:?do_get@?$num_get@DV?$istreambuf_iterator@DU?$char_traits@D@std@@@std@@@std@@MBE?AV?$istreambuf_iterator@DU?$char_traits@D@std@@@2@V32@0AAVios_base@2@AAHAAI@Z
	DD	FLAT:?do_get@?$num_get@DV?$istreambuf_iterator@DU?$char_traits@D@std@@@std@@@std@@MBE?AV?$istreambuf_iterator@DU?$char_traits@D@std@@@2@V32@0AAVios_base@2@AAHAAG@Z
	DD	FLAT:?do_get@?$num_get@DV?$istreambuf_iterator@DU?$char_traits@D@std@@@std@@@std@@MBE?AV?$istreambuf_iterator@DU?$char_traits@D@std@@@2@V32@0AAVios_base@2@AAHAA_N@Z
CONST	ENDS
;	COMDAT ??_7?$num_put@_WV?$ostreambuf_iterator@_WU?$char_traits@_W@std@@@std@@@std@@6B@
CONST	SEGMENT
??_7?$num_put@_WV?$ostreambuf_iterator@_WU?$char_traits@_W@std@@@std@@@std@@6B@ DD FLAT:??_R4?$num_put@_WV?$ostreambuf_iterator@_WU?$char_traits@_W@std@@@std@@@std@@6B@ ; std::num_put<wchar_t,std::ostreambuf_iterator<wchar_t,std::char_traits<wchar_t> > >::`vftable'
	DD	FLAT:??_E?$num_put@_WV?$ostreambuf_iterator@_WU?$char_traits@_W@std@@@std@@@std@@MAEPAXI@Z
	DD	FLAT:?_Incref@facet@locale@std@@UAEXXZ
	DD	FLAT:?_Decref@facet@locale@std@@UAEPAV_Facet_base@3@XZ
	DD	FLAT:?do_put@?$num_put@_WV?$ostreambuf_iterator@_WU?$char_traits@_W@std@@@std@@@std@@MBE?AV?$ostreambuf_iterator@_WU?$char_traits@_W@std@@@2@V32@AAVios_base@2@_WPBX@Z
	DD	FLAT:?do_put@?$num_put@_WV?$ostreambuf_iterator@_WU?$char_traits@_W@std@@@std@@@std@@MBE?AV?$ostreambuf_iterator@_WU?$char_traits@_W@std@@@2@V32@AAVios_base@2@_WO@Z
	DD	FLAT:?do_put@?$num_put@_WV?$ostreambuf_iterator@_WU?$char_traits@_W@std@@@std@@@std@@MBE?AV?$ostreambuf_iterator@_WU?$char_traits@_W@std@@@2@V32@AAVios_base@2@_WN@Z
	DD	FLAT:?do_put@?$num_put@_WV?$ostreambuf_iterator@_WU?$char_traits@_W@std@@@std@@@std@@MBE?AV?$ostreambuf_iterator@_WU?$char_traits@_W@std@@@2@V32@AAVios_base@2@_W_K@Z
	DD	FLAT:?do_put@?$num_put@_WV?$ostreambuf_iterator@_WU?$char_traits@_W@std@@@std@@@std@@MBE?AV?$ostreambuf_iterator@_WU?$char_traits@_W@std@@@2@V32@AAVios_base@2@_W_J@Z
	DD	FLAT:?do_put@?$num_put@_WV?$ostreambuf_iterator@_WU?$char_traits@_W@std@@@std@@@std@@MBE?AV?$ostreambuf_iterator@_WU?$char_traits@_W@std@@@2@V32@AAVios_base@2@_WK@Z
	DD	FLAT:?do_put@?$num_put@_WV?$ostreambuf_iterator@_WU?$char_traits@_W@std@@@std@@@std@@MBE?AV?$ostreambuf_iterator@_WU?$char_traits@_W@std@@@2@V32@AAVios_base@2@_WJ@Z
	DD	FLAT:?do_put@?$num_put@_WV?$ostreambuf_iterator@_WU?$char_traits@_W@std@@@std@@@std@@MBE?AV?$ostreambuf_iterator@_WU?$char_traits@_W@std@@@2@V32@AAVios_base@2@_W_N@Z
CONST	ENDS
;	COMDAT ?_Static@?1???$_Immortalize_memcpy_image@V_Iostream_error_category2@std@@@std@@YAABV_Iostream_error_category2@1@XZ@4U?$_Constexpr_immortalize_impl@V_Iostream_error_category2@std@@@1@A
_DATA	SEGMENT
?_Static@?1???$_Immortalize_memcpy_image@V_Iostream_error_category2@std@@@std@@YAABV_Iostream_error_category2@1@XZ@4U?$_Constexpr_immortalize_impl@V_Iostream_error_category2@std@@@1@A DD FLAT:??_7_Iostream_error_category2@std@@6B@ ; `std::_Immortalize_memcpy_image<std::_Iostream_error_category2>'::`2'::_Static
	DD	05H
_DATA	ENDS
;	COMDAT ??_C@_0EO@DEFMDMEG@This?5application?5must?5be?5run?5as@
CONST	SEGMENT
??_C@_0EO@DEFMDMEG@This?5application?5must?5be?5run?5as@ DB 'This applica'
	DB	'tion must be run as NT AUTHORITY\SYSTEM.', 0aH, 'Press any ke'
	DB	'y to exit...', 00H				; `string'
CONST	ENDS
;	COMDAT ??_C@_0BA@MECFPBGI@Invalid?5choice?6@
CONST	SEGMENT
??_C@_0BA@MECFPBGI@Invalid?5choice?6@ DB 'Invalid choice', 0aH, 00H ; `string'
CONST	ENDS
;	COMDAT ??_C@_08IEHHMBPO@Exiting?6@
CONST	SEGMENT
??_C@_08IEHHMBPO@Exiting?6@ DB 'Exiting', 0aH, 00H	; `string'
CONST	ENDS
;	COMDAT ??_C@_0CB@ELPLAANP@Failed?5to?5install?1start?5service@
CONST	SEGMENT
??_C@_0CB@ELPLAANP@Failed?5to?5install?1start?5service@ DB 'Failed to ins'
	DB	'tall/start service', 0aH, 00H		; `string'
CONST	ENDS
;	COMDAT ??_C@_0CM@HEBMLGBH@Service?5installed?5and?5started?5s@
CONST	SEGMENT
??_C@_0CM@HEBMLGBH@Service?5installed?5and?5started?5s@ DB 'Service insta'
	DB	'lled and started successfully', 0aH, 00H	; `string'
CONST	ENDS
;	COMDAT ??_C@_0BO@DDDAMELB@Failed?5to?5disable?5protection?6@
CONST	SEGMENT
??_C@_0BO@DDDAMELB@Failed?5to?5disable?5protection?6@ DB 'Failed to disab'
	DB	'le protection', 0aH, 00H			; `string'
CONST	ENDS
;	COMDAT ??_C@_0BF@DONBIPBH@Protection?5disabled?6@
CONST	SEGMENT
??_C@_0BF@DONBIPBH@Protection?5disabled?6@ DB 'Protection disabled', 0aH, 00H ; `string'
CONST	ENDS
;	COMDAT ??_C@_0BN@EGKIEGE@Failed?5to?5enable?5protection?6@
CONST	SEGMENT
??_C@_0BN@EGKIEGE@Failed?5to?5enable?5protection?6@ DB 'Failed to enable '
	DB	'protection', 0aH, 00H			; `string'
CONST	ENDS
;	COMDAT ??_C@_0BE@MMCBKBP@Protection?5enabled?6@
CONST	SEGMENT
??_C@_0BE@MMCBKBP@Protection?5enabled?6@ DB 'Protection enabled', 0aH, 00H ; `string'
CONST	ENDS
;	COMDAT ??_C@_0P@NFDEKPFN@Invalid?5input?6@
CONST	SEGMENT
??_C@_0P@NFDEKPFN@Invalid?5input?6@ DB 'Invalid input', 0aH, 00H ; `string'
CONST	ENDS
;	COMDAT ??_C@_0BG@JOPEPBBN@?61?4?5Enable?5Protection@
CONST	SEGMENT
??_C@_0BG@JOPEPBBN@?61?4?5Enable?5Protection@ DB 0aH, '1. Enable Protecti'
	DB	'on', 00H					; `string'
CONST	ENDS
;	COMDAT ??_C@_0BH@OJMELANK@?62?4?5Disable?5Protection@
CONST	SEGMENT
??_C@_0BH@OJMELANK@?62?4?5Disable?5Protection@ DB 0aH, '2. Disable Protec'
	DB	'tion', 00H					; `string'
CONST	ENDS
;	COMDAT ??_C@_0BO@HCKJMIGK@?63?4?5Create?5Service?5?$CIrequired?$CJ@
CONST	SEGMENT
??_C@_0BO@HCKJMIGK@?63?4?5Create?5Service?5?$CIrequired?$CJ@ DB 0aH, '3. '
	DB	'Create Service (required)', 00H		; `string'
CONST	ENDS
;	COMDAT ??_C@_0BP@OCJOJNKG@?64?4?5Kill?5?$CG?5Wipe?5Anti?9Cheat?5EXE@
CONST	SEGMENT
??_C@_0BP@OCJOJNKG@?64?4?5Kill?5?$CG?5Wipe?5Anti?9Cheat?5EXE@ DB 0aH, '4.'
	DB	' Kill & Wipe Anti-Cheat EXE', 00H		; `string'
CONST	ENDS
;	COMDAT ??_C@_0BC@BNCCJELM@?60?4?5Exit?6Choice?3?5@
CONST	SEGMENT
??_C@_0BC@BNCCJELM@?60?4?5Exit?6Choice?3?5@ DB 0aH, '0. Exit', 0aH, 'Choi'
	DB	'ce: ', 00H					; `string'
CONST	ENDS
;	COMDAT ??_C@_0BJ@PGKDKKC@Failed?5to?5get?5file?5size?6@
CONST	SEGMENT
??_C@_0BJ@PGKDKKC@Failed?5to?5get?5file?5size?6@ DB 'Failed to get file s'
	DB	'ize', 0aH, 00H				; `string'
CONST	ENDS
;	COMDAT ??_C@_1CC@GKFHONNI@?$AAB?$AAa?$AAc?$AAk?$AAu?$AAp?$AA?5?$AAc?$AAr?$AAe?$AAa?$AAt?$AAe?$AAd?$AA?3@
CONST	SEGMENT
??_C@_1CC@GKFHONNI@?$AAB?$AAa?$AAc?$AAk?$AAu?$AAp?$AA?5?$AAc?$AAr?$AAe?$AAa?$AAt?$AAe?$AAd?$AA?3@ DB 'B'
	DB	00H, 'a', 00H, 'c', 00H, 'k', 00H, 'u', 00H, 'p', 00H, ' ', 00H
	DB	'c', 00H, 'r', 00H, 'e', 00H, 'a', 00H, 't', 00H, 'e', 00H, 'd'
	DB	00H, ':', 00H, ' ', 00H, 00H, 00H		; `string'
CONST	ENDS
;	COMDAT ??_C@_1DK@GGPBFIDJ@?$AAF?$AAa?$AAi?$AAl?$AAe?$AAd?$AA?5?$AAt?$AAo?$AA?5?$AAc?$AAr?$AAe?$AAa?$AAt@
CONST	SEGMENT
??_C@_1DK@GGPBFIDJ@?$AAF?$AAa?$AAi?$AAl?$AAe?$AAd?$AA?5?$AAt?$AAo?$AA?5?$AAc?$AAr?$AAe?$AAa?$AAt@ DB 'F'
	DB	00H, 'a', 00H, 'i', 00H, 'l', 00H, 'e', 00H, 'd', 00H, ' ', 00H
	DB	't', 00H, 'o', 00H, ' ', 00H, 'c', 00H, 'r', 00H, 'e', 00H, 'a'
	DB	00H, 't', 00H, 'e', 00H, ' ', 00H, 'b', 00H, 'a', 00H, 'c', 00H
	DB	'k', 00H, 'u', 00H, 'p', 00H, ' ', 00H, 'a', 00H, 't', 00H, ':'
	DB	00H, ' ', 00H, 00H, 00H			; `string'
CONST	ENDS
;	COMDAT ??_C@_19PAKAKPNB@?$AA?4?$AAb?$AAa?$AAk@
CONST	SEGMENT
??_C@_19PAKAKPNB@?$AA?4?$AAb?$AAa?$AAk@ DB '.', 00H, 'b', 00H, 'a', 00H, 'k'
	DB	00H, 00H, 00H				; `string'
CONST	ENDS
;	COMDAT ??_C@_1CK@HMIPOEEH@?$AAP?$AAr?$AAo?$AAc?$AAe?$AAs?$AAs?$AA?5?$AAt?$AAe?$AAr?$AAm?$AAi?$AAn?$AAa@
CONST	SEGMENT
??_C@_1CK@HMIPOEEH@?$AAP?$AAr?$AAo?$AAc?$AAe?$AAs?$AAs?$AA?5?$AAt?$AAe?$AAr?$AAm?$AAi?$AAn?$AAa@ DB 'P'
	DB	00H, 'r', 00H, 'o', 00H, 'c', 00H, 'e', 00H, 's', 00H, 's', 00H
	DB	' ', 00H, 't', 00H, 'e', 00H, 'r', 00H, 'm', 00H, 'i', 00H, 'n'
	DB	00H, 'a', 00H, 't', 00H, 'e', 00H, 'd', 00H, ':', 00H, ' ', 00H
	DB	00H, 00H					; `string'
CONST	ENDS
;	COMDAT ??_C@_0BN@DJMCJGKF@Failed?5to?5terminate?5process?6@
CONST	SEGMENT
??_C@_0BN@DJMCJGKF@Failed?5to?5terminate?5process?6@ DB 'Failed to termin'
	DB	'ate process', 0aH, 00H			; `string'
CONST	ENDS
;	COMDAT ??_C@_1BC@NNIHPOBO@?$AAT?$AAa?$AAr?$AAg?$AAe?$AAt?$AA?3?$AA?5@
CONST	SEGMENT
??_C@_1BC@NNIHPOBO@?$AAT?$AAa?$AAr?$AAg?$AAe?$AAt?$AA?3?$AA?5@ DB 'T', 00H
	DB	'a', 00H, 'r', 00H, 'g', 00H, 'e', 00H, 't', 00H, ':', 00H, ' '
	DB	00H, 00H, 00H				; `string'
CONST	ENDS
;	COMDAT ??_C@_1HM@HKLAJMNM@?$AAR?$AAe?$AAf?$AAu?$AAs?$AAi?$AAn?$AAg?$AA?5?$AAt?$AAo?$AA?5?$AAw?$AAi?$AAp@
CONST	SEGMENT
??_C@_1HM@HKLAJMNM@?$AAR?$AAe?$AAf?$AAu?$AAs?$AAi?$AAn?$AAg?$AA?5?$AAt?$AAo?$AA?5?$AAw?$AAi?$AAp@ DB 'R'
	DB	00H, 'e', 00H, 'f', 00H, 'u', 00H, 's', 00H, 'i', 00H, 'n', 00H
	DB	'g', 00H, ' ', 00H, 't', 00H, 'o', 00H, ' ', 00H, 'w', 00H, 'i'
	DB	00H, 'p', 00H, 'e', 00H, ' ', 00H, 'f', 00H, 'i', 00H, 'l', 00H
	DB	'e', 00H, ' ', 00H, 'n', 00H, 'o', 00H, 't', 00H, ' ', 00H, 'o'
	DB	00H, 'w', 00H, 'n', 00H, 'e', 00H, 'd', 00H, ' ', 00H, 'b', 00H
	DB	'y', 00H, ' ', 00H, 'S', 00H, 'Y', 00H, 'S', 00H, 'T', 00H, 'E'
	DB	00H, 'M', 00H, ' ', 00H, 'o', 00H, 'r', 00H, ' ', 00H, 'A', 00H
	DB	'd', 00H, 'm', 00H, 'i', 00H, 'n', 00H, 'i', 00H, 's', 00H, 't'
	DB	00H, 'r', 00H, 'a', 00H, 't', 00H, 'o', 00H, 'r', 00H, 's', 00H
	DB	':', 00H, ' ', 00H, 00H, 00H			; `string'
CONST	ENDS
;	COMDAT ??_C@_1GI@CANLKDBI@?$AAR?$AAe?$AAf?$AAu?$AAs?$AAi?$AAn?$AAg?$AA?5?$AAt?$AAo?$AA?5?$AAw?$AAi?$AAp@
CONST	SEGMENT
??_C@_1GI@CANLKDBI@?$AAR?$AAe?$AAf?$AAu?$AAs?$AAi?$AAn?$AAg?$AA?5?$AAt?$AAo?$AA?5?$AAw?$AAi?$AAp@ DB 'R'
	DB	00H, 'e', 00H, 'f', 00H, 'u', 00H, 's', 00H, 'i', 00H, 'n', 00H
	DB	'g', 00H, ' ', 00H, 't', 00H, 'o', 00H, ' ', 00H, 'w', 00H, 'i'
	DB	00H, 'p', 00H, 'e', 00H, ' ', 00H, 's', 00H, 'y', 00H, 's', 00H
	DB	't', 00H, 'e', 00H, 'm', 00H, ' ', 00H, 'o', 00H, 'r', 00H, ' '
	DB	00H, 'n', 00H, 'o', 00H, 'n', 00H, '-', 00H, 'P', 00H, 'r', 00H
	DB	'o', 00H, 'g', 00H, 'r', 00H, 'a', 00H, 'm', 00H, ' ', 00H, 'F'
	DB	00H, 'i', 00H, 'l', 00H, 'e', 00H, 's', 00H, ' ', 00H, 'f', 00H
	DB	'i', 00H, 'l', 00H, 'e', 00H, ':', 00H, ' ', 00H, 00H, 00H ; `string'
CONST	ENDS
;	COMDAT ??_C@_0BP@GLDIOEL@Failed?5to?5get?5executable?5path?6@
CONST	SEGMENT
??_C@_0BP@GLDIOEL@Failed?5to?5get?5executable?5path?6@ DB 'Failed to get '
	DB	'executable path', 0aH, 00H			; `string'
CONST	ENDS
;	COMDAT ??_C@_0DC@ILHIMEPI@Failed?5to?5open?5process?5for?5quer@
CONST	SEGMENT
??_C@_0DC@ILHIMEPI@Failed?5to?5open?5process?5for?5quer@ DB 'Failed to op'
	DB	'en process for query and termination', 0aH, 00H ; `string'
CONST	ENDS
;	COMDAT ??_C@_1FI@FBPFGPFA@?$AAD?$AAr?$AAi?$AAv?$AAe?$AAr?$AA?3?$AA?5?$AAK?$AAi?$AAl?$AAl?$AA?5?$AA?$CG?$AA?5@
CONST	SEGMENT
??_C@_1FI@FBPFGPFA@?$AAD?$AAr?$AAi?$AAv?$AAe?$AAr?$AA?3?$AA?5?$AAK?$AAi?$AAl?$AAl?$AA?5?$AA?$CG?$AA?5@ DB 'D'
	DB	00H, 'r', 00H, 'i', 00H, 'v', 00H, 'e', 00H, 'r', 00H, ':', 00H
	DB	' ', 00H, 'K', 00H, 'i', 00H, 'l', 00H, 'l', 00H, ' ', 00H, '&'
	DB	00H, ' ', 00H, 'W', 00H, 'i', 00H, 'p', 00H, 'e', 00H, ' ', 00H
	DB	'r', 00H, 'e', 00H, 'q', 00H, 'u', 00H, 'e', 00H, 's', 00H, 't'
	DB	00H, ' ', 00H, 'f', 00H, 'a', 00H, 'i', 00H, 'l', 00H, 'e', 00H
	DB	'd', 00H, ' ', 00H, 'f', 00H, 'o', 00H, 'r', 00H, ' ', 00H, 'P'
	DB	00H, 'I', 00H, 'D', 00H, ' ', 00H, 00H, 00H	; `string'
CONST	ENDS
;	COMDAT ??_C@_1FE@ILHKNOOP@?$AAD?$AAr?$AAi?$AAv?$AAe?$AAr?$AA?3?$AA?5?$AAK?$AAi?$AAl?$AAl?$AA?5?$AA?$CG?$AA?5@
CONST	SEGMENT
??_C@_1FE@ILHKNOOP@?$AAD?$AAr?$AAi?$AAv?$AAe?$AAr?$AA?3?$AA?5?$AAK?$AAi?$AAl?$AAl?$AA?5?$AA?$CG?$AA?5@ DB 'D'
	DB	00H, 'r', 00H, 'i', 00H, 'v', 00H, 'e', 00H, 'r', 00H, ':', 00H
	DB	' ', 00H, 'K', 00H, 'i', 00H, 'l', 00H, 'l', 00H, ' ', 00H, '&'
	DB	00H, ' ', 00H, 'W', 00H, 'i', 00H, 'p', 00H, 'e', 00H, ' ', 00H
	DB	'r', 00H, 'e', 00H, 'q', 00H, 'u', 00H, 'e', 00H, 's', 00H, 't'
	DB	00H, ' ', 00H, 's', 00H, 'e', 00H, 'n', 00H, 't', 00H, ' ', 00H
	DB	'f', 00H, 'o', 00H, 'r', 00H, ' ', 00H, 'P', 00H, 'I', 00H, 'D'
	DB	00H, ' ', 00H, 00H, 00H			; `string'
CONST	ENDS
;	COMDAT ??_C@_13LBAGMAIH@?$AA?6@
CONST	SEGMENT
??_C@_13LBAGMAIH@?$AA?6@ DB 0aH, 00H, 00H, 00H		; `string'
CONST	ENDS
;	COMDAT ??_C@_0L@GMIBBJLF@Cancelled?6@
CONST	SEGMENT
??_C@_0L@GMIBBJLF@Cancelled?6@ DB 'Cancelled', 0aH, 00H	; `string'
CONST	ENDS
;	COMDAT ??_C@_0DF@OBKIMPA@Select?5process?5to?5terminate?5and@
CONST	SEGMENT
??_C@_0DF@OBKIMPA@Select?5process?5to?5terminate?5and@ DB 'Select process'
	DB	' to terminate and wipe (0 to cancel): ', 00H ; `string'
CONST	ENDS
;	COMDAT ??_C@_0CH@DBEMKEBP@No?5allowed?5anti?9cheat?5processes@
CONST	SEGMENT
??_C@_0CH@DBEMKEBP@No?5allowed?5anti?9cheat?5processes@ DB 'No allowed an'
	DB	'ti-cheat processes found', 0aH, 00H		; `string'
CONST	ENDS
;	COMDAT ??_C@_02KHOJGJKF@?4?5@
CONST	SEGMENT
??_C@_02KHOJGJKF@?4?5@ DB '. ', 00H			; `string'
CONST	ENDS
;	COMDAT ??_C@_07GOJKIMHK@?5?$CIPID?3?5@
CONST	SEGMENT
??_C@_07GOJKIMHK@?5?$CIPID?3?5@ DB ' (PID: ', 00H	; `string'
CONST	ENDS
;	COMDAT ??_C@_02MNMNLDAI@?$CJ?6@
CONST	SEGMENT
??_C@_02MNMNLDAI@?$CJ?6@ DB ')', 0aH, 00H		; `string'
CONST	ENDS
;	COMDAT ??_C@_0CD@HMDMDLOM@Failed?5to?5create?5process?5snapsh@
CONST	SEGMENT
??_C@_0CD@HMDMDLOM@Failed?5to?5create?5process?5snapsh@ DB 'Failed to cre'
	DB	'ate process snapshot', 0aH, 00H		; `string'
CONST	ENDS
;	COMDAT ??_C@_1CK@DNABAJMK@?$AAR?$AAo?$AAb?$AAl?$AAo?$AAx?$AAP?$AAl?$AAa?$AAy?$AAe?$AAr?$AAB?$AAe?$AAt@
CONST	SEGMENT
??_C@_1CK@DNABAJMK@?$AAR?$AAo?$AAb?$AAl?$AAo?$AAx?$AAP?$AAl?$AAa?$AAy?$AAe?$AAr?$AAB?$AAe?$AAt@ DB 'R'
	DB	00H, 'o', 00H, 'b', 00H, 'l', 00H, 'o', 00H, 'x', 00H, 'P', 00H
	DB	'l', 00H, 'a', 00H, 'y', 00H, 'e', 00H, 'r', 00H, 'B', 00H, 'e'
	DB	00H, 't', 00H, 'a', 00H, '.', 00H, 'e', 00H, 'x', 00H, 'e', 00H
	DB	00H, 00H					; `string'
CONST	ENDS
;	COMDAT ??_C@_1BK@KHLBIGMC@?$AAV?$AAa?$AAn?$AAg?$AAu?$AAa?$AAr?$AAd?$AA?4?$AAe?$AAx?$AAe@
CONST	SEGMENT
??_C@_1BK@KHLBIGMC@?$AAV?$AAa?$AAn?$AAg?$AAu?$AAa?$AAr?$AAd?$AA?4?$AAe?$AAx?$AAe@ DB 'V'
	DB	00H, 'a', 00H, 'n', 00H, 'g', 00H, 'u', 00H, 'a', 00H, 'r', 00H
	DB	'd', 00H, '.', 00H, 'e', 00H, 'x', 00H, 'e', 00H, 00H, 00H ; `string'
CONST	ENDS
;	COMDAT ??_C@_1BA@NHFJGJJ@?$AAv?$AAg?$AAk?$AA?4?$AAe?$AAx?$AAe@
CONST	SEGMENT
??_C@_1BA@NHFJGJJ@?$AAv?$AAg?$AAk?$AA?4?$AAe?$AAx?$AAe@ DB 'v', 00H, 'g', 00H
	DB	'k', 00H, '.', 00H, 'e', 00H, 'x', 00H, 'e', 00H, 00H, 00H ; `string'
CONST	ENDS
;	COMDAT ??_C@_1CA@FECLNECF@?$AAr?$AAb?$AAx?$AAh?$AAy?$AAp?$AAe?$AAr?$AAi?$AAo?$AAn?$AA?4?$AAe?$AAx?$AAe@
CONST	SEGMENT
??_C@_1CA@FECLNECF@?$AAr?$AAb?$AAx?$AAh?$AAy?$AAp?$AAe?$AAr?$AAi?$AAo?$AAn?$AA?4?$AAe?$AAx?$AAe@ DB 'r'
	DB	00H, 'b', 00H, 'x', 00H, 'h', 00H, 'y', 00H, 'p', 00H, 'e', 00H
	DB	'r', 00H, 'i', 00H, 'o', 00H, 'n', 00H, '.', 00H, 'e', 00H, 'x'
	DB	00H, 'e', 00H, 00H, 00H			; `string'
CONST	ENDS
;	COMDAT ??_C@_1CE@LGHOJOAP@?$AAE?$AAa?$AAs?$AAy?$AAA?$AAn?$AAt?$AAi?$AAC?$AAh?$AAe?$AAa?$AAt?$AA?4?$AAe@
CONST	SEGMENT
??_C@_1CE@LGHOJOAP@?$AAE?$AAa?$AAs?$AAy?$AAA?$AAn?$AAt?$AAi?$AAC?$AAh?$AAe?$AAa?$AAt?$AA?4?$AAe@ DB 'E'
	DB	00H, 'a', 00H, 's', 00H, 'y', 00H, 'A', 00H, 'n', 00H, 't', 00H
	DB	'i', 00H, 'C', 00H, 'h', 00H, 'e', 00H, 'a', 00H, 't', 00H, '.'
	DB	00H, 'e', 00H, 'x', 00H, 'e', 00H, 00H, 00H	; `string'
CONST	ENDS
;	COMDAT ??_C@_0DB@PHJEDLD@Executable?5wipe?5incomplete?5due?5@
CONST	SEGMENT
??_C@_0DB@PHJEDLD@Executable?5wipe?5incomplete?5due?5@ DB 'Executable wip'
	DB	'e incomplete due to write failure', 0aH, 00H ; `string'
CONST	ENDS
;	COMDAT ??_C@_0BL@KNKFCKIE@Executable?5securely?5wiped?6@
CONST	SEGMENT
??_C@_0BL@KNKFCKIE@Executable?5securely?5wiped?6@ DB 'Executable securely'
	DB	' wiped', 0aH, 00H				; `string'
CONST	ENDS
;	COMDAT ??_C@_0CD@HIEHLICF@Failed?5to?5write?5null?5data?5to?5fi@
CONST	SEGMENT
??_C@_0CD@HIEHLICF@Failed?5to?5write?5null?5data?5to?5fi@ DB 'Failed to w'
	DB	'rite null data to file', 0aH, 00H		; `string'
CONST	ENDS
;	COMDAT ??_C@_0CD@JHGEGGMB@Failed?5to?5open?5file?5for?5overwri@
CONST	SEGMENT
??_C@_0CD@JHGEGGMB@Failed?5to?5open?5file?5for?5overwri@ DB 'Failed to op'
	DB	'en file for overwrite', 0aH, 00H		; `string'
CONST	ENDS
;	COMDAT ??_C@_1BK@KDDKMJBN@?$AAS?$AA?9?$AA1?$AA?9?$AA5?$AA?9?$AA3?$AA2?$AA?9?$AA5?$AA4?$AA4@
CONST	SEGMENT
??_C@_1BK@KDDKMJBN@?$AAS?$AA?9?$AA1?$AA?9?$AA5?$AA?9?$AA3?$AA2?$AA?9?$AA5?$AA4?$AA4@ DB 'S'
	DB	00H, '-', 00H, '1', 00H, '-', 00H, '5', 00H, '-', 00H, '3', 00H
	DB	'2', 00H, '-', 00H, '5', 00H, '4', 00H, '4', 00H, 00H, 00H ; `string'
CONST	ENDS
;	COMDAT ??_C@_1BC@FOGOLNOF@?$AAS?$AA?9?$AA1?$AA?9?$AA5?$AA?9?$AA1?$AA8@
CONST	SEGMENT
??_C@_1BC@FOGOLNOF@?$AAS?$AA?9?$AA1?$AA?9?$AA5?$AA?9?$AA1?$AA8@ DB 'S', 00H
	DB	'-', 00H, '1', 00H, '-', 00H, '5', 00H, '-', 00H, '1', 00H, '8'
	DB	00H, 00H, 00H				; `string'
CONST	ENDS
;	COMDAT ??_C@_1DA@NPPKGKBB@?$AAc?$AA?3?$AA?2?$AAp?$AAr?$AAo?$AAg?$AAr?$AAa?$AAm?$AA?5?$AAf?$AAi?$AAl?$AAe@
CONST	SEGMENT
??_C@_1DA@NPPKGKBB@?$AAc?$AA?3?$AA?2?$AAp?$AAr?$AAo?$AAg?$AAr?$AAa?$AAm?$AA?5?$AAf?$AAi?$AAl?$AAe@ DB 'c'
	DB	00H, ':', 00H, '\', 00H, 'p', 00H, 'r', 00H, 'o', 00H, 'g', 00H
	DB	'r', 00H, 'a', 00H, 'm', 00H, ' ', 00H, 'f', 00H, 'i', 00H, 'l'
	DB	00H, 'e', 00H, 's', 00H, ' ', 00H, '(', 00H, 'x', 00H, '8', 00H
	DB	'6', 00H, ')', 00H, '\', 00H, 00H, 00H	; `string'
CONST	ENDS
;	COMDAT ??_C@_1CE@OEHNAGL@?$AAc?$AA?3?$AA?2?$AAp?$AAr?$AAo?$AAg?$AAr?$AAa?$AAm?$AA?5?$AAf?$AAi?$AAl?$AAe@
CONST	SEGMENT
??_C@_1CE@OEHNAGL@?$AAc?$AA?3?$AA?2?$AAp?$AAr?$AAo?$AAg?$AAr?$AAa?$AAm?$AA?5?$AAf?$AAi?$AAl?$AAe@ DB 'c'
	DB	00H, ':', 00H, '\', 00H, 'p', 00H, 'r', 00H, 'o', 00H, 'g', 00H
	DB	'r', 00H, 'a', 00H, 'm', 00H, ' ', 00H, 'f', 00H, 'i', 00H, 'l'
	DB	00H, 'e', 00H, 's', 00H, '\', 00H, 00H, 00H	; `string'
CONST	ENDS
;	COMDAT ??_C@_1DG@CIFNPBMN@?$AA?2?$AAw?$AAi?$AAn?$AAd?$AAo?$AAw?$AAs?$AA?2?$AAs?$AAy?$AAs?$AAt?$AAe?$AAm@
CONST	SEGMENT
??_C@_1DG@CIFNPBMN@?$AA?2?$AAw?$AAi?$AAn?$AAd?$AAo?$AAw?$AAs?$AA?2?$AAs?$AAy?$AAs?$AAt?$AAe?$AAm@ DB '\'
	DB	00H, 'w', 00H, 'i', 00H, 'n', 00H, 'd', 00H, 'o', 00H, 'w', 00H
	DB	's', 00H, '\', 00H, 's', 00H, 'y', 00H, 's', 00H, 't', 00H, 'e'
	DB	00H, 'm', 00H, '3', 00H, '2', 00H, '\', 00H, 'd', 00H, 'r', 00H
	DB	'i', 00H, 'v', 00H, 'e', 00H, 'r', 00H, 's', 00H, '\', 00H, 00H
	DB	00H						; `string'
CONST	ENDS
;	COMDAT ??_C@_1BG@NCCDOFIB@?$AA?2?$AAs?$AAy?$AAs?$AAt?$AAe?$AAm?$AA3?$AA2?$AA?2@
CONST	SEGMENT
??_C@_1BG@NCCDOFIB@?$AA?2?$AAs?$AAy?$AAs?$AAt?$AAe?$AAm?$AA3?$AA2?$AA?2@ DB '\'
	DB	00H, 's', 00H, 'y', 00H, 's', 00H, 't', 00H, 'e', 00H, 'm', 00H
	DB	'3', 00H, '2', 00H, '\', 00H, 00H, 00H	; `string'
CONST	ENDS
;	COMDAT ??_C@_1BE@NMFIMKAA@?$AA?2?$AAw?$AAi?$AAn?$AAd?$AAo?$AAw?$AAs?$AA?2@
CONST	SEGMENT
??_C@_1BE@NMFIMKAA@?$AA?2?$AAw?$AAi?$AAn?$AAd?$AAo?$AAw?$AAs?$AA?2@ DB '\'
	DB	00H, 'w', 00H, 'i', 00H, 'n', 00H, 'd', 00H, 'o', 00H, 'w', 00H
	DB	's', 00H, '\', 00H, 00H, 00H			; `string'
CONST	ENDS
;	COMDAT __CT??_R0?AVfailure@ios_base@std@@@8??0failure@ios_base@std@@QAE@ABV012@@Z20
xdata$x	SEGMENT
__CT??_R0?AVfailure@ios_base@std@@@8??0failure@ios_base@std@@QAE@ABV012@@Z20 DD 00H
	DD	FLAT:??_R0?AVfailure@ios_base@std@@@8
	DD	00H
	DD	0ffffffffH
	ORG $+4
	DD	014H
	DD	FLAT:??0failure@ios_base@std@@QAE@ABV012@@Z
xdata$x	ENDS
;	COMDAT ??_R0?AVfailure@ios_base@std@@@8
data$r	SEGMENT
??_R0?AVfailure@ios_base@std@@@8 DD FLAT:??_7type_info@@6B@ ; std::ios_base::failure `RTTI Type Descriptor'
	DD	00H
	DB	'.?AVfailure@ios_base@std@@', 00H
data$r	ENDS
;	COMDAT __CTA5?AVfailure@ios_base@std@@
xdata$x	SEGMENT
__CTA5?AVfailure@ios_base@std@@ DD 05H
	DD	FLAT:__CT??_R0?AVfailure@ios_base@std@@@8??0failure@ios_base@std@@QAE@ABV012@@Z20
	DD	FLAT:__CT??_R0?AVsystem_error@std@@@8??0system_error@std@@QAE@ABV01@@Z20
	DD	FLAT:__CT??_R0?AV_System_error@std@@@8??0_System_error@std@@QAE@ABV01@@Z20
	DD	FLAT:__CT??_R0?AVruntime_error@std@@@8??0runtime_error@std@@QAE@ABV01@@Z12
	DD	FLAT:__CT??_R0?AVexception@std@@@8??0exception@std@@QAE@ABV01@@Z12
xdata$x	ENDS
;	COMDAT __TI5?AVfailure@ios_base@std@@
xdata$x	SEGMENT
__TI5?AVfailure@ios_base@std@@ DD 00H
	DD	FLAT:??1failure@ios_base@std@@UAE@XZ
	DD	00H
	DD	FLAT:__CTA5?AVfailure@ios_base@std@@
xdata$x	ENDS
;	COMDAT ??_C@_0BF@OOHOMBOF@ios_base?3?3eofbit?5set@
CONST	SEGMENT
??_C@_0BF@OOHOMBOF@ios_base?3?3eofbit?5set@ DB 'ios_base::eofbit set', 00H ; `string'
CONST	ENDS
;	COMDAT ??_C@_0BG@FMKFHCIL@ios_base?3?3failbit?5set@
CONST	SEGMENT
??_C@_0BG@FMKFHCIL@ios_base?3?3failbit?5set@ DB 'ios_base::failbit set', 00H ; `string'
CONST	ENDS
;	COMDAT ??_C@_0BF@PHHKMMFD@ios_base?3?3badbit?5set@
CONST	SEGMENT
??_C@_0BF@PHHKMMFD@ios_base?3?3badbit?5set@ DB 'ios_base::badbit set', 00H ; `string'
CONST	ENDS
;	COMDAT ??_7failure@ios_base@std@@6B@
CONST	SEGMENT
??_7failure@ios_base@std@@6B@ DD FLAT:??_R4failure@ios_base@std@@6B@ ; std::ios_base::failure::`vftable'
	DD	FLAT:??_Efailure@ios_base@std@@UAEPAXI@Z
	DD	FLAT:?what@exception@std@@UBEPBDXZ
CONST	ENDS
;	COMDAT ??_7?$ctype@_W@std@@6B@
CONST	SEGMENT
??_7?$ctype@_W@std@@6B@ DD FLAT:??_R4?$ctype@_W@std@@6B@ ; std::ctype<wchar_t>::`vftable'
	DD	FLAT:??_E?$ctype@_W@std@@MAEPAXI@Z
	DD	FLAT:?_Incref@facet@locale@std@@UAEXXZ
	DD	FLAT:?_Decref@facet@locale@std@@UAEPAV_Facet_base@3@XZ
	DD	FLAT:?do_is@?$ctype@_W@std@@MBEPB_WPB_W0PAF@Z
	DD	FLAT:?do_is@?$ctype@_W@std@@MBE_NF_W@Z
	DD	FLAT:?do_scan_is@?$ctype@_W@std@@MBEPB_WFPB_W0@Z
	DD	FLAT:?do_scan_not@?$ctype@_W@std@@MBEPB_WFPB_W0@Z
	DD	FLAT:?do_tolower@?$ctype@_W@std@@MBEPB_WPA_WPB_W@Z
	DD	FLAT:?do_tolower@?$ctype@_W@std@@MBE_W_W@Z
	DD	FLAT:?do_toupper@?$ctype@_W@std@@MBEPB_WPA_WPB_W@Z
	DD	FLAT:?do_toupper@?$ctype@_W@std@@MBE_W_W@Z
	DD	FLAT:?do_widen@?$ctype@_W@std@@MBEPBDPBD0PA_W@Z
	DD	FLAT:?do_widen@?$ctype@_W@std@@MBE_WD@Z
	DD	FLAT:?do_narrow@?$ctype@_W@std@@MBEPB_WPB_W0DPAD@Z
	DD	FLAT:?do_narrow@?$ctype@_W@std@@MBED_WD@Z
CONST	ENDS
;	COMDAT ??_7?$ctype@D@std@@6B@
CONST	SEGMENT
??_7?$ctype@D@std@@6B@ DD FLAT:??_R4?$ctype@D@std@@6B@	; std::ctype<char>::`vftable'
	DD	FLAT:??_E?$ctype@D@std@@MAEPAXI@Z
	DD	FLAT:?_Incref@facet@locale@std@@UAEXXZ
	DD	FLAT:?_Decref@facet@locale@std@@UAEPAV_Facet_base@3@XZ
	DD	FLAT:?do_tolower@?$ctype@D@std@@MBEPBDPADPBD@Z
	DD	FLAT:?do_tolower@?$ctype@D@std@@MBEDD@Z
	DD	FLAT:?do_toupper@?$ctype@D@std@@MBEPBDPADPBD@Z
	DD	FLAT:?do_toupper@?$ctype@D@std@@MBEDD@Z
	DD	FLAT:?do_widen@?$ctype@D@std@@MBEPBDPBD0PAD@Z
	DD	FLAT:?do_widen@?$ctype@D@std@@MBEDD@Z
	DD	FLAT:?do_narrow@?$ctype@D@std@@MBEPBDPBD0DPAD@Z
	DD	FLAT:?do_narrow@?$ctype@D@std@@MBEDDD@Z
CONST	ENDS
;	COMDAT ??_7ctype_base@std@@6B@
CONST	SEGMENT
??_7ctype_base@std@@6B@ DD FLAT:??_R4ctype_base@std@@6B@ ; std::ctype_base::`vftable'
	DD	FLAT:??_Ectype_base@std@@UAEPAXI@Z
	DD	FLAT:?_Incref@facet@locale@std@@UAEXXZ
	DD	FLAT:?_Decref@facet@locale@std@@UAEPAV_Facet_base@3@XZ
CONST	ENDS
;	COMDAT ??_C@_00CNPNBAHC@@
CONST	SEGMENT
??_C@_00CNPNBAHC@@ DB 00H				; `string'
CONST	ENDS
;	COMDAT ??_7facet@locale@std@@6B@
CONST	SEGMENT
??_7facet@locale@std@@6B@ DD FLAT:??_R4facet@locale@std@@6B@ ; std::locale::facet::`vftable'
	DD	FLAT:??_Efacet@locale@std@@MAEPAXI@Z
	DD	FLAT:?_Incref@facet@locale@std@@UAEXXZ
	DD	FLAT:?_Decref@facet@locale@std@@UAEPAV_Facet_base@3@XZ
CONST	ENDS
;	COMDAT ??_C@_04LOAJBDKD@true@
CONST	SEGMENT
??_C@_04LOAJBDKD@true@ DB 'true', 00H			; `string'
CONST	ENDS
;	COMDAT ??_C@_05LAPONLG@false@
CONST	SEGMENT
??_C@_05LAPONLG@false@ DB 'false', 00H			; `string'
CONST	ENDS
;	COMDAT ??_C@_0BA@ELKIONDK@bad?5locale?5name@
CONST	SEGMENT
??_C@_0BA@ELKIONDK@bad?5locale?5name@ DB 'bad locale name', 00H ; `string'
CONST	ENDS
;	COMDAT ??_7_Facet_base@std@@6B@
CONST	SEGMENT
??_7_Facet_base@std@@6B@ DD FLAT:??_R4_Facet_base@std@@6B@ ; std::_Facet_base::`vftable'
	DD	FLAT:??_E_Facet_base@std@@UAEPAXI@Z
	DD	FLAT:__purecall
	DD	FLAT:__purecall
CONST	ENDS
;	COMDAT __CT??_R0?AVbad_cast@std@@@8??0bad_cast@std@@QAE@ABV01@@Z12
xdata$x	SEGMENT
__CT??_R0?AVbad_cast@std@@@8??0bad_cast@std@@QAE@ABV01@@Z12 DD 00H
	DD	FLAT:??_R0?AVbad_cast@std@@@8
	DD	00H
	DD	0ffffffffH
	ORG $+4
	DD	0cH
	DD	FLAT:??0bad_cast@std@@QAE@ABV01@@Z
xdata$x	ENDS
;	COMDAT ??_R0?AVbad_cast@std@@@8
data$r	SEGMENT
??_R0?AVbad_cast@std@@@8 DD FLAT:??_7type_info@@6B@	; std::bad_cast `RTTI Type Descriptor'
	DD	00H
	DB	'.?AVbad_cast@std@@', 00H
data$r	ENDS
;	COMDAT __CTA2?AVbad_cast@std@@
xdata$x	SEGMENT
__CTA2?AVbad_cast@std@@ DD 02H
	DD	FLAT:__CT??_R0?AVbad_cast@std@@@8??0bad_cast@std@@QAE@ABV01@@Z12
	DD	FLAT:__CT??_R0?AVexception@std@@@8??0exception@std@@QAE@ABV01@@Z12
xdata$x	ENDS
;	COMDAT __TI2?AVbad_cast@std@@
xdata$x	SEGMENT
__TI2?AVbad_cast@std@@ DD 00H
	DD	FLAT:??1bad_cast@std@@UAE@XZ
	DD	00H
	DD	FLAT:__CTA2?AVbad_cast@std@@
xdata$x	ENDS
;	COMDAT ??_C@_08EPJLHIJG@bad?5cast@
CONST	SEGMENT
??_C@_08EPJLHIJG@bad?5cast@ DB 'bad cast', 00H		; `string'
CONST	ENDS
;	COMDAT ??_7bad_cast@std@@6B@
CONST	SEGMENT
??_7bad_cast@std@@6B@ DD FLAT:??_R4bad_cast@std@@6B@	; std::bad_cast::`vftable'
	DD	FLAT:??_Ebad_cast@std@@UAEPAXI@Z
	DD	FLAT:?what@exception@std@@UBEPBDXZ
CONST	ENDS
;	COMDAT ?_Iostream_error@?4??message@_Iostream_error_category2@std@@UBE?AV?$basic_string@DU?$char_traits@D@std@@V?$allocator@D@2@@3@H@Z@4QBDB
CONST	SEGMENT
?_Iostream_error@?4??message@_Iostream_error_category2@std@@UBE?AV?$basic_string@DU?$char_traits@D@std@@V?$allocator@D@2@@3@H@Z@4QBDB DB 069H ; `std::_Iostream_error_category2::message'::`5'::_Iostream_error
	DB	06fH
	DB	073H
	DB	074H
	DB	072H
	DB	065H
	DB	061H
	DB	06dH
	DB	020H
	DB	073H
	DB	074H
	DB	072H
	DB	065H
	DB	061H
	DB	06dH
	DB	020H
	DB	065H
	DB	072H
	DB	072H
	DB	06fH
	DB	072H
	DB	00H
CONST	ENDS
;	COMDAT ??_C@_08LLGCOLLL@iostream@
CONST	SEGMENT
??_C@_08LLGCOLLL@iostream@ DB 'iostream', 00H		; `string'
CONST	ENDS
;	COMDAT ??_7_Iostream_error_category2@std@@6B@
CONST	SEGMENT
??_7_Iostream_error_category2@std@@6B@ DD FLAT:??_R4_Iostream_error_category2@std@@6B@ ; std::_Iostream_error_category2::`vftable'
	DD	FLAT:??_E_Iostream_error_category2@std@@UAEPAXI@Z
	DD	FLAT:?name@_Iostream_error_category2@std@@UBEPBDXZ
	DD	FLAT:?message@_Iostream_error_category2@std@@UBE?AV?$basic_string@DU?$char_traits@D@std@@V?$allocator@D@2@@2@H@Z
	DD	FLAT:?default_error_condition@error_category@std@@UBE?AVerror_condition@2@H@Z
	DD	FLAT:?equivalent@error_category@std@@UBE_NABVerror_code@2@H@Z
	DD	FLAT:?equivalent@error_category@std@@UBE_NHABVerror_condition@2@@Z
CONST	ENDS
;	COMDAT __CT??_R0?AV_System_error@std@@@8??0_System_error@std@@QAE@ABV01@@Z20
xdata$x	SEGMENT
__CT??_R0?AV_System_error@std@@@8??0_System_error@std@@QAE@ABV01@@Z20 DD 00H
	DD	FLAT:??_R0?AV_System_error@std@@@8
	DD	00H
	DD	0ffffffffH
	ORG $+4
	DD	014H
	DD	FLAT:??0_System_error@std@@QAE@ABV01@@Z
xdata$x	ENDS
;	COMDAT ??_R0?AV_System_error@std@@@8
data$r	SEGMENT
??_R0?AV_System_error@std@@@8 DD FLAT:??_7type_info@@6B@ ; std::_System_error `RTTI Type Descriptor'
	DD	00H
	DB	'.?AV_System_error@std@@', 00H
data$r	ENDS
;	COMDAT __CT??_R0?AVsystem_error@std@@@8??0system_error@std@@QAE@ABV01@@Z20
xdata$x	SEGMENT
__CT??_R0?AVsystem_error@std@@@8??0system_error@std@@QAE@ABV01@@Z20 DD 00H
	DD	FLAT:??_R0?AVsystem_error@std@@@8
	DD	00H
	DD	0ffffffffH
	ORG $+4
	DD	014H
	DD	FLAT:??0system_error@std@@QAE@ABV01@@Z
xdata$x	ENDS
;	COMDAT ??_R0?AVsystem_error@std@@@8
data$r	SEGMENT
??_R0?AVsystem_error@std@@@8 DD FLAT:??_7type_info@@6B@	; std::system_error `RTTI Type Descriptor'
	DD	00H
	DB	'.?AVsystem_error@std@@', 00H
data$r	ENDS
;	COMDAT ??_7system_error@std@@6B@
CONST	SEGMENT
??_7system_error@std@@6B@ DD FLAT:??_R4system_error@std@@6B@ ; std::system_error::`vftable'
	DD	FLAT:??_Esystem_error@std@@UAEPAXI@Z
	DD	FLAT:?what@exception@std@@UBEPBDXZ
CONST	ENDS
;	COMDAT ??_C@_02LMMGGCAJ@?3?5@
CONST	SEGMENT
??_C@_02LMMGGCAJ@?3?5@ DB ': ', 00H			; `string'
CONST	ENDS
;	COMDAT ??_7_System_error@std@@6B@
CONST	SEGMENT
??_7_System_error@std@@6B@ DD FLAT:??_R4_System_error@std@@6B@ ; std::_System_error::`vftable'
	DD	FLAT:??_E_System_error@std@@UAEPAXI@Z
	DD	FLAT:?what@exception@std@@UBEPBDXZ
CONST	ENDS
;	COMDAT __CT??_R0?AVruntime_error@std@@@8??0runtime_error@std@@QAE@ABV01@@Z12
xdata$x	SEGMENT
__CT??_R0?AVruntime_error@std@@@8??0runtime_error@std@@QAE@ABV01@@Z12 DD 00H
	DD	FLAT:??_R0?AVruntime_error@std@@@8
	DD	00H
	DD	0ffffffffH
	ORG $+4
	DD	0cH
	DD	FLAT:??0runtime_error@std@@QAE@ABV01@@Z
xdata$x	ENDS
;	COMDAT ??_R0?AVruntime_error@std@@@8
data$r	SEGMENT
??_R0?AVruntime_error@std@@@8 DD FLAT:??_7type_info@@6B@ ; std::runtime_error `RTTI Type Descriptor'
	DD	00H
	DB	'.?AVruntime_error@std@@', 00H
data$r	ENDS
;	COMDAT ??_7runtime_error@std@@6B@
CONST	SEGMENT
??_7runtime_error@std@@6B@ DD FLAT:??_R4runtime_error@std@@6B@ ; std::runtime_error::`vftable'
	DD	FLAT:??_Eruntime_error@std@@UAEPAXI@Z
	DD	FLAT:?what@exception@std@@UBEPBDXZ
CONST	ENDS
;	COMDAT ??_C@_0BA@JFNIOLAK@string?5too?5long@
CONST	SEGMENT
??_C@_0BA@JFNIOLAK@string?5too?5long@ DB 'string too long', 00H ; `string'
CONST	ENDS
;	COMDAT __CT??_R0?AVbad_alloc@std@@@8??0bad_alloc@std@@QAE@ABV01@@Z12
xdata$x	SEGMENT
__CT??_R0?AVbad_alloc@std@@@8??0bad_alloc@std@@QAE@ABV01@@Z12 DD 010H
	DD	FLAT:??_R0?AVbad_alloc@std@@@8
	DD	00H
	DD	0ffffffffH
	ORG $+4
	DD	0cH
	DD	FLAT:??0bad_alloc@std@@QAE@ABV01@@Z
xdata$x	ENDS
;	COMDAT ??_R0?AVbad_alloc@std@@@8
data$r	SEGMENT
??_R0?AVbad_alloc@std@@@8 DD FLAT:??_7type_info@@6B@	; std::bad_alloc `RTTI Type Descriptor'
	DD	00H
	DB	'.?AVbad_alloc@std@@', 00H
data$r	ENDS
;	COMDAT __CT??_R0?AVbad_array_new_length@std@@@8??0bad_array_new_length@std@@QAE@ABV01@@Z12
xdata$x	SEGMENT
__CT??_R0?AVbad_array_new_length@std@@@8??0bad_array_new_length@std@@QAE@ABV01@@Z12 DD 00H
	DD	FLAT:??_R0?AVbad_array_new_length@std@@@8
	DD	00H
	DD	0ffffffffH
	ORG $+4
	DD	0cH
	DD	FLAT:??0bad_array_new_length@std@@QAE@ABV01@@Z
xdata$x	ENDS
;	COMDAT ??_R0?AVbad_array_new_length@std@@@8
data$r	SEGMENT
??_R0?AVbad_array_new_length@std@@@8 DD FLAT:??_7type_info@@6B@ ; std::bad_array_new_length `RTTI Type Descriptor'
	DD	00H
	DB	'.?AVbad_array_new_length@std@@', 00H
data$r	ENDS
;	COMDAT __CTA3?AVbad_array_new_length@std@@
xdata$x	SEGMENT
__CTA3?AVbad_array_new_length@std@@ DD 03H
	DD	FLAT:__CT??_R0?AVbad_array_new_length@std@@@8??0bad_array_new_length@std@@QAE@ABV01@@Z12
	DD	FLAT:__CT??_R0?AVbad_alloc@std@@@8??0bad_alloc@std@@QAE@ABV01@@Z12
	DD	FLAT:__CT??_R0?AVexception@std@@@8??0exception@std@@QAE@ABV01@@Z12
xdata$x	ENDS
;	COMDAT __TI3?AVbad_array_new_length@std@@
xdata$x	SEGMENT
__TI3?AVbad_array_new_length@std@@ DD 00H
	DD	FLAT:??1bad_array_new_length@std@@UAE@XZ
	DD	00H
	DD	FLAT:__CTA3?AVbad_array_new_length@std@@
xdata$x	ENDS
;	COMDAT __CT??_R0?AVexception@std@@@8??0exception@std@@QAE@ABV01@@Z12
xdata$x	SEGMENT
__CT??_R0?AVexception@std@@@8??0exception@std@@QAE@ABV01@@Z12 DD 00H
	DD	FLAT:??_R0?AVexception@std@@@8
	DD	00H
	DD	0ffffffffH
	ORG $+4
	DD	0cH
	DD	FLAT:??0exception@std@@QAE@ABV01@@Z
xdata$x	ENDS
;	COMDAT ??_R0?AVexception@std@@@8
data$r	SEGMENT
??_R0?AVexception@std@@@8 DD FLAT:??_7type_info@@6B@	; std::exception `RTTI Type Descriptor'
	DD	00H
	DB	'.?AVexception@std@@', 00H
data$r	ENDS
;	COMDAT ??_C@_0BF@KINCDENJ@bad?5array?5new?5length@
CONST	SEGMENT
??_C@_0BF@KINCDENJ@bad?5array?5new?5length@ DB 'bad array new length', 00H ; `string'
CONST	ENDS
;	COMDAT ??_7bad_array_new_length@std@@6B@
CONST	SEGMENT
??_7bad_array_new_length@std@@6B@ DD FLAT:??_R4bad_array_new_length@std@@6B@ ; std::bad_array_new_length::`vftable'
	DD	FLAT:??_Ebad_array_new_length@std@@UAEPAXI@Z
	DD	FLAT:?what@exception@std@@UBEPBDXZ
CONST	ENDS
;	COMDAT ??_7bad_alloc@std@@6B@
CONST	SEGMENT
??_7bad_alloc@std@@6B@ DD FLAT:??_R4bad_alloc@std@@6B@	; std::bad_alloc::`vftable'
	DD	FLAT:??_Ebad_alloc@std@@UAEPAXI@Z
	DD	FLAT:?what@exception@std@@UBEPBDXZ
CONST	ENDS
;	COMDAT ??_C@_0BC@EOODALEL@Unknown?5exception@
CONST	SEGMENT
??_C@_0BC@EOODALEL@Unknown?5exception@ DB 'Unknown exception', 00H ; `string'
CONST	ENDS
;	COMDAT ??_7exception@std@@6B@
CONST	SEGMENT
??_7exception@std@@6B@ DD FLAT:??_R4exception@std@@6B@	; std::exception::`vftable'
	DD	FLAT:??_Eexception@std@@UAEPAXI@Z
	DD	FLAT:?what@exception@std@@UBEPBDXZ
CONST	ENDS
;	COMDAT xdata$x
xdata$x	SEGMENT
__unwindtable$??$_Getloctxt@V?$istreambuf_iterator@DU?$char_traits@D@std@@@std@@D@std@@YAHAAV?$istreambuf_iterator@DU?$char_traits@D@std@@@0@0IPBDW4_Case_sensitive@0@@Z DD 0ffffffffH
	DD	FLAT:__unwindfunclet$??$_Getloctxt@V?$istreambuf_iterator@DU?$char_traits@D@std@@@std@@D@std@@YAHAAV?$istreambuf_iterator@DU?$char_traits@D@std@@@0@0IPBDW4_Case_sensitive@0@@Z$0
	DD	00H
	DD	FLAT:___std_terminate
	DD	00H
	DD	FLAT:__unwindfunclet$??$_Getloctxt@V?$istreambuf_iterator@DU?$char_traits@D@std@@@std@@D@std@@YAHAAV?$istreambuf_iterator@DU?$char_traits@D@std@@@0@0IPBDW4_Case_sensitive@0@@Z$1
__ehfuncinfo$??$_Getloctxt@V?$istreambuf_iterator@DU?$char_traits@D@std@@@std@@D@std@@YAHAAV?$istreambuf_iterator@DU?$char_traits@D@std@@@0@0IPBDW4_Case_sensitive@0@@Z DD 019930522H
	DD	03H
	DD	FLAT:__unwindtable$??$_Getloctxt@V?$istreambuf_iterator@DU?$char_traits@D@std@@@std@@D@std@@YAHAAV?$istreambuf_iterator@DU?$char_traits@D@std@@@0@0IPBDW4_Case_sensitive@0@@Z
	DD	2 DUP(00H)
	DD	2 DUP(00H)
	DD	00H
	DD	01H
xdata$x	ENDS
;	COMDAT xdata$x
xdata$x	SEGMENT
__unwindtable$?_Init@?$numpunct@D@std@@IAEXABV_Locinfo@2@_N@Z DD 0ffffffffH
	DD	FLAT:__unwindfunclet$?_Init@?$numpunct@D@std@@IAEXABV_Locinfo@2@_N@Z$0
__ehfuncinfo$?_Init@?$numpunct@D@std@@IAEXABV_Locinfo@2@_N@Z DD 019930522H
	DD	01H
	DD	FLAT:__unwindtable$?_Init@?$numpunct@D@std@@IAEXABV_Locinfo@2@_N@Z
	DD	2 DUP(00H)
	DD	2 DUP(00H)
	DD	00H
	DD	01H
xdata$x	ENDS
;	COMDAT xdata$x
xdata$x	SEGMENT
__ehfuncinfo$?_Getcat@?$numpunct@D@std@@SAIPAPBVfacet@locale@2@PBV42@@Z DD 019930522H
	DD	05H
	DD	FLAT:__unwindtable$?_Getcat@?$numpunct@D@std@@SAIPAPBVfacet@locale@2@PBV42@@Z
	DD	2 DUP(00H)
	DD	2 DUP(00H)
	DD	00H
	DD	01H
__unwindtable$?_Getcat@?$numpunct@D@std@@SAIPAPBVfacet@locale@2@PBV42@@Z DD 0ffffffffH
	DD	FLAT:__unwindfunclet$?_Getcat@?$numpunct@D@std@@SAIPAPBVfacet@locale@2@PBV42@@Z$0
	DD	00H
	DD	FLAT:__unwindfunclet$?_Getcat@?$numpunct@D@std@@SAIPAPBVfacet@locale@2@PBV42@@Z$1
	DD	01H
	DD	FLAT:__unwindfunclet$?_Getcat@?$numpunct@D@std@@SAIPAPBVfacet@locale@2@PBV42@@Z$2
	DD	02H
	DD	FLAT:__unwindfunclet$?_Getcat@?$numpunct@D@std@@SAIPAPBVfacet@locale@2@PBV42@@Z$4
	DD	0ffffffffH
	DD	FLAT:__unwindfunclet$?_Getcat@?$numpunct@D@std@@SAIPAPBVfacet@locale@2@PBV42@@Z$1
xdata$x	ENDS
;	COMDAT xdata$x
xdata$x	SEGMENT
__unwindtable$??0?$numpunct@D@std@@QAE@ABV_Locinfo@1@I_N@Z DD 0ffffffffH
	DD	FLAT:__unwindfunclet$??0?$numpunct@D@std@@QAE@ABV_Locinfo@1@I_N@Z$0
	DD	00H
	DD	FLAT:__unwindfunclet$??0?$numpunct@D@std@@QAE@ABV_Locinfo@1@I_N@Z$2
__ehfuncinfo$??0?$numpunct@D@std@@QAE@ABV_Locinfo@1@I_N@Z DD 019930522H
	DD	02H
	DD	FLAT:__unwindtable$??0?$numpunct@D@std@@QAE@ABV_Locinfo@1@I_N@Z
	DD	2 DUP(00H)
	DD	2 DUP(00H)
	DD	00H
	DD	01H
xdata$x	ENDS
;	COMDAT xdata$x
xdata$x	SEGMENT
__ehfuncinfo$??$use_facet@V?$numpunct@D@std@@@std@@YAABV?$numpunct@D@0@ABVlocale@0@@Z DD 019930522H
	DD	07H
	DD	FLAT:__unwindtable$??$use_facet@V?$numpunct@D@std@@@std@@YAABV?$numpunct@D@0@ABVlocale@0@@Z
	DD	2 DUP(00H)
	DD	2 DUP(00H)
	DD	00H
	DD	01H
__unwindtable$??$use_facet@V?$numpunct@D@std@@@std@@YAABV?$numpunct@D@0@ABVlocale@0@@Z DD 0ffffffffH
	DD	FLAT:__unwindfunclet$??$use_facet@V?$numpunct@D@std@@@std@@YAABV?$numpunct@D@0@ABVlocale@0@@Z$0
	DD	00H
	DD	FLAT:__unwindfunclet$??$use_facet@V?$numpunct@D@std@@@std@@YAABV?$numpunct@D@0@ABVlocale@0@@Z$2
	DD	01H
	DD	FLAT:__unwindfunclet$??$use_facet@V?$numpunct@D@std@@@std@@YAABV?$numpunct@D@0@ABVlocale@0@@Z$3
	DD	02H
	DD	FLAT:__unwindfunclet$??$use_facet@V?$numpunct@D@std@@@std@@YAABV?$numpunct@D@0@ABVlocale@0@@Z$4
	DD	03H
	DD	FLAT:__unwindfunclet$??$use_facet@V?$numpunct@D@std@@@std@@YAABV?$numpunct@D@0@ABVlocale@0@@Z$6
	DD	00H
	DD	FLAT:__unwindfunclet$??$use_facet@V?$numpunct@D@std@@@std@@YAABV?$numpunct@D@0@ABVlocale@0@@Z$3
	DD	00H
	DD	FLAT:__unwindfunclet$??$use_facet@V?$numpunct@D@std@@@std@@YAABV?$numpunct@D@0@ABVlocale@0@@Z$1
xdata$x	ENDS
;	COMDAT xdata$x
xdata$x	SEGMENT
__unwindtable$??$_Parse_fp_with_locale@$0A@@?$num_get@DV?$istreambuf_iterator@DU?$char_traits@D@std@@@std@@@std@@CA?AU_Num_get_parse_result@1@QADHAAV?$istreambuf_iterator@DU?$char_traits@D@std@@@1@1ABVlocale@1@@Z DD 0ffffffffH
	DD	FLAT:__unwindfunclet$??$_Parse_fp_with_locale@$0A@@?$num_get@DV?$istreambuf_iterator@DU?$char_traits@D@std@@@std@@@std@@CA?AU_Num_get_parse_result@1@QADHAAV?$istreambuf_iterator@DU?$char_traits@D@std@@@1@1ABVlocale@1@@Z$0
	DD	00H
	DD	FLAT:__unwindfunclet$??$_Parse_fp_with_locale@$0A@@?$num_get@DV?$istreambuf_iterator@DU?$char_traits@D@std@@@std@@@std@@CA?AU_Num_get_parse_result@1@QADHAAV?$istreambuf_iterator@DU?$char_traits@D@std@@@1@1ABVlocale@1@@Z$1
__ehfuncinfo$??$_Parse_fp_with_locale@$0A@@?$num_get@DV?$istreambuf_iterator@DU?$char_traits@D@std@@@std@@@std@@CA?AU_Num_get_parse_result@1@QADHAAV?$istreambuf_iterator@DU?$char_traits@D@std@@@1@1ABVlocale@1@@Z DD 019930522H
	DD	02H
	DD	FLAT:__unwindtable$??$_Parse_fp_with_locale@$0A@@?$num_get@DV?$istreambuf_iterator@DU?$char_traits@D@std@@@std@@@std@@CA?AU_Num_get_parse_result@1@QADHAAV?$istreambuf_iterator@DU?$char_traits@D@std@@@1@1ABVlocale@1@@Z
	DD	2 DUP(00H)
	DD	2 DUP(00H)
	DD	00H
	DD	01H
xdata$x	ENDS
;	COMDAT xdata$x
xdata$x	SEGMENT
__unwindtable$??$_Parse_int_with_locale@$0A@@?$num_get@DV?$istreambuf_iterator@DU?$char_traits@D@std@@@std@@@std@@CA?AU_Num_get_parse_result@1@QADAAV?$istreambuf_iterator@DU?$char_traits@D@std@@@1@1HABVlocale@1@@Z DD 0ffffffffH
	DD	FLAT:__unwindfunclet$??$_Parse_int_with_locale@$0A@@?$num_get@DV?$istreambuf_iterator@DU?$char_traits@D@std@@@std@@@std@@CA?AU_Num_get_parse_result@1@QADAAV?$istreambuf_iterator@DU?$char_traits@D@std@@@1@1HABVlocale@1@@Z$0
	DD	00H
	DD	FLAT:__unwindfunclet$??$_Parse_int_with_locale@$0A@@?$num_get@DV?$istreambuf_iterator@DU?$char_traits@D@std@@@std@@@std@@CA?AU_Num_get_parse_result@1@QADAAV?$istreambuf_iterator@DU?$char_traits@D@std@@@1@1HABVlocale@1@@Z$1
__ehfuncinfo$??$_Parse_int_with_locale@$0A@@?$num_get@DV?$istreambuf_iterator@DU?$char_traits@D@std@@@std@@@std@@CA?AU_Num_get_parse_result@1@QADAAV?$istreambuf_iterator@DU?$char_traits@D@std@@@1@1HABVlocale@1@@Z DD 019930522H
	DD	02H
	DD	FLAT:__unwindtable$??$_Parse_int_with_locale@$0A@@?$num_get@DV?$istreambuf_iterator@DU?$char_traits@D@std@@@std@@@std@@CA?AU_Num_get_parse_result@1@QADAAV?$istreambuf_iterator@DU?$char_traits@D@std@@@1@1HABVlocale@1@@Z
	DD	2 DUP(00H)
	DD	2 DUP(00H)
	DD	00H
	DD	01H
xdata$x	ENDS
;	COMDAT xdata$x
xdata$x	SEGMENT
__unwindtable$?_Init@?$numpunct@_W@std@@IAEXABV_Locinfo@2@_N@Z DD 0ffffffffH
	DD	FLAT:__unwindfunclet$?_Init@?$numpunct@_W@std@@IAEXABV_Locinfo@2@_N@Z$0
__ehfuncinfo$?_Init@?$numpunct@_W@std@@IAEXABV_Locinfo@2@_N@Z DD 019930522H
	DD	01H
	DD	FLAT:__unwindtable$?_Init@?$numpunct@_W@std@@IAEXABV_Locinfo@2@_N@Z
	DD	2 DUP(00H)
	DD	2 DUP(00H)
	DD	00H
	DD	01H
xdata$x	ENDS
;	COMDAT xdata$x
xdata$x	SEGMENT
__ehfuncinfo$?_Getcat@?$numpunct@_W@std@@SAIPAPBVfacet@locale@2@PBV42@@Z DD 019930522H
	DD	05H
	DD	FLAT:__unwindtable$?_Getcat@?$numpunct@_W@std@@SAIPAPBVfacet@locale@2@PBV42@@Z
	DD	2 DUP(00H)
	DD	2 DUP(00H)
	DD	00H
	DD	01H
__unwindtable$?_Getcat@?$numpunct@_W@std@@SAIPAPBVfacet@locale@2@PBV42@@Z DD 0ffffffffH
	DD	FLAT:__unwindfunclet$?_Getcat@?$numpunct@_W@std@@SAIPAPBVfacet@locale@2@PBV42@@Z$0
	DD	00H
	DD	FLAT:__unwindfunclet$?_Getcat@?$numpunct@_W@std@@SAIPAPBVfacet@locale@2@PBV42@@Z$1
	DD	01H
	DD	FLAT:__unwindfunclet$?_Getcat@?$numpunct@_W@std@@SAIPAPBVfacet@locale@2@PBV42@@Z$2
	DD	02H
	DD	FLAT:__unwindfunclet$?_Getcat@?$numpunct@_W@std@@SAIPAPBVfacet@locale@2@PBV42@@Z$4
	DD	0ffffffffH
	DD	FLAT:__unwindfunclet$?_Getcat@?$numpunct@_W@std@@SAIPAPBVfacet@locale@2@PBV42@@Z$1
xdata$x	ENDS
;	COMDAT xdata$x
xdata$x	SEGMENT
__unwindtable$??0?$numpunct@_W@std@@QAE@ABV_Locinfo@1@I_N@Z DD 0ffffffffH
	DD	FLAT:__unwindfunclet$??0?$numpunct@_W@std@@QAE@ABV_Locinfo@1@I_N@Z$0
	DD	00H
	DD	FLAT:__unwindfunclet$??0?$numpunct@_W@std@@QAE@ABV_Locinfo@1@I_N@Z$2
__ehfuncinfo$??0?$numpunct@_W@std@@QAE@ABV_Locinfo@1@I_N@Z DD 019930522H
	DD	02H
	DD	FLAT:__unwindtable$??0?$numpunct@_W@std@@QAE@ABV_Locinfo@1@I_N@Z
	DD	2 DUP(00H)
	DD	2 DUP(00H)
	DD	00H
	DD	01H
xdata$x	ENDS
;	COMDAT xdata$x
xdata$x	SEGMENT
__unwindtable$??$use_facet@V?$numpunct@_W@std@@@std@@YAABV?$numpunct@_W@0@ABVlocale@0@@Z DD 0ffffffffH
	DD	FLAT:__unwindfunclet$??$use_facet@V?$numpunct@_W@std@@@std@@YAABV?$numpunct@_W@0@ABVlocale@0@@Z$0
	DD	00H
	DD	FLAT:__unwindfunclet$??$use_facet@V?$numpunct@_W@std@@@std@@YAABV?$numpunct@_W@0@ABVlocale@0@@Z$1
__ehfuncinfo$??$use_facet@V?$numpunct@_W@std@@@std@@YAABV?$numpunct@_W@0@ABVlocale@0@@Z DD 019930522H
	DD	02H
	DD	FLAT:__unwindtable$??$use_facet@V?$numpunct@_W@std@@@std@@YAABV?$numpunct@_W@0@ABVlocale@0@@Z
	DD	2 DUP(00H)
	DD	2 DUP(00H)
	DD	00H
	DD	01H
xdata$x	ENDS
;	COMDAT xdata$x
xdata$x	SEGMENT
__unwindtable$??$_Fput_v3@$0A@@?$num_put@_WV?$ostreambuf_iterator@_WU?$char_traits@_W@std@@@std@@@std@@ABE?AV?$ostreambuf_iterator@_WU?$char_traits@_W@std@@@1@V21@AAVios_base@1@_WPBDI_N@Z DD 0ffffffffH
	DD	FLAT:__unwindfunclet$??$_Fput_v3@$0A@@?$num_put@_WV?$ostreambuf_iterator@_WU?$char_traits@_W@std@@@std@@@std@@ABE?AV?$ostreambuf_iterator@_WU?$char_traits@_W@std@@@1@V21@AAVios_base@1@_WPBDI_N@Z$0
	DD	0ffffffffH
	DD	FLAT:__unwindfunclet$??$_Fput_v3@$0A@@?$num_put@_WV?$ostreambuf_iterator@_WU?$char_traits@_W@std@@@std@@@std@@ABE?AV?$ostreambuf_iterator@_WU?$char_traits@_W@std@@@1@V21@AAVios_base@1@_WPBDI_N@Z$1
	DD	01H
	DD	FLAT:__unwindfunclet$??$_Fput_v3@$0A@@?$num_put@_WV?$ostreambuf_iterator@_WU?$char_traits@_W@std@@@std@@@std@@ABE?AV?$ostreambuf_iterator@_WU?$char_traits@_W@std@@@1@V21@AAVios_base@1@_WPBDI_N@Z$2
	DD	01H
	DD	FLAT:__unwindfunclet$??$_Fput_v3@$0A@@?$num_put@_WV?$ostreambuf_iterator@_WU?$char_traits@_W@std@@@std@@@std@@ABE?AV?$ostreambuf_iterator@_WU?$char_traits@_W@std@@@1@V21@AAVios_base@1@_WPBDI_N@Z$3
__ehfuncinfo$??$_Fput_v3@$0A@@?$num_put@_WV?$ostreambuf_iterator@_WU?$char_traits@_W@std@@@std@@@std@@ABE?AV?$ostreambuf_iterator@_WU?$char_traits@_W@std@@@1@V21@AAVios_base@1@_WPBDI_N@Z DD 019930522H
	DD	04H
	DD	FLAT:__unwindtable$??$_Fput_v3@$0A@@?$num_put@_WV?$ostreambuf_iterator@_WU?$char_traits@_W@std@@@std@@@std@@ABE?AV?$ostreambuf_iterator@_WU?$char_traits@_W@std@@@1@V21@AAVios_base@1@_WPBDI_N@Z
	DD	2 DUP(00H)
	DD	2 DUP(00H)
	DD	00H
	DD	01H
xdata$x	ENDS
;	COMDAT xdata$x
xdata$x	SEGMENT
__unwindtable$?do_get@?$num_get@DV?$istreambuf_iterator@DU?$char_traits@D@std@@@std@@@std@@MBE?AV?$istreambuf_iterator@DU?$char_traits@D@std@@@2@V32@0AAVios_base@2@AAHAAPAX@Z DD 0ffffffffH
	DD	FLAT:__unwindfunclet$?do_get@?$num_get@DV?$istreambuf_iterator@DU?$char_traits@D@std@@@std@@@std@@MBE?AV?$istreambuf_iterator@DU?$char_traits@D@std@@@2@V32@0AAVios_base@2@AAHAAPAX@Z$0
__ehfuncinfo$?do_get@?$num_get@DV?$istreambuf_iterator@DU?$char_traits@D@std@@@std@@@std@@MBE?AV?$istreambuf_iterator@DU?$char_traits@D@std@@@2@V32@0AAVios_base@2@AAHAAPAX@Z DD 019930522H
	DD	01H
	DD	FLAT:__unwindtable$?do_get@?$num_get@DV?$istreambuf_iterator@DU?$char_traits@D@std@@@std@@@std@@MBE?AV?$istreambuf_iterator@DU?$char_traits@D@std@@@2@V32@0AAVios_base@2@AAHAAPAX@Z
	DD	2 DUP(00H)
	DD	2 DUP(00H)
	DD	00H
	DD	01H
xdata$x	ENDS
;	COMDAT xdata$x
xdata$x	SEGMENT
__unwindtable$?do_get@?$num_get@DV?$istreambuf_iterator@DU?$char_traits@D@std@@@std@@@std@@MBE?AV?$istreambuf_iterator@DU?$char_traits@D@std@@@2@V32@0AAVios_base@2@AAHAAO@Z DD 0ffffffffH
	DD	FLAT:__unwindfunclet$?do_get@?$num_get@DV?$istreambuf_iterator@DU?$char_traits@D@std@@@std@@@std@@MBE?AV?$istreambuf_iterator@DU?$char_traits@D@std@@@2@V32@0AAVios_base@2@AAHAAO@Z$0
__ehfuncinfo$?do_get@?$num_get@DV?$istreambuf_iterator@DU?$char_traits@D@std@@@std@@@std@@MBE?AV?$istreambuf_iterator@DU?$char_traits@D@std@@@2@V32@0AAVios_base@2@AAHAAO@Z DD 019930522H
	DD	01H
	DD	FLAT:__unwindtable$?do_get@?$num_get@DV?$istreambuf_iterator@DU?$char_traits@D@std@@@std@@@std@@MBE?AV?$istreambuf_iterator@DU?$char_traits@D@std@@@2@V32@0AAVios_base@2@AAHAAO@Z
	DD	2 DUP(00H)
	DD	2 DUP(00H)
	DD	00H
	DD	01H
xdata$x	ENDS
;	COMDAT xdata$x
xdata$x	SEGMENT
__unwindtable$?do_get@?$num_get@DV?$istreambuf_iterator@DU?$char_traits@D@std@@@std@@@std@@MBE?AV?$istreambuf_iterator@DU?$char_traits@D@std@@@2@V32@0AAVios_base@2@AAHAAN@Z DD 0ffffffffH
	DD	FLAT:__unwindfunclet$?do_get@?$num_get@DV?$istreambuf_iterator@DU?$char_traits@D@std@@@std@@@std@@MBE?AV?$istreambuf_iterator@DU?$char_traits@D@std@@@2@V32@0AAVios_base@2@AAHAAN@Z$0
__ehfuncinfo$?do_get@?$num_get@DV?$istreambuf_iterator@DU?$char_traits@D@std@@@std@@@std@@MBE?AV?$istreambuf_iterator@DU?$char_traits@D@std@@@2@V32@0AAVios_base@2@AAHAAN@Z DD 019930522H
	DD	01H
	DD	FLAT:__unwindtable$?do_get@?$num_get@DV?$istreambuf_iterator@DU?$char_traits@D@std@@@std@@@std@@MBE?AV?$istreambuf_iterator@DU?$char_traits@D@std@@@2@V32@0AAVios_base@2@AAHAAN@Z
	DD	2 DUP(00H)
	DD	2 DUP(00H)
	DD	00H
	DD	01H
xdata$x	ENDS
;	COMDAT xdata$x
xdata$x	SEGMENT
__unwindtable$?do_get@?$num_get@DV?$istreambuf_iterator@DU?$char_traits@D@std@@@std@@@std@@MBE?AV?$istreambuf_iterator@DU?$char_traits@D@std@@@2@V32@0AAVios_base@2@AAHAAM@Z DD 0ffffffffH
	DD	FLAT:__unwindfunclet$?do_get@?$num_get@DV?$istreambuf_iterator@DU?$char_traits@D@std@@@std@@@std@@MBE?AV?$istreambuf_iterator@DU?$char_traits@D@std@@@2@V32@0AAVios_base@2@AAHAAM@Z$0
__ehfuncinfo$?do_get@?$num_get@DV?$istreambuf_iterator@DU?$char_traits@D@std@@@std@@@std@@MBE?AV?$istreambuf_iterator@DU?$char_traits@D@std@@@2@V32@0AAVios_base@2@AAHAAM@Z DD 019930522H
	DD	01H
	DD	FLAT:__unwindtable$?do_get@?$num_get@DV?$istreambuf_iterator@DU?$char_traits@D@std@@@std@@@std@@MBE?AV?$istreambuf_iterator@DU?$char_traits@D@std@@@2@V32@0AAVios_base@2@AAHAAM@Z
	DD	2 DUP(00H)
	DD	2 DUP(00H)
	DD	00H
	DD	01H
xdata$x	ENDS
;	COMDAT xdata$x
xdata$x	SEGMENT
__unwindtable$?do_get@?$num_get@DV?$istreambuf_iterator@DU?$char_traits@D@std@@@std@@@std@@MBE?AV?$istreambuf_iterator@DU?$char_traits@D@std@@@2@V32@0AAVios_base@2@AAHAA_K@Z DD 0ffffffffH
	DD	FLAT:__unwindfunclet$?do_get@?$num_get@DV?$istreambuf_iterator@DU?$char_traits@D@std@@@std@@@std@@MBE?AV?$istreambuf_iterator@DU?$char_traits@D@std@@@2@V32@0AAVios_base@2@AAHAA_K@Z$0
__ehfuncinfo$?do_get@?$num_get@DV?$istreambuf_iterator@DU?$char_traits@D@std@@@std@@@std@@MBE?AV?$istreambuf_iterator@DU?$char_traits@D@std@@@2@V32@0AAVios_base@2@AAHAA_K@Z DD 019930522H
	DD	01H
	DD	FLAT:__unwindtable$?do_get@?$num_get@DV?$istreambuf_iterator@DU?$char_traits@D@std@@@std@@@std@@MBE?AV?$istreambuf_iterator@DU?$char_traits@D@std@@@2@V32@0AAVios_base@2@AAHAA_K@Z
	DD	2 DUP(00H)
	DD	2 DUP(00H)
	DD	00H
	DD	01H
xdata$x	ENDS
;	COMDAT xdata$x
xdata$x	SEGMENT
__unwindtable$?do_get@?$num_get@DV?$istreambuf_iterator@DU?$char_traits@D@std@@@std@@@std@@MBE?AV?$istreambuf_iterator@DU?$char_traits@D@std@@@2@V32@0AAVios_base@2@AAHAA_J@Z DD 0ffffffffH
	DD	FLAT:__unwindfunclet$?do_get@?$num_get@DV?$istreambuf_iterator@DU?$char_traits@D@std@@@std@@@std@@MBE?AV?$istreambuf_iterator@DU?$char_traits@D@std@@@2@V32@0AAVios_base@2@AAHAA_J@Z$0
__ehfuncinfo$?do_get@?$num_get@DV?$istreambuf_iterator@DU?$char_traits@D@std@@@std@@@std@@MBE?AV?$istreambuf_iterator@DU?$char_traits@D@std@@@2@V32@0AAVios_base@2@AAHAA_J@Z DD 019930522H
	DD	01H
	DD	FLAT:__unwindtable$?do_get@?$num_get@DV?$istreambuf_iterator@DU?$char_traits@D@std@@@std@@@std@@MBE?AV?$istreambuf_iterator@DU?$char_traits@D@std@@@2@V32@0AAVios_base@2@AAHAA_J@Z
	DD	2 DUP(00H)
	DD	2 DUP(00H)
	DD	00H
	DD	01H
xdata$x	ENDS
;	COMDAT xdata$x
xdata$x	SEGMENT
__unwindtable$?do_get@?$num_get@DV?$istreambuf_iterator@DU?$char_traits@D@std@@@std@@@std@@MBE?AV?$istreambuf_iterator@DU?$char_traits@D@std@@@2@V32@0AAVios_base@2@AAHAAK@Z DD 0ffffffffH
	DD	FLAT:__unwindfunclet$?do_get@?$num_get@DV?$istreambuf_iterator@DU?$char_traits@D@std@@@std@@@std@@MBE?AV?$istreambuf_iterator@DU?$char_traits@D@std@@@2@V32@0AAVios_base@2@AAHAAK@Z$0
__ehfuncinfo$?do_get@?$num_get@DV?$istreambuf_iterator@DU?$char_traits@D@std@@@std@@@std@@MBE?AV?$istreambuf_iterator@DU?$char_traits@D@std@@@2@V32@0AAVios_base@2@AAHAAK@Z DD 019930522H
	DD	01H
	DD	FLAT:__unwindtable$?do_get@?$num_get@DV?$istreambuf_iterator@DU?$char_traits@D@std@@@std@@@std@@MBE?AV?$istreambuf_iterator@DU?$char_traits@D@std@@@2@V32@0AAVios_base@2@AAHAAK@Z
	DD	2 DUP(00H)
	DD	2 DUP(00H)
	DD	00H
	DD	01H
xdata$x	ENDS
;	COMDAT xdata$x
xdata$x	SEGMENT
__unwindtable$?do_get@?$num_get@DV?$istreambuf_iterator@DU?$char_traits@D@std@@@std@@@std@@MBE?AV?$istreambuf_iterator@DU?$char_traits@D@std@@@2@V32@0AAVios_base@2@AAHAAJ@Z DD 0ffffffffH
	DD	FLAT:__unwindfunclet$?do_get@?$num_get@DV?$istreambuf_iterator@DU?$char_traits@D@std@@@std@@@std@@MBE?AV?$istreambuf_iterator@DU?$char_traits@D@std@@@2@V32@0AAVios_base@2@AAHAAJ@Z$0
__ehfuncinfo$?do_get@?$num_get@DV?$istreambuf_iterator@DU?$char_traits@D@std@@@std@@@std@@MBE?AV?$istreambuf_iterator@DU?$char_traits@D@std@@@2@V32@0AAVios_base@2@AAHAAJ@Z DD 019930522H
	DD	01H
	DD	FLAT:__unwindtable$?do_get@?$num_get@DV?$istreambuf_iterator@DU?$char_traits@D@std@@@std@@@std@@MBE?AV?$istreambuf_iterator@DU?$char_traits@D@std@@@2@V32@0AAVios_base@2@AAHAAJ@Z
	DD	2 DUP(00H)
	DD	2 DUP(00H)
	DD	00H
	DD	01H
xdata$x	ENDS
;	COMDAT xdata$x
xdata$x	SEGMENT
__unwindtable$?do_get@?$num_get@DV?$istreambuf_iterator@DU?$char_traits@D@std@@@std@@@std@@MBE?AV?$istreambuf_iterator@DU?$char_traits@D@std@@@2@V32@0AAVios_base@2@AAHAAI@Z DD 0ffffffffH
	DD	FLAT:__unwindfunclet$?do_get@?$num_get@DV?$istreambuf_iterator@DU?$char_traits@D@std@@@std@@@std@@MBE?AV?$istreambuf_iterator@DU?$char_traits@D@std@@@2@V32@0AAVios_base@2@AAHAAI@Z$0
__ehfuncinfo$?do_get@?$num_get@DV?$istreambuf_iterator@DU?$char_traits@D@std@@@std@@@std@@MBE?AV?$istreambuf_iterator@DU?$char_traits@D@std@@@2@V32@0AAVios_base@2@AAHAAI@Z DD 019930522H
	DD	01H
	DD	FLAT:__unwindtable$?do_get@?$num_get@DV?$istreambuf_iterator@DU?$char_traits@D@std@@@std@@@std@@MBE?AV?$istreambuf_iterator@DU?$char_traits@D@std@@@2@V32@0AAVios_base@2@AAHAAI@Z
	DD	2 DUP(00H)
	DD	2 DUP(00H)
	DD	00H
	DD	01H
xdata$x	ENDS
;	COMDAT xdata$x
xdata$x	SEGMENT
__unwindtable$?do_get@?$num_get@DV?$istreambuf_iterator@DU?$char_traits@D@std@@@std@@@std@@MBE?AV?$istreambuf_iterator@DU?$char_traits@D@std@@@2@V32@0AAVios_base@2@AAHAAG@Z DD 0ffffffffH
	DD	FLAT:__unwindfunclet$?do_get@?$num_get@DV?$istreambuf_iterator@DU?$char_traits@D@std@@@std@@@std@@MBE?AV?$istreambuf_iterator@DU?$char_traits@D@std@@@2@V32@0AAVios_base@2@AAHAAG@Z$0
__ehfuncinfo$?do_get@?$num_get@DV?$istreambuf_iterator@DU?$char_traits@D@std@@@std@@@std@@MBE?AV?$istreambuf_iterator@DU?$char_traits@D@std@@@2@V32@0AAVios_base@2@AAHAAG@Z DD 019930522H
	DD	01H
	DD	FLAT:__unwindtable$?do_get@?$num_get@DV?$istreambuf_iterator@DU?$char_traits@D@std@@@std@@@std@@MBE?AV?$istreambuf_iterator@DU?$char_traits@D@std@@@2@V32@0AAVios_base@2@AAHAAG@Z
	DD	2 DUP(00H)
	DD	2 DUP(00H)
	DD	00H
	DD	01H
xdata$x	ENDS
;	COMDAT xdata$x
xdata$x	SEGMENT
__ehfuncinfo$?do_get@?$num_get@DV?$istreambuf_iterator@DU?$char_traits@D@std@@@std@@@std@@MBE?AV?$istreambuf_iterator@DU?$char_traits@D@std@@@2@V32@0AAVios_base@2@AAHAA_N@Z DD 019930522H
	DD	05H
	DD	FLAT:__unwindtable$?do_get@?$num_get@DV?$istreambuf_iterator@DU?$char_traits@D@std@@@std@@@std@@MBE?AV?$istreambuf_iterator@DU?$char_traits@D@std@@@2@V32@0AAVios_base@2@AAHAA_N@Z
	DD	2 DUP(00H)
	DD	2 DUP(00H)
	DD	00H
	DD	01H
__unwindtable$?do_get@?$num_get@DV?$istreambuf_iterator@DU?$char_traits@D@std@@@std@@@std@@MBE?AV?$istreambuf_iterator@DU?$char_traits@D@std@@@2@V32@0AAVios_base@2@AAHAA_N@Z DD 0ffffffffH
	DD	FLAT:__unwindfunclet$?do_get@?$num_get@DV?$istreambuf_iterator@DU?$char_traits@D@std@@@std@@@std@@MBE?AV?$istreambuf_iterator@DU?$char_traits@D@std@@@2@V32@0AAVios_base@2@AAHAA_N@Z$0
	DD	0ffffffffH
	DD	FLAT:__unwindfunclet$?do_get@?$num_get@DV?$istreambuf_iterator@DU?$char_traits@D@std@@@std@@@std@@MBE?AV?$istreambuf_iterator@DU?$char_traits@D@std@@@2@V32@0AAVios_base@2@AAHAA_N@Z$1
	DD	01H
	DD	FLAT:__unwindfunclet$?do_get@?$num_get@DV?$istreambuf_iterator@DU?$char_traits@D@std@@@std@@@std@@MBE?AV?$istreambuf_iterator@DU?$char_traits@D@std@@@2@V32@0AAVios_base@2@AAHAA_N@Z$2
	DD	01H
	DD	FLAT:__unwindfunclet$?do_get@?$num_get@DV?$istreambuf_iterator@DU?$char_traits@D@std@@@std@@@std@@MBE?AV?$istreambuf_iterator@DU?$char_traits@D@std@@@2@V32@0AAVios_base@2@AAHAA_N@Z$3
	DD	0ffffffffH
	DD	FLAT:__unwindfunclet$?do_get@?$num_get@DV?$istreambuf_iterator@DU?$char_traits@D@std@@@std@@@std@@MBE?AV?$istreambuf_iterator@DU?$char_traits@D@std@@@2@V32@0AAVios_base@2@AAHAA_N@Z$4
xdata$x	ENDS
;	COMDAT xdata$x
xdata$x	SEGMENT
__unwindtable$?_Getcat@?$num_get@DV?$istreambuf_iterator@DU?$char_traits@D@std@@@std@@@std@@SAIPAPBVfacet@locale@2@PBV42@@Z DD 0ffffffffH
	DD	FLAT:__unwindfunclet$?_Getcat@?$num_get@DV?$istreambuf_iterator@DU?$char_traits@D@std@@@std@@@std@@SAIPAPBVfacet@locale@2@PBV42@@Z$0
__ehfuncinfo$?_Getcat@?$num_get@DV?$istreambuf_iterator@DU?$char_traits@D@std@@@std@@@std@@SAIPAPBVfacet@locale@2@PBV42@@Z DD 019930522H
	DD	01H
	DD	FLAT:__unwindtable$?_Getcat@?$num_get@DV?$istreambuf_iterator@DU?$char_traits@D@std@@@std@@@std@@SAIPAPBVfacet@locale@2@PBV42@@Z
	DD	2 DUP(00H)
	DD	2 DUP(00H)
	DD	00H
	DD	01H
xdata$x	ENDS
;	COMDAT xdata$x
xdata$x	SEGMENT
__unwindtable$??$use_facet@V?$num_get@DV?$istreambuf_iterator@DU?$char_traits@D@std@@@std@@@std@@@std@@YAABV?$num_get@DV?$istreambuf_iterator@DU?$char_traits@D@std@@@std@@@0@ABVlocale@0@@Z DD 0ffffffffH
	DD	FLAT:__unwindfunclet$??$use_facet@V?$num_get@DV?$istreambuf_iterator@DU?$char_traits@D@std@@@std@@@std@@@std@@YAABV?$num_get@DV?$istreambuf_iterator@DU?$char_traits@D@std@@@std@@@0@ABVlocale@0@@Z$0
	DD	00H
	DD	FLAT:__unwindfunclet$??$use_facet@V?$num_get@DV?$istreambuf_iterator@DU?$char_traits@D@std@@@std@@@std@@@std@@YAABV?$num_get@DV?$istreambuf_iterator@DU?$char_traits@D@std@@@std@@@0@ABVlocale@0@@Z$2
	DD	00H
	DD	FLAT:__unwindfunclet$??$use_facet@V?$num_get@DV?$istreambuf_iterator@DU?$char_traits@D@std@@@std@@@std@@@std@@YAABV?$num_get@DV?$istreambuf_iterator@DU?$char_traits@D@std@@@std@@@0@ABVlocale@0@@Z$1
__ehfuncinfo$??$use_facet@V?$num_get@DV?$istreambuf_iterator@DU?$char_traits@D@std@@@std@@@std@@@std@@YAABV?$num_get@DV?$istreambuf_iterator@DU?$char_traits@D@std@@@std@@@0@ABVlocale@0@@Z DD 019930522H
	DD	03H
	DD	FLAT:__unwindtable$??$use_facet@V?$num_get@DV?$istreambuf_iterator@DU?$char_traits@D@std@@@std@@@std@@@std@@YAABV?$num_get@DV?$istreambuf_iterator@DU?$char_traits@D@std@@@std@@@0@ABVlocale@0@@Z
	DD	2 DUP(00H)
	DD	2 DUP(00H)
	DD	00H
	DD	01H
xdata$x	ENDS
;	COMDAT xdata$x
xdata$x	SEGMENT
__unwindtable$??$_Uninitialized_copy@PBV?$basic_string@_WU?$char_traits@_W@std@@V?$allocator@_W@2@@std@@PBV12@V?$allocator@V?$basic_string@_WU?$char_traits@_W@std@@V?$allocator@_W@2@@std@@@2@@std@@YAPAV?$basic_string@_WU?$char_traits@_W@std@@V?$allocator@_W@2@@0@PBV10@0PAV10@AAV?$allocator@V?$basic_string@_WU?$char_traits@_W@std@@V?$allocator@_W@2@@std@@@0@@Z DD 0ffffffffH
	DD	FLAT:__unwindfunclet$??$_Uninitialized_copy@PBV?$basic_string@_WU?$char_traits@_W@std@@V?$allocator@_W@2@@std@@PBV12@V?$allocator@V?$basic_string@_WU?$char_traits@_W@std@@V?$allocator@_W@2@@std@@@2@@std@@YAPAV?$basic_string@_WU?$char_traits@_W@std@@V?$allocator@_W@2@@0@PBV10@0PAV10@AAV?$allocator@V?$basic_string@_WU?$char_traits@_W@std@@V?$allocator@_W@2@@std@@@0@@Z$0
__ehfuncinfo$??$_Uninitialized_copy@PBV?$basic_string@_WU?$char_traits@_W@std@@V?$allocator@_W@2@@std@@PBV12@V?$allocator@V?$basic_string@_WU?$char_traits@_W@std@@V?$allocator@_W@2@@std@@@2@@std@@YAPAV?$basic_string@_WU?$char_traits@_W@std@@V?$allocator@_W@2@@0@PBV10@0PAV10@AAV?$allocator@V?$basic_string@_WU?$char_traits@_W@std@@V?$allocator@_W@2@@std@@@0@@Z DD 019930522H
	DD	01H
	DD	FLAT:__unwindtable$??$_Uninitialized_copy@PBV?$basic_string@_WU?$char_traits@_W@std@@V?$allocator@_W@2@@std@@PBV12@V?$allocator@V?$basic_string@_WU?$char_traits@_W@std@@V?$allocator@_W@2@@std@@@2@@std@@YAPAV?$basic_string@_WU?$char_traits@_W@std@@V?$allocator@_W@2@@0@PBV10@0PAV10@AAV?$allocator@V?$basic_string@_WU?$char_traits@_W@std@@V?$allocator@_W@2@@std@@@0@@Z
	DD	2 DUP(00H)
	DD	2 DUP(00H)
	DD	00H
	DD	01H
xdata$x	ENDS
;	COMDAT xdata$x
xdata$x	SEGMENT
__unwindtable$??$_Emplace_reallocate@ABV?$basic_string@_WU?$char_traits@_W@std@@V?$allocator@_W@2@@std@@@?$vector@V?$basic_string@_WU?$char_traits@_W@std@@V?$allocator@_W@2@@std@@V?$allocator@V?$basic_string@_WU?$char_traits@_W@std@@V?$allocator@_W@2@@std@@@2@@std@@AAEPAV?$basic_string@_WU?$char_traits@_W@std@@V?$allocator@_W@2@@1@QAV21@ABV21@@Z DD 0ffffffffH
	DD	FLAT:__unwindfunclet$??$_Emplace_reallocate@ABV?$basic_string@_WU?$char_traits@_W@std@@V?$allocator@_W@2@@std@@@?$vector@V?$basic_string@_WU?$char_traits@_W@std@@V?$allocator@_W@2@@std@@V?$allocator@V?$basic_string@_WU?$char_traits@_W@std@@V?$allocator@_W@2@@std@@@2@@std@@AAEPAV?$basic_string@_WU?$char_traits@_W@std@@V?$allocator@_W@2@@1@QAV21@ABV21@@Z$0
__ehfuncinfo$??$_Emplace_reallocate@ABV?$basic_string@_WU?$char_traits@_W@std@@V?$allocator@_W@2@@std@@@?$vector@V?$basic_string@_WU?$char_traits@_W@std@@V?$allocator@_W@2@@std@@V?$allocator@V?$basic_string@_WU?$char_traits@_W@std@@V?$allocator@_W@2@@std@@@2@@std@@AAEPAV?$basic_string@_WU?$char_traits@_W@std@@V?$allocator@_W@2@@1@QAV21@ABV21@@Z DD 019930522H
	DD	01H
	DD	FLAT:__unwindtable$??$_Emplace_reallocate@ABV?$basic_string@_WU?$char_traits@_W@std@@V?$allocator@_W@2@@std@@@?$vector@V?$basic_string@_WU?$char_traits@_W@std@@V?$allocator@_W@2@@std@@V?$allocator@V?$basic_string@_WU?$char_traits@_W@std@@V?$allocator@_W@2@@std@@@2@@std@@AAEPAV?$basic_string@_WU?$char_traits@_W@std@@V?$allocator@_W@2@@1@QAV21@ABV21@@Z
	DD	2 DUP(00H)
	DD	2 DUP(00H)
	DD	00H
	DD	01H
xdata$x	ENDS
;	COMDAT xdata$x
xdata$x	SEGMENT
__catchsym$??$_Common_extract_with_num_get@J@?$basic_istream@DU?$char_traits@D@std@@@std@@AAEAAV01@AAJ@Z$8 DD 040H
	DD	00H
	DD	00H
	DD	FLAT:__catch$??$_Common_extract_with_num_get@J@?$basic_istream@DU?$char_traits@D@std@@@std@@AAEAAV01@AAJ@Z$0
__tryblocktable$??$_Common_extract_with_num_get@J@?$basic_istream@DU?$char_traits@D@std@@@std@@AAEAAV01@AAJ@Z DD 02H
	DD	03H
	DD	04H
	DD	01H
	DD	FLAT:__catchsym$??$_Common_extract_with_num_get@J@?$basic_istream@DU?$char_traits@D@std@@@std@@AAEAAV01@AAJ@Z$8
__ehfuncinfo$??$_Common_extract_with_num_get@J@?$basic_istream@DU?$char_traits@D@std@@@std@@AAEAAV01@AAJ@Z DD 019930522H
	DD	06H
	DD	FLAT:__unwindtable$??$_Common_extract_with_num_get@J@?$basic_istream@DU?$char_traits@D@std@@@std@@AAEAAV01@AAJ@Z
	DD	01H
	DD	FLAT:__tryblocktable$??$_Common_extract_with_num_get@J@?$basic_istream@DU?$char_traits@D@std@@@std@@AAEAAV01@AAJ@Z
	DD	2 DUP(00H)
	DD	00H
	DD	01H
__unwindtable$??$_Common_extract_with_num_get@J@?$basic_istream@DU?$char_traits@D@std@@@std@@AAEAAV01@AAJ@Z DD 0ffffffffH
	DD	FLAT:__unwindfunclet$??$_Common_extract_with_num_get@J@?$basic_istream@DU?$char_traits@D@std@@@std@@AAEAAV01@AAJ@Z$4
	DD	0ffffffffH
	DD	FLAT:__unwindfunclet$??$_Common_extract_with_num_get@J@?$basic_istream@DU?$char_traits@D@std@@@std@@AAEAAV01@AAJ@Z$2
	DD	01H
	DD	00H
	DD	02H
	DD	FLAT:__unwindfunclet$??$_Common_extract_with_num_get@J@?$basic_istream@DU?$char_traits@D@std@@@std@@AAEAAV01@AAJ@Z$3
	DD	01H
	DD	00H
	DD	0ffffffffH
	DD	FLAT:___std_terminate
xdata$x	ENDS
;	COMDAT xdata$x
xdata$x	SEGMENT
__unwindtable$??1sentry@?$basic_istream@DU?$char_traits@D@std@@@std@@QAE@XZ DD 0ffffffffH
	DD	FLAT:___std_terminate
__ehfuncinfo$??1sentry@?$basic_istream@DU?$char_traits@D@std@@@std@@QAE@XZ DD 019930522H
	DD	01H
	DD	FLAT:__unwindtable$??1sentry@?$basic_istream@DU?$char_traits@D@std@@@std@@QAE@XZ
	DD	2 DUP(00H)
	DD	2 DUP(00H)
	DD	00H
	DD	05H
xdata$x	ENDS
;	COMDAT xdata$x
xdata$x	SEGMENT
__unwindtable$??0sentry@?$basic_istream@DU?$char_traits@D@std@@@std@@QAE@AAV12@_N@Z DD 0ffffffffH
	DD	FLAT:__unwindfunclet$??0sentry@?$basic_istream@DU?$char_traits@D@std@@@std@@QAE@AAV12@_N@Z$0
__ehfuncinfo$??0sentry@?$basic_istream@DU?$char_traits@D@std@@@std@@QAE@AAV12@_N@Z DD 019930522H
	DD	01H
	DD	FLAT:__unwindtable$??0sentry@?$basic_istream@DU?$char_traits@D@std@@@std@@QAE@AAV12@_N@Z
	DD	2 DUP(00H)
	DD	2 DUP(00H)
	DD	00H
	DD	01H
xdata$x	ENDS
;	COMDAT xdata$x
xdata$x	SEGMENT
__ehfuncinfo$??1_Sentry_base@?$basic_istream@DU?$char_traits@D@std@@@std@@QAE@XZ DD 019930522H
	DD	00H
	DD	00H
	DD	2 DUP(00H)
	DD	2 DUP(00H)
	DD	00H
	DD	05H
xdata$x	ENDS
;	COMDAT xdata$x
xdata$x	SEGMENT
__unwindtable$?_Iput@?$num_put@_WV?$ostreambuf_iterator@_WU?$char_traits@_W@std@@@std@@@std@@ABA?AV?$ostreambuf_iterator@_WU?$char_traits@_W@std@@@2@V32@AAVios_base@2@_WPADI@Z DD 0ffffffffH
	DD	FLAT:__unwindfunclet$?_Iput@?$num_put@_WV?$ostreambuf_iterator@_WU?$char_traits@_W@std@@@std@@@std@@ABA?AV?$ostreambuf_iterator@_WU?$char_traits@_W@std@@@2@V32@AAVios_base@2@_WPADI@Z$0
	DD	0ffffffffH
	DD	FLAT:__unwindfunclet$?_Iput@?$num_put@_WV?$ostreambuf_iterator@_WU?$char_traits@_W@std@@@std@@@std@@ABA?AV?$ostreambuf_iterator@_WU?$char_traits@_W@std@@@2@V32@AAVios_base@2@_WPADI@Z$1
	DD	01H
	DD	FLAT:__unwindfunclet$?_Iput@?$num_put@_WV?$ostreambuf_iterator@_WU?$char_traits@_W@std@@@std@@@std@@ABA?AV?$ostreambuf_iterator@_WU?$char_traits@_W@std@@@2@V32@AAVios_base@2@_WPADI@Z$2
	DD	01H
	DD	FLAT:__unwindfunclet$?_Iput@?$num_put@_WV?$ostreambuf_iterator@_WU?$char_traits@_W@std@@@std@@@std@@ABA?AV?$ostreambuf_iterator@_WU?$char_traits@_W@std@@@2@V32@AAVios_base@2@_WPADI@Z$3
__ehfuncinfo$?_Iput@?$num_put@_WV?$ostreambuf_iterator@_WU?$char_traits@_W@std@@@std@@@std@@ABA?AV?$ostreambuf_iterator@_WU?$char_traits@_W@std@@@2@V32@AAVios_base@2@_WPADI@Z DD 019930522H
	DD	04H
	DD	FLAT:__unwindtable$?_Iput@?$num_put@_WV?$ostreambuf_iterator@_WU?$char_traits@_W@std@@@std@@@std@@ABA?AV?$ostreambuf_iterator@_WU?$char_traits@_W@std@@@2@V32@AAVios_base@2@_WPADI@Z
	DD	2 DUP(00H)
	DD	2 DUP(00H)
	DD	00H
	DD	01H
xdata$x	ENDS
;	COMDAT xdata$x
xdata$x	SEGMENT
__unwindtable$?do_put@?$num_put@_WV?$ostreambuf_iterator@_WU?$char_traits@_W@std@@@std@@@std@@MBE?AV?$ostreambuf_iterator@_WU?$char_traits@_W@std@@@2@V32@AAVios_base@2@_WO@Z DD 0ffffffffH
	DD	FLAT:__unwindfunclet$?do_put@?$num_put@_WV?$ostreambuf_iterator@_WU?$char_traits@_W@std@@@std@@@std@@MBE?AV?$ostreambuf_iterator@_WU?$char_traits@_W@std@@@2@V32@AAVios_base@2@_WO@Z$0
__ehfuncinfo$?do_put@?$num_put@_WV?$ostreambuf_iterator@_WU?$char_traits@_W@std@@@std@@@std@@MBE?AV?$ostreambuf_iterator@_WU?$char_traits@_W@std@@@2@V32@AAVios_base@2@_WO@Z DD 019930522H
	DD	01H
	DD	FLAT:__unwindtable$?do_put@?$num_put@_WV?$ostreambuf_iterator@_WU?$char_traits@_W@std@@@std@@@std@@MBE?AV?$ostreambuf_iterator@_WU?$char_traits@_W@std@@@2@V32@AAVios_base@2@_WO@Z
	DD	2 DUP(00H)
	DD	2 DUP(00H)
	DD	00H
	DD	01H
xdata$x	ENDS
;	COMDAT xdata$x
xdata$x	SEGMENT
__unwindtable$?do_put@?$num_put@_WV?$ostreambuf_iterator@_WU?$char_traits@_W@std@@@std@@@std@@MBE?AV?$ostreambuf_iterator@_WU?$char_traits@_W@std@@@2@V32@AAVios_base@2@_WN@Z DD 0ffffffffH
	DD	FLAT:__unwindfunclet$?do_put@?$num_put@_WV?$ostreambuf_iterator@_WU?$char_traits@_W@std@@@std@@@std@@MBE?AV?$ostreambuf_iterator@_WU?$char_traits@_W@std@@@2@V32@AAVios_base@2@_WN@Z$0
__ehfuncinfo$?do_put@?$num_put@_WV?$ostreambuf_iterator@_WU?$char_traits@_W@std@@@std@@@std@@MBE?AV?$ostreambuf_iterator@_WU?$char_traits@_W@std@@@2@V32@AAVios_base@2@_WN@Z DD 019930522H
	DD	01H
	DD	FLAT:__unwindtable$?do_put@?$num_put@_WV?$ostreambuf_iterator@_WU?$char_traits@_W@std@@@std@@@std@@MBE?AV?$ostreambuf_iterator@_WU?$char_traits@_W@std@@@2@V32@AAVios_base@2@_WN@Z
	DD	2 DUP(00H)
	DD	2 DUP(00H)
	DD	00H
	DD	01H
xdata$x	ENDS
;	COMDAT xdata$x
xdata$x	SEGMENT
__unwindtable$?do_put@?$num_put@_WV?$ostreambuf_iterator@_WU?$char_traits@_W@std@@@std@@@std@@MBE?AV?$ostreambuf_iterator@_WU?$char_traits@_W@std@@@2@V32@AAVios_base@2@_W_N@Z DD 0ffffffffH
	DD	FLAT:__unwindfunclet$?do_put@?$num_put@_WV?$ostreambuf_iterator@_WU?$char_traits@_W@std@@@std@@@std@@MBE?AV?$ostreambuf_iterator@_WU?$char_traits@_W@std@@@2@V32@AAVios_base@2@_W_N@Z$0
	DD	0ffffffffH
	DD	FLAT:__unwindfunclet$?do_put@?$num_put@_WV?$ostreambuf_iterator@_WU?$char_traits@_W@std@@@std@@@std@@MBE?AV?$ostreambuf_iterator@_WU?$char_traits@_W@std@@@2@V32@AAVios_base@2@_W_N@Z$1
__ehfuncinfo$?do_put@?$num_put@_WV?$ostreambuf_iterator@_WU?$char_traits@_W@std@@@std@@@std@@MBE?AV?$ostreambuf_iterator@_WU?$char_traits@_W@std@@@2@V32@AAVios_base@2@_W_N@Z DD 019930522H
	DD	02H
	DD	FLAT:__unwindtable$?do_put@?$num_put@_WV?$ostreambuf_iterator@_WU?$char_traits@_W@std@@@std@@@std@@MBE?AV?$ostreambuf_iterator@_WU?$char_traits@_W@std@@@2@V32@AAVios_base@2@_W_N@Z
	DD	2 DUP(00H)
	DD	2 DUP(00H)
	DD	00H
	DD	01H
xdata$x	ENDS
;	COMDAT xdata$x
xdata$x	SEGMENT
__unwindtable$?_Getcat@?$num_put@_WV?$ostreambuf_iterator@_WU?$char_traits@_W@std@@@std@@@std@@SAIPAPBVfacet@locale@2@PBV42@@Z DD 0ffffffffH
	DD	FLAT:__unwindfunclet$?_Getcat@?$num_put@_WV?$ostreambuf_iterator@_WU?$char_traits@_W@std@@@std@@@std@@SAIPAPBVfacet@locale@2@PBV42@@Z$0
__ehfuncinfo$?_Getcat@?$num_put@_WV?$ostreambuf_iterator@_WU?$char_traits@_W@std@@@std@@@std@@SAIPAPBVfacet@locale@2@PBV42@@Z DD 019930522H
	DD	01H
	DD	FLAT:__unwindtable$?_Getcat@?$num_put@_WV?$ostreambuf_iterator@_WU?$char_traits@_W@std@@@std@@@std@@SAIPAPBVfacet@locale@2@PBV42@@Z
	DD	2 DUP(00H)
	DD	2 DUP(00H)
	DD	00H
	DD	01H
xdata$x	ENDS
;	COMDAT xdata$x
xdata$x	SEGMENT
__unwindtable$??$use_facet@V?$num_put@_WV?$ostreambuf_iterator@_WU?$char_traits@_W@std@@@std@@@std@@@std@@YAABV?$num_put@_WV?$ostreambuf_iterator@_WU?$char_traits@_W@std@@@std@@@0@ABVlocale@0@@Z DD 0ffffffffH
	DD	FLAT:__unwindfunclet$??$use_facet@V?$num_put@_WV?$ostreambuf_iterator@_WU?$char_traits@_W@std@@@std@@@std@@@std@@YAABV?$num_put@_WV?$ostreambuf_iterator@_WU?$char_traits@_W@std@@@std@@@0@ABVlocale@0@@Z$0
	DD	00H
	DD	FLAT:__unwindfunclet$??$use_facet@V?$num_put@_WV?$ostreambuf_iterator@_WU?$char_traits@_W@std@@@std@@@std@@@std@@YAABV?$num_put@_WV?$ostreambuf_iterator@_WU?$char_traits@_W@std@@@std@@@0@ABVlocale@0@@Z$2
	DD	00H
	DD	FLAT:__unwindfunclet$??$use_facet@V?$num_put@_WV?$ostreambuf_iterator@_WU?$char_traits@_W@std@@@std@@@std@@@std@@YAABV?$num_put@_WV?$ostreambuf_iterator@_WU?$char_traits@_W@std@@@std@@@0@ABVlocale@0@@Z$1
__ehfuncinfo$??$use_facet@V?$num_put@_WV?$ostreambuf_iterator@_WU?$char_traits@_W@std@@@std@@@std@@@std@@YAABV?$num_put@_WV?$ostreambuf_iterator@_WU?$char_traits@_W@std@@@std@@@0@ABVlocale@0@@Z DD 019930522H
	DD	03H
	DD	FLAT:__unwindtable$??$use_facet@V?$num_put@_WV?$ostreambuf_iterator@_WU?$char_traits@_W@std@@@std@@@std@@@std@@YAABV?$num_put@_WV?$ostreambuf_iterator@_WU?$char_traits@_W@std@@@std@@@0@ABVlocale@0@@Z
	DD	2 DUP(00H)
	DD	2 DUP(00H)
	DD	00H
	DD	01H
xdata$x	ENDS
;	COMDAT xdata$x
xdata$x	SEGMENT
__unwindtable$??$_Construct_n@PBV?$basic_string@_WU?$char_traits@_W@std@@V?$allocator@_W@2@@std@@PBV12@@?$vector@V?$basic_string@_WU?$char_traits@_W@std@@V?$allocator@_W@2@@std@@V?$allocator@V?$basic_string@_WU?$char_traits@_W@std@@V?$allocator@_W@2@@std@@@2@@std@@AAEXI$$QAPBV?$basic_string@_WU?$char_traits@_W@std@@V?$allocator@_W@2@@1@0@Z DD 0ffffffffH
	DD	FLAT:__unwindfunclet$??$_Construct_n@PBV?$basic_string@_WU?$char_traits@_W@std@@V?$allocator@_W@2@@std@@PBV12@@?$vector@V?$basic_string@_WU?$char_traits@_W@std@@V?$allocator@_W@2@@std@@V?$allocator@V?$basic_string@_WU?$char_traits@_W@std@@V?$allocator@_W@2@@std@@@2@@std@@AAEXI$$QAPBV?$basic_string@_WU?$char_traits@_W@std@@V?$allocator@_W@2@@1@0@Z$0
	DD	00H
	DD	FLAT:__unwindfunclet$??$_Construct_n@PBV?$basic_string@_WU?$char_traits@_W@std@@V?$allocator@_W@2@@std@@PBV12@@?$vector@V?$basic_string@_WU?$char_traits@_W@std@@V?$allocator@_W@2@@std@@V?$allocator@V?$basic_string@_WU?$char_traits@_W@std@@V?$allocator@_W@2@@std@@@2@@std@@AAEXI$$QAPBV?$basic_string@_WU?$char_traits@_W@std@@V?$allocator@_W@2@@1@0@Z$1
__ehfuncinfo$??$_Construct_n@PBV?$basic_string@_WU?$char_traits@_W@std@@V?$allocator@_W@2@@std@@PBV12@@?$vector@V?$basic_string@_WU?$char_traits@_W@std@@V?$allocator@_W@2@@std@@V?$allocator@V?$basic_string@_WU?$char_traits@_W@std@@V?$allocator@_W@2@@std@@@2@@std@@AAEXI$$QAPBV?$basic_string@_WU?$char_traits@_W@std@@V?$allocator@_W@2@@1@0@Z DD 019930522H
	DD	02H
	DD	FLAT:__unwindtable$??$_Construct_n@PBV?$basic_string@_WU?$char_traits@_W@std@@V?$allocator@_W@2@@std@@PBV12@@?$vector@V?$basic_string@_WU?$char_traits@_W@std@@V?$allocator@_W@2@@std@@V?$allocator@V?$basic_string@_WU?$char_traits@_W@std@@V?$allocator@_W@2@@std@@@2@@std@@AAEXI$$QAPBV?$basic_string@_WU?$char_traits@_W@std@@V?$allocator@_W@2@@1@0@Z
	DD	2 DUP(00H)
	DD	2 DUP(00H)
	DD	00H
	DD	01H
xdata$x	ENDS
;	COMDAT xdata$x
xdata$x	SEGMENT
__catchsym$??$_Insert_string@_WU?$char_traits@_W@std@@I@std@@YAAAV?$basic_ostream@_WU?$char_traits@_W@std@@@0@AAV10@QB_WI@Z$5 DD 040H
	DD	00H
	DD	00H
	DD	FLAT:__catch$??$_Insert_string@_WU?$char_traits@_W@std@@I@std@@YAAAV?$basic_ostream@_WU?$char_traits@_W@std@@@0@AAV10@QB_WI@Z$0
__tryblocktable$??$_Insert_string@_WU?$char_traits@_W@std@@I@std@@YAAAV?$basic_ostream@_WU?$char_traits@_W@std@@@0@AAV10@QB_WI@Z DD 01H
	DD	01H
	DD	02H
	DD	01H
	DD	FLAT:__catchsym$??$_Insert_string@_WU?$char_traits@_W@std@@I@std@@YAAAV?$basic_ostream@_WU?$char_traits@_W@std@@@0@AAV10@QB_WI@Z$5
__unwindtable$??$_Insert_string@_WU?$char_traits@_W@std@@I@std@@YAAAV?$basic_ostream@_WU?$char_traits@_W@std@@@0@AAV10@QB_WI@Z DD 0ffffffffH
	DD	FLAT:__unwindfunclet$??$_Insert_string@_WU?$char_traits@_W@std@@I@std@@YAAAV?$basic_ostream@_WU?$char_traits@_W@std@@@0@AAV10@QB_WI@Z$2
	DD	00H
	DD	00H
	DD	00H
	DD	00H
	DD	0ffffffffH
	DD	FLAT:___std_terminate
__ehfuncinfo$??$_Insert_string@_WU?$char_traits@_W@std@@I@std@@YAAAV?$basic_ostream@_WU?$char_traits@_W@std@@@0@AAV10@QB_WI@Z DD 019930522H
	DD	04H
	DD	FLAT:__unwindtable$??$_Insert_string@_WU?$char_traits@_W@std@@I@std@@YAAAV?$basic_ostream@_WU?$char_traits@_W@std@@@0@AAV10@QB_WI@Z
	DD	01H
	DD	FLAT:__tryblocktable$??$_Insert_string@_WU?$char_traits@_W@std@@I@std@@YAAAV?$basic_ostream@_WU?$char_traits@_W@std@@@0@AAV10@QB_WI@Z
	DD	2 DUP(00H)
	DD	00H
	DD	01H
xdata$x	ENDS
;	COMDAT xdata$x
xdata$x	SEGMENT
__unwindtable$??$use_facet@V?$ctype@_W@std@@@std@@YAABV?$ctype@_W@0@ABVlocale@0@@Z DD 0ffffffffH
	DD	FLAT:__unwindfunclet$??$use_facet@V?$ctype@_W@std@@@std@@YAABV?$ctype@_W@0@ABVlocale@0@@Z$0
	DD	00H
	DD	FLAT:__unwindfunclet$??$use_facet@V?$ctype@_W@std@@@std@@YAABV?$ctype@_W@0@ABVlocale@0@@Z$2
	DD	00H
	DD	FLAT:__unwindfunclet$??$use_facet@V?$ctype@_W@std@@@std@@YAABV?$ctype@_W@0@ABVlocale@0@@Z$1
__ehfuncinfo$??$use_facet@V?$ctype@_W@std@@@std@@YAABV?$ctype@_W@0@ABVlocale@0@@Z DD 019930522H
	DD	03H
	DD	FLAT:__unwindtable$??$use_facet@V?$ctype@_W@std@@@std@@YAABV?$ctype@_W@0@ABVlocale@0@@Z
	DD	2 DUP(00H)
	DD	2 DUP(00H)
	DD	00H
	DD	01H
xdata$x	ENDS
;	COMDAT xdata$x
xdata$x	SEGMENT
__unwindtable$??1sentry@?$basic_ostream@_WU?$char_traits@_W@std@@@std@@QAE@XZ DD 0ffffffffH
	DD	FLAT:___std_terminate
__ehfuncinfo$??1sentry@?$basic_ostream@_WU?$char_traits@_W@std@@@std@@QAE@XZ DD 019930522H
	DD	01H
	DD	FLAT:__unwindtable$??1sentry@?$basic_ostream@_WU?$char_traits@_W@std@@@std@@QAE@XZ
	DD	2 DUP(00H)
	DD	2 DUP(00H)
	DD	00H
	DD	05H
xdata$x	ENDS
;	COMDAT xdata$x
xdata$x	SEGMENT
__unwindtable$??0sentry@?$basic_ostream@_WU?$char_traits@_W@std@@@std@@QAE@AAV12@@Z DD 0ffffffffH
	DD	FLAT:__unwindfunclet$??0sentry@?$basic_ostream@_WU?$char_traits@_W@std@@@std@@QAE@AAV12@@Z$0
__ehfuncinfo$??0sentry@?$basic_ostream@_WU?$char_traits@_W@std@@@std@@QAE@AAV12@@Z DD 019930522H
	DD	01H
	DD	FLAT:__unwindtable$??0sentry@?$basic_ostream@_WU?$char_traits@_W@std@@@std@@QAE@AAV12@@Z
	DD	2 DUP(00H)
	DD	2 DUP(00H)
	DD	00H
	DD	01H
xdata$x	ENDS
;	COMDAT xdata$x
xdata$x	SEGMENT
__ehfuncinfo$??1_Sentry_base@?$basic_ostream@_WU?$char_traits@_W@std@@@std@@QAE@XZ DD 019930522H
	DD	00H
	DD	00H
	DD	2 DUP(00H)
	DD	2 DUP(00H)
	DD	00H
	DD	05H
xdata$x	ENDS
;	COMDAT xdata$x
xdata$x	SEGMENT
__unwindtable$??1sentry@?$basic_ostream@DU?$char_traits@D@std@@@std@@QAE@XZ DD 0ffffffffH
	DD	FLAT:___std_terminate
__ehfuncinfo$??1sentry@?$basic_ostream@DU?$char_traits@D@std@@@std@@QAE@XZ DD 019930522H
	DD	01H
	DD	FLAT:__unwindtable$??1sentry@?$basic_ostream@DU?$char_traits@D@std@@@std@@QAE@XZ
	DD	2 DUP(00H)
	DD	2 DUP(00H)
	DD	00H
	DD	05H
xdata$x	ENDS
;	COMDAT xdata$x
xdata$x	SEGMENT
__unwindtable$??0sentry@?$basic_ostream@DU?$char_traits@D@std@@@std@@QAE@AAV12@@Z DD 0ffffffffH
	DD	FLAT:__unwindfunclet$??0sentry@?$basic_ostream@DU?$char_traits@D@std@@@std@@QAE@AAV12@@Z$0
__ehfuncinfo$??0sentry@?$basic_ostream@DU?$char_traits@D@std@@@std@@QAE@AAV12@@Z DD 019930522H
	DD	01H
	DD	FLAT:__unwindtable$??0sentry@?$basic_ostream@DU?$char_traits@D@std@@@std@@QAE@AAV12@@Z
	DD	2 DUP(00H)
	DD	2 DUP(00H)
	DD	00H
	DD	01H
xdata$x	ENDS
;	COMDAT xdata$x
xdata$x	SEGMENT
__ehfuncinfo$??1_Sentry_base@?$basic_ostream@DU?$char_traits@D@std@@@std@@QAE@XZ DD 019930522H
	DD	00H
	DD	00H
	DD	2 DUP(00H)
	DD	2 DUP(00H)
	DD	00H
	DD	05H
xdata$x	ENDS
;	COMDAT xdata$x
xdata$x	SEGMENT
__catchsym$??$?6_WU?$char_traits@_W@std@@@std@@YAAAV?$basic_ostream@_WU?$char_traits@_W@std@@@0@AAV10@PB_W@Z$5 DD 040H
	DD	00H
	DD	00H
	DD	FLAT:__catch$??$?6_WU?$char_traits@_W@std@@@std@@YAAAV?$basic_ostream@_WU?$char_traits@_W@std@@@0@AAV10@PB_W@Z$0
__tryblocktable$??$?6_WU?$char_traits@_W@std@@@std@@YAAAV?$basic_ostream@_WU?$char_traits@_W@std@@@0@AAV10@PB_W@Z DD 01H
	DD	01H
	DD	02H
	DD	01H
	DD	FLAT:__catchsym$??$?6_WU?$char_traits@_W@std@@@std@@YAAAV?$basic_ostream@_WU?$char_traits@_W@std@@@0@AAV10@PB_W@Z$5
__unwindtable$??$?6_WU?$char_traits@_W@std@@@std@@YAAAV?$basic_ostream@_WU?$char_traits@_W@std@@@0@AAV10@PB_W@Z DD 0ffffffffH
	DD	FLAT:__unwindfunclet$??$?6_WU?$char_traits@_W@std@@@std@@YAAAV?$basic_ostream@_WU?$char_traits@_W@std@@@0@AAV10@PB_W@Z$2
	DD	00H
	DD	00H
	DD	00H
	DD	00H
	DD	0ffffffffH
	DD	FLAT:___std_terminate
__ehfuncinfo$??$?6_WU?$char_traits@_W@std@@@std@@YAAAV?$basic_ostream@_WU?$char_traits@_W@std@@@0@AAV10@PB_W@Z DD 019930522H
	DD	04H
	DD	FLAT:__unwindtable$??$?6_WU?$char_traits@_W@std@@@std@@YAAAV?$basic_ostream@_WU?$char_traits@_W@std@@@0@AAV10@PB_W@Z
	DD	01H
	DD	FLAT:__tryblocktable$??$?6_WU?$char_traits@_W@std@@@std@@YAAAV?$basic_ostream@_WU?$char_traits@_W@std@@@0@AAV10@PB_W@Z
	DD	2 DUP(00H)
	DD	00H
	DD	01H
xdata$x	ENDS
;	COMDAT xdata$x
xdata$x	SEGMENT
__catchsym$?ignore@?$basic_istream@DU?$char_traits@D@std@@@std@@QAEAAV12@_JH@Z$6 DD 040H
	DD	00H
	DD	00H
	DD	FLAT:__catch$?ignore@?$basic_istream@DU?$char_traits@D@std@@@std@@QAEAAV12@_JH@Z$0
__tryblocktable$?ignore@?$basic_istream@DU?$char_traits@D@std@@@std@@QAEAAV12@_JH@Z DD 02H
	DD	02H
	DD	03H
	DD	01H
	DD	FLAT:__catchsym$?ignore@?$basic_istream@DU?$char_traits@D@std@@@std@@QAEAAV12@_JH@Z$6
__ehfuncinfo$?ignore@?$basic_istream@DU?$char_traits@D@std@@@std@@QAEAAV12@_JH@Z DD 019930522H
	DD	05H
	DD	FLAT:__unwindtable$?ignore@?$basic_istream@DU?$char_traits@D@std@@@std@@QAEAAV12@_JH@Z
	DD	01H
	DD	FLAT:__tryblocktable$?ignore@?$basic_istream@DU?$char_traits@D@std@@@std@@QAEAAV12@_JH@Z
	DD	2 DUP(00H)
	DD	00H
	DD	01H
__unwindtable$?ignore@?$basic_istream@DU?$char_traits@D@std@@@std@@QAEAAV12@_JH@Z DD 0ffffffffH
	DD	FLAT:__unwindfunclet$?ignore@?$basic_istream@DU?$char_traits@D@std@@@std@@QAEAAV12@_JH@Z$3
	DD	0ffffffffH
	DD	FLAT:__unwindfunclet$?ignore@?$basic_istream@DU?$char_traits@D@std@@@std@@QAEAAV12@_JH@Z$2
	DD	01H
	DD	00H
	DD	01H
	DD	00H
	DD	0ffffffffH
	DD	FLAT:___std_terminate
xdata$x	ENDS
;	COMDAT xdata$x
xdata$x	SEGMENT
__catchsym$?get@?$basic_istream@DU?$char_traits@D@std@@@std@@QAEHXZ$6 DD 040H
	DD	00H
	DD	00H
	DD	FLAT:__catch$?get@?$basic_istream@DU?$char_traits@D@std@@@std@@QAEHXZ$0
__tryblocktable$?get@?$basic_istream@DU?$char_traits@D@std@@@std@@QAEHXZ DD 02H
	DD	02H
	DD	03H
	DD	01H
	DD	FLAT:__catchsym$?get@?$basic_istream@DU?$char_traits@D@std@@@std@@QAEHXZ$6
__ehfuncinfo$?get@?$basic_istream@DU?$char_traits@D@std@@@std@@QAEHXZ DD 019930522H
	DD	05H
	DD	FLAT:__unwindtable$?get@?$basic_istream@DU?$char_traits@D@std@@@std@@QAEHXZ
	DD	01H
	DD	FLAT:__tryblocktable$?get@?$basic_istream@DU?$char_traits@D@std@@@std@@QAEHXZ
	DD	2 DUP(00H)
	DD	00H
	DD	01H
__unwindtable$?get@?$basic_istream@DU?$char_traits@D@std@@@std@@QAEHXZ DD 0ffffffffH
	DD	FLAT:__unwindfunclet$?get@?$basic_istream@DU?$char_traits@D@std@@@std@@QAEHXZ$3
	DD	0ffffffffH
	DD	FLAT:__unwindfunclet$?get@?$basic_istream@DU?$char_traits@D@std@@@std@@QAEHXZ$2
	DD	01H
	DD	00H
	DD	01H
	DD	00H
	DD	0ffffffffH
	DD	FLAT:___std_terminate
xdata$x	ENDS
;	COMDAT xdata$x
xdata$x	SEGMENT
__catchsym$?_Ipfx@?$basic_istream@DU?$char_traits@D@std@@@std@@QAE_N_N@Z$4 DD 040H
	DD	00H
	DD	00H
	DD	FLAT:__catch$?_Ipfx@?$basic_istream@DU?$char_traits@D@std@@@std@@QAE_N_N@Z$0
__tryblocktable$?_Ipfx@?$basic_istream@DU?$char_traits@D@std@@@std@@QAE_N_N@Z DD 01H
	DD	01H
	DD	02H
	DD	01H
	DD	FLAT:__catchsym$?_Ipfx@?$basic_istream@DU?$char_traits@D@std@@@std@@QAE_N_N@Z$4
__unwindtable$?_Ipfx@?$basic_istream@DU?$char_traits@D@std@@@std@@QAE_N_N@Z DD 0ffffffffH
	DD	FLAT:__unwindfunclet$?_Ipfx@?$basic_istream@DU?$char_traits@D@std@@@std@@QAE_N_N@Z$2
	DD	0ffffffffH
	DD	00H
	DD	0ffffffffH
	DD	00H
__ehfuncinfo$?_Ipfx@?$basic_istream@DU?$char_traits@D@std@@@std@@QAE_N_N@Z DD 019930522H
	DD	03H
	DD	FLAT:__unwindtable$?_Ipfx@?$basic_istream@DU?$char_traits@D@std@@@std@@QAE_N_N@Z
	DD	01H
	DD	FLAT:__tryblocktable$?_Ipfx@?$basic_istream@DU?$char_traits@D@std@@@std@@QAE_N_N@Z
	DD	2 DUP(00H)
	DD	00H
	DD	01H
xdata$x	ENDS
;	COMDAT xdata$x
xdata$x	SEGMENT
__catchsym$??$?6_WU?$char_traits@_W@std@@@std@@YAAAV?$basic_ostream@_WU?$char_traits@_W@std@@@0@AAV10@PBD@Z$7 DD 040H
	DD	00H
	DD	00H
	DD	FLAT:__catch$??$?6_WU?$char_traits@_W@std@@@std@@YAAAV?$basic_ostream@_WU?$char_traits@_W@std@@@0@AAV10@PBD@Z$0
__tryblocktable$??$?6_WU?$char_traits@_W@std@@@std@@YAAAV?$basic_ostream@_WU?$char_traits@_W@std@@@0@AAV10@PBD@Z DD 01H
	DD	02H
	DD	03H
	DD	01H
	DD	FLAT:__catchsym$??$?6_WU?$char_traits@_W@std@@@std@@YAAAV?$basic_ostream@_WU?$char_traits@_W@std@@@0@AAV10@PBD@Z$7
__ehfuncinfo$??$?6_WU?$char_traits@_W@std@@@std@@YAAAV?$basic_ostream@_WU?$char_traits@_W@std@@@0@AAV10@PBD@Z DD 019930522H
	DD	05H
	DD	FLAT:__unwindtable$??$?6_WU?$char_traits@_W@std@@@std@@YAAAV?$basic_ostream@_WU?$char_traits@_W@std@@@0@AAV10@PBD@Z
	DD	01H
	DD	FLAT:__tryblocktable$??$?6_WU?$char_traits@_W@std@@@std@@YAAAV?$basic_ostream@_WU?$char_traits@_W@std@@@0@AAV10@PBD@Z
	DD	2 DUP(00H)
	DD	00H
	DD	01H
__unwindtable$??$?6_WU?$char_traits@_W@std@@@std@@YAAAV?$basic_ostream@_WU?$char_traits@_W@std@@@0@AAV10@PBD@Z DD 0ffffffffH
	DD	FLAT:__unwindfunclet$??$?6_WU?$char_traits@_W@std@@@std@@YAAAV?$basic_ostream@_WU?$char_traits@_W@std@@@0@AAV10@PBD@Z$2
	DD	00H
	DD	00H
	DD	01H
	DD	FLAT:__unwindfunclet$??$?6_WU?$char_traits@_W@std@@@std@@YAAAV?$basic_ostream@_WU?$char_traits@_W@std@@@0@AAV10@PBD@Z$3
	DD	00H
	DD	00H
	DD	0ffffffffH
	DD	FLAT:___std_terminate
xdata$x	ENDS
;	COMDAT xdata$x
xdata$x	SEGMENT
__catchsym$?flush@?$basic_ostream@_WU?$char_traits@_W@std@@@std@@QAEAAV12@XZ$12 DD 040H
	DD	00H
	DD	00H
	DD	FLAT:__catch$?flush@?$basic_ostream@_WU?$char_traits@_W@std@@@std@@QAEAAV12@XZ$0
__tryblocktable$?flush@?$basic_ostream@_WU?$char_traits@_W@std@@@std@@QAEAAV12@XZ DD 01H
	DD	01H
	DD	02H
	DD	01H
	DD	FLAT:__catchsym$?flush@?$basic_ostream@_WU?$char_traits@_W@std@@@std@@QAEAAV12@XZ$12
__unwindtable$?flush@?$basic_ostream@_WU?$char_traits@_W@std@@@std@@QAEAAV12@XZ DD 0ffffffffH
	DD	FLAT:__unwindfunclet$?flush@?$basic_ostream@_WU?$char_traits@_W@std@@@std@@QAEAAV12@XZ$2
	DD	00H
	DD	00H
	DD	00H
	DD	00H
	DD	0ffffffffH
	DD	FLAT:___std_terminate
__ehfuncinfo$?flush@?$basic_ostream@_WU?$char_traits@_W@std@@@std@@QAEAAV12@XZ DD 019930522H
	DD	04H
	DD	FLAT:__unwindtable$?flush@?$basic_ostream@_WU?$char_traits@_W@std@@@std@@QAEAAV12@XZ
	DD	01H
	DD	FLAT:__tryblocktable$?flush@?$basic_ostream@_WU?$char_traits@_W@std@@@std@@QAEAAV12@XZ
	DD	2 DUP(00H)
	DD	00H
	DD	01H
xdata$x	ENDS
;	COMDAT xdata$x
xdata$x	SEGMENT
__catchsym$??6?$basic_ostream@_WU?$char_traits@_W@std@@@std@@QAEAAV01@K@Z$7 DD 040H
	DD	00H
	DD	00H
	DD	FLAT:__catch$??6?$basic_ostream@_WU?$char_traits@_W@std@@@std@@QAEAAV01@K@Z$0
__tryblocktable$??6?$basic_ostream@_WU?$char_traits@_W@std@@@std@@QAEAAV01@K@Z DD 02H
	DD	02H
	DD	03H
	DD	01H
	DD	FLAT:__catchsym$??6?$basic_ostream@_WU?$char_traits@_W@std@@@std@@QAEAAV01@K@Z$7
__ehfuncinfo$??6?$basic_ostream@_WU?$char_traits@_W@std@@@std@@QAEAAV01@K@Z DD 019930522H
	DD	05H
	DD	FLAT:__unwindtable$??6?$basic_ostream@_WU?$char_traits@_W@std@@@std@@QAEAAV01@K@Z
	DD	01H
	DD	FLAT:__tryblocktable$??6?$basic_ostream@_WU?$char_traits@_W@std@@@std@@QAEAAV01@K@Z
	DD	2 DUP(00H)
	DD	00H
	DD	01H
__unwindtable$??6?$basic_ostream@_WU?$char_traits@_W@std@@@std@@QAEAAV01@K@Z DD 0ffffffffH
	DD	FLAT:__unwindfunclet$??6?$basic_ostream@_WU?$char_traits@_W@std@@@std@@QAEAAV01@K@Z$2
	DD	00H
	DD	FLAT:__unwindfunclet$??6?$basic_ostream@_WU?$char_traits@_W@std@@@std@@QAEAAV01@K@Z$3
	DD	00H
	DD	00H
	DD	00H
	DD	00H
	DD	0ffffffffH
	DD	FLAT:___std_terminate
xdata$x	ENDS
;	COMDAT xdata$x
xdata$x	SEGMENT
__catchsym$??6?$basic_ostream@_WU?$char_traits@_W@std@@@std@@QAEAAV01@H@Z$7 DD 040H
	DD	00H
	DD	00H
	DD	FLAT:__catch$??6?$basic_ostream@_WU?$char_traits@_W@std@@@std@@QAEAAV01@H@Z$0
__tryblocktable$??6?$basic_ostream@_WU?$char_traits@_W@std@@@std@@QAEAAV01@H@Z DD 02H
	DD	02H
	DD	03H
	DD	01H
	DD	FLAT:__catchsym$??6?$basic_ostream@_WU?$char_traits@_W@std@@@std@@QAEAAV01@H@Z$7
__ehfuncinfo$??6?$basic_ostream@_WU?$char_traits@_W@std@@@std@@QAEAAV01@H@Z DD 019930522H
	DD	05H
	DD	FLAT:__unwindtable$??6?$basic_ostream@_WU?$char_traits@_W@std@@@std@@QAEAAV01@H@Z
	DD	01H
	DD	FLAT:__tryblocktable$??6?$basic_ostream@_WU?$char_traits@_W@std@@@std@@QAEAAV01@H@Z
	DD	2 DUP(00H)
	DD	00H
	DD	01H
__unwindtable$??6?$basic_ostream@_WU?$char_traits@_W@std@@@std@@QAEAAV01@H@Z DD 0ffffffffH
	DD	FLAT:__unwindfunclet$??6?$basic_ostream@_WU?$char_traits@_W@std@@@std@@QAEAAV01@H@Z$2
	DD	00H
	DD	FLAT:__unwindfunclet$??6?$basic_ostream@_WU?$char_traits@_W@std@@@std@@QAEAAV01@H@Z$3
	DD	00H
	DD	00H
	DD	00H
	DD	00H
	DD	0ffffffffH
	DD	FLAT:___std_terminate
xdata$x	ENDS
;	COMDAT xdata$x
xdata$x	SEGMENT
__catchsym$?_Osfx@?$basic_ostream@_WU?$char_traits@_W@std@@@std@@QAEXXZ$2 DD 040H
	DD	00H
	DD	00H
	DD	FLAT:__catch$?_Osfx@?$basic_ostream@_WU?$char_traits@_W@std@@@std@@QAEXXZ$0
__unwindtable$?_Osfx@?$basic_ostream@_WU?$char_traits@_W@std@@@std@@QAEXXZ DD 0ffffffffH
	DD	00H
	DD	0ffffffffH
	DD	00H
__tryblocktable$?_Osfx@?$basic_ostream@_WU?$char_traits@_W@std@@@std@@QAEXXZ DD 00H
	DD	00H
	DD	01H
	DD	01H
	DD	FLAT:__catchsym$?_Osfx@?$basic_ostream@_WU?$char_traits@_W@std@@@std@@QAEXXZ$2
__ehfuncinfo$?_Osfx@?$basic_ostream@_WU?$char_traits@_W@std@@@std@@QAEXXZ DD 019930522H
	DD	02H
	DD	FLAT:__unwindtable$?_Osfx@?$basic_ostream@_WU?$char_traits@_W@std@@@std@@QAEXXZ
	DD	01H
	DD	FLAT:__tryblocktable$?_Osfx@?$basic_ostream@_WU?$char_traits@_W@std@@@std@@QAEXXZ
	DD	2 DUP(00H)
	DD	00H
	DD	05H
xdata$x	ENDS
;	COMDAT xdata$x
xdata$x	SEGMENT
__unwindtable$??0?$vector@V?$basic_string@_WU?$char_traits@_W@std@@V?$allocator@_W@2@@std@@V?$allocator@V?$basic_string@_WU?$char_traits@_W@std@@V?$allocator@_W@2@@std@@@2@@std@@QAE@V?$initializer_list@V?$basic_string@_WU?$char_traits@_W@std@@V?$allocator@_W@2@@std@@@1@ABV?$allocator@V?$basic_string@_WU?$char_traits@_W@std@@V?$allocator@_W@2@@std@@@1@@Z DD 0ffffffffH
	DD	FLAT:__unwindfunclet$??0?$vector@V?$basic_string@_WU?$char_traits@_W@std@@V?$allocator@_W@2@@std@@V?$allocator@V?$basic_string@_WU?$char_traits@_W@std@@V?$allocator@_W@2@@std@@@2@@std@@QAE@V?$initializer_list@V?$basic_string@_WU?$char_traits@_W@std@@V?$allocator@_W@2@@std@@@1@ABV?$allocator@V?$basic_string@_WU?$char_traits@_W@std@@V?$allocator@_W@2@@std@@@1@@Z$0
	DD	00H
	DD	FLAT:__unwindfunclet$??0?$vector@V?$basic_string@_WU?$char_traits@_W@std@@V?$allocator@_W@2@@std@@V?$allocator@V?$basic_string@_WU?$char_traits@_W@std@@V?$allocator@_W@2@@std@@@2@@std@@QAE@V?$initializer_list@V?$basic_string@_WU?$char_traits@_W@std@@V?$allocator@_W@2@@std@@@1@ABV?$allocator@V?$basic_string@_WU?$char_traits@_W@std@@V?$allocator@_W@2@@std@@@1@@Z$1
__ehfuncinfo$??0?$vector@V?$basic_string@_WU?$char_traits@_W@std@@V?$allocator@_W@2@@std@@V?$allocator@V?$basic_string@_WU?$char_traits@_W@std@@V?$allocator@_W@2@@std@@@2@@std@@QAE@V?$initializer_list@V?$basic_string@_WU?$char_traits@_W@std@@V?$allocator@_W@2@@std@@@1@ABV?$allocator@V?$basic_string@_WU?$char_traits@_W@std@@V?$allocator@_W@2@@std@@@1@@Z DD 019930522H
	DD	02H
	DD	FLAT:__unwindtable$??0?$vector@V?$basic_string@_WU?$char_traits@_W@std@@V?$allocator@_W@2@@std@@V?$allocator@V?$basic_string@_WU?$char_traits@_W@std@@V?$allocator@_W@2@@std@@@2@@std@@QAE@V?$initializer_list@V?$basic_string@_WU?$char_traits@_W@std@@V?$allocator@_W@2@@std@@@1@ABV?$allocator@V?$basic_string@_WU?$char_traits@_W@std@@V?$allocator@_W@2@@std@@@1@@Z
	DD	2 DUP(00H)
	DD	2 DUP(00H)
	DD	00H
	DD	01H
xdata$x	ENDS
;	COMDAT xdata$x
xdata$x	SEGMENT
__ehfuncinfo$?ListAndWipeProcess@@YAXXZ DD 019930522H
	DD	0fH
	DD	FLAT:__unwindtable$?ListAndWipeProcess@@YAXXZ
	DD	2 DUP(00H)
	DD	2 DUP(00H)
	DD	00H
	DD	01H
__unwindtable$?ListAndWipeProcess@@YAXXZ DD 0ffffffffH
	DD	FLAT:__unwindfunclet$?ListAndWipeProcess@@YAXXZ$0
	DD	00H
	DD	FLAT:__unwindfunclet$?ListAndWipeProcess@@YAXXZ$1
	DD	01H
	DD	FLAT:__unwindfunclet$?ListAndWipeProcess@@YAXXZ$2
	DD	02H
	DD	FLAT:__unwindfunclet$?ListAndWipeProcess@@YAXXZ$3
	DD	03H
	DD	FLAT:__unwindfunclet$?ListAndWipeProcess@@YAXXZ$4
	DD	00H
	DD	FLAT:__unwindfunclet$?ListAndWipeProcess@@YAXXZ$6
	DD	05H
	DD	FLAT:__unwindfunclet$?ListAndWipeProcess@@YAXXZ$27
	DD	06H
	DD	FLAT:__unwindfunclet$?ListAndWipeProcess@@YAXXZ$28
	DD	0ffffffffH
	DD	FLAT:__unwindfunclet$?ListAndWipeProcess@@YAXXZ$7
	DD	08H
	DD	FLAT:__unwindfunclet$?ListAndWipeProcess@@YAXXZ$8
	DD	09H
	DD	FLAT:__unwindfunclet$?ListAndWipeProcess@@YAXXZ$9
	DD	09H
	DD	FLAT:__unwindfunclet$?ListAndWipeProcess@@YAXXZ$10
	DD	0bH
	DD	FLAT:__unwindfunclet$?ListAndWipeProcess@@YAXXZ$11
	DD	0cH
	DD	FLAT:__unwindfunclet$?ListAndWipeProcess@@YAXXZ$31
	DD	0cH
	DD	FLAT:__unwindfunclet$?ListAndWipeProcess@@YAXXZ$12
xdata$x	ENDS
;	COMDAT xdata$x
xdata$x	SEGMENT
__catchsym$??$?6U?$char_traits@D@std@@@std@@YAAAV?$basic_ostream@DU?$char_traits@D@std@@@0@AAV10@PBD@Z$5 DD 040H
	DD	00H
	DD	00H
	DD	FLAT:__catch$??$?6U?$char_traits@D@std@@@std@@YAAAV?$basic_ostream@DU?$char_traits@D@std@@@0@AAV10@PBD@Z$0
__tryblocktable$??$?6U?$char_traits@D@std@@@std@@YAAAV?$basic_ostream@DU?$char_traits@D@std@@@0@AAV10@PBD@Z DD 01H
	DD	01H
	DD	02H
	DD	01H
	DD	FLAT:__catchsym$??$?6U?$char_traits@D@std@@@std@@YAAAV?$basic_ostream@DU?$char_traits@D@std@@@0@AAV10@PBD@Z$5
__unwindtable$??$?6U?$char_traits@D@std@@@std@@YAAAV?$basic_ostream@DU?$char_traits@D@std@@@0@AAV10@PBD@Z DD 0ffffffffH
	DD	FLAT:__unwindfunclet$??$?6U?$char_traits@D@std@@@std@@YAAAV?$basic_ostream@DU?$char_traits@D@std@@@0@AAV10@PBD@Z$2
	DD	00H
	DD	00H
	DD	00H
	DD	00H
	DD	0ffffffffH
	DD	FLAT:___std_terminate
__ehfuncinfo$??$?6U?$char_traits@D@std@@@std@@YAAAV?$basic_ostream@DU?$char_traits@D@std@@@0@AAV10@PBD@Z DD 019930522H
	DD	04H
	DD	FLAT:__unwindtable$??$?6U?$char_traits@D@std@@@std@@YAAAV?$basic_ostream@DU?$char_traits@D@std@@@0@AAV10@PBD@Z
	DD	01H
	DD	FLAT:__tryblocktable$??$?6U?$char_traits@D@std@@@std@@YAAAV?$basic_ostream@DU?$char_traits@D@std@@@0@AAV10@PBD@Z
	DD	2 DUP(00H)
	DD	00H
	DD	01H
xdata$x	ENDS
;	COMDAT xdata$x
xdata$x	SEGMENT
__catchsym$?flush@?$basic_ostream@DU?$char_traits@D@std@@@std@@QAEAAV12@XZ$12 DD 040H
	DD	00H
	DD	00H
	DD	FLAT:__catch$?flush@?$basic_ostream@DU?$char_traits@D@std@@@std@@QAEAAV12@XZ$0
__tryblocktable$?flush@?$basic_ostream@DU?$char_traits@D@std@@@std@@QAEAAV12@XZ DD 01H
	DD	01H
	DD	02H
	DD	01H
	DD	FLAT:__catchsym$?flush@?$basic_ostream@DU?$char_traits@D@std@@@std@@QAEAAV12@XZ$12
__unwindtable$?flush@?$basic_ostream@DU?$char_traits@D@std@@@std@@QAEAAV12@XZ DD 0ffffffffH
	DD	FLAT:__unwindfunclet$?flush@?$basic_ostream@DU?$char_traits@D@std@@@std@@QAEAAV12@XZ$2
	DD	00H
	DD	00H
	DD	00H
	DD	00H
	DD	0ffffffffH
	DD	FLAT:___std_terminate
__ehfuncinfo$?flush@?$basic_ostream@DU?$char_traits@D@std@@@std@@QAEAAV12@XZ DD 019930522H
	DD	04H
	DD	FLAT:__unwindtable$?flush@?$basic_ostream@DU?$char_traits@D@std@@@std@@QAEAAV12@XZ
	DD	01H
	DD	FLAT:__tryblocktable$?flush@?$basic_ostream@DU?$char_traits@D@std@@@std@@QAEAAV12@XZ
	DD	2 DUP(00H)
	DD	00H
	DD	01H
xdata$x	ENDS
;	COMDAT xdata$x
xdata$x	SEGMENT
__catchsym$?_Osfx@?$basic_ostream@DU?$char_traits@D@std@@@std@@QAEXXZ$2 DD 040H
	DD	00H
	DD	00H
	DD	FLAT:__catch$?_Osfx@?$basic_ostream@DU?$char_traits@D@std@@@std@@QAEXXZ$0
__unwindtable$?_Osfx@?$basic_ostream@DU?$char_traits@D@std@@@std@@QAEXXZ DD 0ffffffffH
	DD	00H
	DD	0ffffffffH
	DD	00H
__tryblocktable$?_Osfx@?$basic_ostream@DU?$char_traits@D@std@@@std@@QAEXXZ DD 00H
	DD	00H
	DD	01H
	DD	01H
	DD	FLAT:__catchsym$?_Osfx@?$basic_ostream@DU?$char_traits@D@std@@@std@@QAEXXZ$2
__ehfuncinfo$?_Osfx@?$basic_ostream@DU?$char_traits@D@std@@@std@@QAEXXZ DD 019930522H
	DD	02H
	DD	FLAT:__unwindtable$?_Osfx@?$basic_ostream@DU?$char_traits@D@std@@@std@@QAEXXZ
	DD	01H
	DD	FLAT:__tryblocktable$?_Osfx@?$basic_ostream@DU?$char_traits@D@std@@@std@@QAEXXZ
	DD	2 DUP(00H)
	DD	00H
	DD	05H
xdata$x	ENDS
;	COMDAT xdata$x
xdata$x	SEGMENT
__unwindtable$?SecureWipeFile@@YAXABV?$basic_string@_WU?$char_traits@_W@std@@V?$allocator@_W@2@@std@@T_LARGE_INTEGER@@@Z DD 0ffffffffH
	DD	FLAT:__unwindfunclet$?SecureWipeFile@@YAXABV?$basic_string@_WU?$char_traits@_W@std@@V?$allocator@_W@2@@std@@T_LARGE_INTEGER@@@Z$0
__ehfuncinfo$?SecureWipeFile@@YAXABV?$basic_string@_WU?$char_traits@_W@std@@V?$allocator@_W@2@@std@@T_LARGE_INTEGER@@@Z DD 019930522H
	DD	01H
	DD	FLAT:__unwindtable$?SecureWipeFile@@YAXABV?$basic_string@_WU?$char_traits@_W@std@@V?$allocator@_W@2@@std@@T_LARGE_INTEGER@@@Z
	DD	2 DUP(00H)
	DD	2 DUP(00H)
	DD	00H
	DD	01H
xdata$x	ENDS
;	COMDAT xdata$x
xdata$x	SEGMENT
__unwindtable$?IsSafeWipePath@@YA_NABV?$basic_string@_WU?$char_traits@_W@std@@V?$allocator@_W@2@@std@@@Z DD 0ffffffffH
	DD	FLAT:__unwindfunclet$?IsSafeWipePath@@YA_NABV?$basic_string@_WU?$char_traits@_W@std@@V?$allocator@_W@2@@std@@@Z$0
__ehfuncinfo$?IsSafeWipePath@@YA_NABV?$basic_string@_WU?$char_traits@_W@std@@V?$allocator@_W@2@@std@@@Z DD 019930522H
	DD	01H
	DD	FLAT:__unwindtable$?IsSafeWipePath@@YA_NABV?$basic_string@_WU?$char_traits@_W@std@@V?$allocator@_W@2@@std@@@Z
	DD	2 DUP(00H)
	DD	2 DUP(00H)
	DD	00H
	DD	01H
xdata$x	ENDS
;	COMDAT xdata$x
xdata$x	SEGMENT
__unwindtable$??0failure@ios_base@std@@QAE@PBDABVerror_code@2@@Z DD 0ffffffffH
	DD	FLAT:__unwindfunclet$??0failure@ios_base@std@@QAE@PBDABVerror_code@2@@Z$1
__ehfuncinfo$??0failure@ios_base@std@@QAE@PBDABVerror_code@2@@Z DD 019930522H
	DD	01H
	DD	FLAT:__unwindtable$??0failure@ios_base@std@@QAE@PBDABVerror_code@2@@Z
	DD	2 DUP(00H)
	DD	2 DUP(00H)
	DD	00H
	DD	01H
xdata$x	ENDS
;	COMDAT xdata$x
xdata$x	SEGMENT
__unwindtable$?_Getcat@?$ctype@_W@std@@SAIPAPBVfacet@locale@2@PBV42@@Z DD 0ffffffffH
	DD	FLAT:__unwindfunclet$?_Getcat@?$ctype@_W@std@@SAIPAPBVfacet@locale@2@PBV42@@Z$0
__ehfuncinfo$?_Getcat@?$ctype@_W@std@@SAIPAPBVfacet@locale@2@PBV42@@Z DD 019930522H
	DD	01H
	DD	FLAT:__unwindtable$?_Getcat@?$ctype@_W@std@@SAIPAPBVfacet@locale@2@PBV42@@Z
	DD	2 DUP(00H)
	DD	2 DUP(00H)
	DD	00H
	DD	01H
xdata$x	ENDS
;	COMDAT xdata$x
xdata$x	SEGMENT
__unwindtable$??$use_facet@V?$ctype@D@std@@@std@@YAABV?$ctype@D@0@ABVlocale@0@@Z DD 0ffffffffH
	DD	FLAT:__unwindfunclet$??$use_facet@V?$ctype@D@std@@@std@@YAABV?$ctype@D@0@ABVlocale@0@@Z$0
	DD	00H
	DD	FLAT:__unwindfunclet$??$use_facet@V?$ctype@D@std@@@std@@YAABV?$ctype@D@0@ABVlocale@0@@Z$2
	DD	00H
	DD	FLAT:__unwindfunclet$??$use_facet@V?$ctype@D@std@@@std@@YAABV?$ctype@D@0@ABVlocale@0@@Z$1
__ehfuncinfo$??$use_facet@V?$ctype@D@std@@@std@@YAABV?$ctype@D@0@ABVlocale@0@@Z DD 019930522H
	DD	03H
	DD	FLAT:__unwindtable$??$use_facet@V?$ctype@D@std@@@std@@YAABV?$ctype@D@0@ABVlocale@0@@Z
	DD	2 DUP(00H)
	DD	2 DUP(00H)
	DD	00H
	DD	01H
xdata$x	ENDS
;	COMDAT xdata$x
xdata$x	SEGMENT
__unwindtable$?_Getcat@?$ctype@D@std@@SAIPAPBVfacet@locale@2@PBV42@@Z DD 0ffffffffH
	DD	FLAT:__unwindfunclet$?_Getcat@?$ctype@D@std@@SAIPAPBVfacet@locale@2@PBV42@@Z$0
__ehfuncinfo$?_Getcat@?$ctype@D@std@@SAIPAPBVfacet@locale@2@PBV42@@Z DD 019930522H
	DD	01H
	DD	FLAT:__unwindtable$?_Getcat@?$ctype@D@std@@SAIPAPBVfacet@locale@2@PBV42@@Z
	DD	2 DUP(00H)
	DD	2 DUP(00H)
	DD	00H
	DD	01H
xdata$x	ENDS
;	COMDAT xdata$x
xdata$x	SEGMENT
__ehfuncinfo$??0locale@std@@QAE@XZ DD 019930522H
	DD	00H
	DD	00H
	DD	2 DUP(00H)
	DD	2 DUP(00H)
	DD	00H
	DD	05H
xdata$x	ENDS
;	COMDAT xdata$x
xdata$x	SEGMENT
__ehfuncinfo$??1_Locinfo@std@@QAE@XZ DD 019930522H
	DD	00H
	DD	00H
	DD	2 DUP(00H)
	DD	2 DUP(00H)
	DD	00H
	DD	05H
xdata$x	ENDS
;	COMDAT xdata$x
xdata$x	SEGMENT
__ehfuncinfo$??0_Locinfo@std@@QAE@PBD@Z DD 019930522H
	DD	07H
	DD	FLAT:__unwindtable$??0_Locinfo@std@@QAE@PBD@Z
	DD	2 DUP(00H)
	DD	2 DUP(00H)
	DD	00H
	DD	01H
__unwindtable$??0_Locinfo@std@@QAE@PBD@Z DD 0ffffffffH
	DD	FLAT:__unwindfunclet$??0_Locinfo@std@@QAE@PBD@Z$0
	DD	00H
	DD	FLAT:__unwindfunclet$??0_Locinfo@std@@QAE@PBD@Z$1
	DD	01H
	DD	FLAT:__unwindfunclet$??0_Locinfo@std@@QAE@PBD@Z$2
	DD	02H
	DD	FLAT:__unwindfunclet$??0_Locinfo@std@@QAE@PBD@Z$3
	DD	03H
	DD	FLAT:__unwindfunclet$??0_Locinfo@std@@QAE@PBD@Z$4
	DD	04H
	DD	FLAT:__unwindfunclet$??0_Locinfo@std@@QAE@PBD@Z$5
	DD	05H
	DD	FLAT:__unwindfunclet$??0_Locinfo@std@@QAE@PBD@Z$6
xdata$x	ENDS
;	COMDAT xdata$x
xdata$x	SEGMENT
__unwindtable$??0system_error@std@@QAE@Verror_code@1@PBD@Z DD 0ffffffffH
	DD	FLAT:__unwindfunclet$??0system_error@std@@QAE@Verror_code@1@PBD@Z$0
__ehfuncinfo$??0system_error@std@@QAE@Verror_code@1@PBD@Z DD 019930522H
	DD	01H
	DD	FLAT:__unwindtable$??0system_error@std@@QAE@Verror_code@1@PBD@Z
	DD	2 DUP(00H)
	DD	2 DUP(00H)
	DD	00H
	DD	01H
xdata$x	ENDS
;	COMDAT xdata$x
xdata$x	SEGMENT
__unwindtable$??0_System_error@std@@IAE@Verror_code@1@ABV?$basic_string@DU?$char_traits@D@std@@V?$allocator@D@2@@1@@Z DD 0ffffffffH
	DD	FLAT:__unwindfunclet$??0_System_error@std@@IAE@Verror_code@1@ABV?$basic_string@DU?$char_traits@D@std@@V?$allocator@D@2@@1@@Z$5
	DD	00H
	DD	FLAT:__unwindfunclet$??0_System_error@std@@IAE@Verror_code@1@ABV?$basic_string@DU?$char_traits@D@std@@V?$allocator@D@2@@1@@Z$6
__ehfuncinfo$??0_System_error@std@@IAE@Verror_code@1@ABV?$basic_string@DU?$char_traits@D@std@@V?$allocator@D@2@@1@@Z DD 019930522H
	DD	02H
	DD	FLAT:__unwindtable$??0_System_error@std@@IAE@Verror_code@1@ABV?$basic_string@DU?$char_traits@D@std@@V?$allocator@D@2@@1@@Z
	DD	2 DUP(00H)
	DD	2 DUP(00H)
	DD	00H
	DD	01H
xdata$x	ENDS
;	COMDAT xdata$x
xdata$x	SEGMENT
__unwindtable$?_Makestr@_System_error@std@@CA?AV?$basic_string@DU?$char_traits@D@std@@V?$allocator@D@2@@2@Verror_code@2@V32@@Z DD 0ffffffffH
	DD	FLAT:__unwindfunclet$?_Makestr@_System_error@std@@CA?AV?$basic_string@DU?$char_traits@D@std@@V?$allocator@D@2@@2@Verror_code@2@V32@@Z$0
	DD	00H
	DD	FLAT:__unwindfunclet$?_Makestr@_System_error@std@@CA?AV?$basic_string@DU?$char_traits@D@std@@V?$allocator@D@2@@2@Verror_code@2@V32@@Z$1
__ehfuncinfo$?_Makestr@_System_error@std@@CA?AV?$basic_string@DU?$char_traits@D@std@@V?$allocator@D@2@@2@Verror_code@2@V32@@Z DD 019930522H
	DD	02H
	DD	FLAT:__unwindtable$?_Makestr@_System_error@std@@CA?AV?$basic_string@DU?$char_traits@D@std@@V?$allocator@D@2@@2@Verror_code@2@V32@@Z
	DD	2 DUP(00H)
	DD	2 DUP(00H)
	DD	00H
	DD	01H
xdata$x	ENDS
; Function compile flags: /Ogtp
; File C:\Program Files\Microsoft Visual Studio\2022\Community\VC\Tools\MSVC\14.44.35207\include\xlocale
;	COMDAT ??$_Maklocchr@D@std@@YADDPADABU_Cvtvec@@@Z
_TEXT	SEGMENT
__Byte$ = 8						; size = 1
___formal$ = 12						; size = 4
___formal$ = 16						; size = 4
??$_Maklocchr@D@std@@YADDPADABU_Cvtvec@@@Z PROC		; std::_Maklocchr<char>, COMDAT

; 500  : _Elem __CRTDECL _Maklocchr(char _Byte, _Elem*, const _Locinfo::_Cvtvec&) {

  00000	55		 push	 ebp
  00001	8b ec		 mov	 ebp, esp

; 501  :     // convert char to _Elem using _Cvtvec
; 502  :     return static_cast<_Elem>(static_cast<unsigned char>(_Byte));

  00003	8a 45 08	 mov	 al, BYTE PTR __Byte$[ebp]

; 503  : }

  00006	5d		 pop	 ebp
  00007	c3		 ret	 0
??$_Maklocchr@D@std@@YADDPADABU_Cvtvec@@@Z ENDP		; std::_Maklocchr<char>
_TEXT	ENDS
; Function compile flags: /Ogtp
; File C:\Program Files\Microsoft Visual Studio\2022\Community\VC\Tools\MSVC\14.44.35207\include\xmemory
; File C:\Program Files\Microsoft Visual Studio\2022\Community\VC\Tools\MSVC\14.44.35207\include\xlocnum
; File C:\Program Files\Microsoft Visual Studio\2022\Community\VC\Tools\MSVC\14.44.35207\include\xmemory
;	COMDAT ??1?$_Tidy_guard@V?$numpunct@D@std@@@std@@QAE@XZ
_TEXT	SEGMENT
??1?$_Tidy_guard@V?$numpunct@D@std@@@std@@QAE@XZ PROC	; std::_Tidy_guard<std::numpunct<char> >::~_Tidy_guard<std::numpunct<char> >, COMDAT
; _this$ = ecx

; 86   :     _CONSTEXPR20 ~_Tidy_guard() {

  00000	56		 push	 esi

; 87   :         if (_Target) {

  00001	8b 31		 mov	 esi, DWORD PTR [ecx]
  00003	85 f6		 test	 esi, esi
  00005	74 1b		 je	 SHORT $LN6@Tidy_guard
; File C:\Program Files\Microsoft Visual Studio\2022\Community\VC\Tools\MSVC\14.44.35207\include\xlocnum

; 202  :         _CSTD free(const_cast<char*>(_Grouping));

  00007	ff 76 08	 push	 DWORD PTR [esi+8]
  0000a	e8 00 00 00 00	 call	 _free

; 203  :         _CSTD free(const_cast<_Elem*>(_Falsename));

  0000f	ff 76 10	 push	 DWORD PTR [esi+16]
  00012	e8 00 00 00 00	 call	 _free

; 204  :         _CSTD free(const_cast<_Elem*>(_Truename));

  00017	ff 76 14	 push	 DWORD PTR [esi+20]
  0001a	e8 00 00 00 00	 call	 _free
  0001f	83 c4 0c	 add	 esp, 12			; 0000000cH
$LN6@Tidy_guard:
  00022	5e		 pop	 esi
; File C:\Program Files\Microsoft Visual Studio\2022\Community\VC\Tools\MSVC\14.44.35207\include\xmemory

; 90   :     }

  00023	c3		 ret	 0
??1?$_Tidy_guard@V?$numpunct@D@std@@@std@@QAE@XZ ENDP	; std::_Tidy_guard<std::numpunct<char> >::~_Tidy_guard<std::numpunct<char> >
_TEXT	ENDS
; Function compile flags: /Ogtp
; File C:\Program Files\Microsoft Visual Studio\2022\Community\VC\Tools\MSVC\14.44.35207\include\xlocale
;	COMDAT ??$_Maklocstr@D@std@@YAPADPBDPADABU_Cvtvec@@@Z
_TEXT	SEGMENT
__Ptr$ = 8						; size = 4
___formal$ = 12						; size = 4
___formal$ = 16						; size = 4
??$_Maklocstr@D@std@@YAPADPBDPADABU_Cvtvec@@@Z PROC	; std::_Maklocstr<char>, COMDAT

; 526  : _Elem* __CRTDECL _Maklocstr(const char* _Ptr, _Elem*, const _Locinfo::_Cvtvec&) {

  00000	55		 push	 ebp
  00001	8b ec		 mov	 ebp, esp

; 527  :     // convert C string to _Elem sequence using _Cvtvec
; 528  :     size_t _Count = _CSTD strlen(_Ptr) + 1;

  00003	8b 45 08	 mov	 eax, DWORD PTR __Ptr$[ebp]
  00006	8d 50 01	 lea	 edx, DWORD PTR [eax+1]
  00009	0f 1f 80 00 00
	00 00		 npad	 7
$LL11@Maklocstr:
  00010	8a 08		 mov	 cl, BYTE PTR [eax]
  00012	40		 inc	 eax
  00013	84 c9		 test	 cl, cl
  00015	75 f9		 jne	 SHORT $LL11@Maklocstr
  00017	56		 push	 esi
  00018	2b c2		 sub	 eax, edx
  0001a	57		 push	 edi

; 529  : 
; 530  :     _Elem* _Ptrdest = static_cast<_Elem*>(_calloc_dbg(_Count, sizeof(_Elem), _CRT_BLOCK, __FILE__, __LINE__));

  0001b	6a 01		 push	 1
  0001d	8d 78 01	 lea	 edi, DWORD PTR [eax+1]
  00020	57		 push	 edi
  00021	e8 00 00 00 00	 call	 _calloc
  00026	8b f0		 mov	 esi, eax
  00028	83 c4 08	 add	 esp, 8

; 531  : 
; 532  :     if (!_Ptrdest) {

  0002b	85 f6		 test	 esi, esi
  0002d	74 17		 je	 SHORT $LN17@Maklocstr

; 534  :     }
; 535  : 
; 536  :     for (_Elem* _Ptrnext = _Ptrdest; 0 < _Count; --_Count, ++_Ptrnext, ++_Ptr) {

  0002f	85 ff		 test	 edi, edi
  00031	74 0d		 je	 SHORT $LN4@Maklocstr
  00033	57		 push	 edi
  00034	ff 75 08	 push	 DWORD PTR __Ptr$[ebp]
  00037	56		 push	 esi
  00038	e8 00 00 00 00	 call	 _memcpy
  0003d	83 c4 0c	 add	 esp, 12			; 0000000cH
$LN4@Maklocstr:

; 537  :         *_Ptrnext = static_cast<_Elem>(static_cast<unsigned char>(*_Ptr));
; 538  :     }
; 539  : 
; 540  :     return _Ptrdest;
; 541  : }

  00040	5f		 pop	 edi
  00041	8b c6		 mov	 eax, esi
  00043	5e		 pop	 esi
  00044	5d		 pop	 ebp
  00045	c3		 ret	 0
$LN17@Maklocstr:

; 533  :         _Xbad_alloc();

  00046	e8 00 00 00 00	 call	 ?_Xbad_alloc@std@@YAXXZ	; std::_Xbad_alloc
$LN15@Maklocstr:
  0004b	cc		 int	 3
??$_Maklocstr@D@std@@YAPADPBDPADABU_Cvtvec@@@Z ENDP	; std::_Maklocstr<char>
_TEXT	ENDS
; Function compile flags: /Ogtp
; File C:\Program Files\Microsoft Visual Studio\2022\Community\VC\Tools\MSVC\14.44.35207\include\xmemory
; File C:\Program Files\Microsoft Visual Studio\2022\Community\VC\Tools\MSVC\14.44.35207\include\xlocnum
; File C:\Program Files\Microsoft Visual Studio\2022\Community\VC\Tools\MSVC\14.44.35207\include\xmemory
;	COMDAT ??1?$_Tidy_guard@V?$numpunct@_W@std@@@std@@QAE@XZ
_TEXT	SEGMENT
??1?$_Tidy_guard@V?$numpunct@_W@std@@@std@@QAE@XZ PROC	; std::_Tidy_guard<std::numpunct<wchar_t> >::~_Tidy_guard<std::numpunct<wchar_t> >, COMDAT
; _this$ = ecx

; 86   :     _CONSTEXPR20 ~_Tidy_guard() {

  00000	56		 push	 esi

; 87   :         if (_Target) {

  00001	8b 31		 mov	 esi, DWORD PTR [ecx]
  00003	85 f6		 test	 esi, esi
  00005	74 1b		 je	 SHORT $LN6@Tidy_guard
; File C:\Program Files\Microsoft Visual Studio\2022\Community\VC\Tools\MSVC\14.44.35207\include\xlocnum

; 202  :         _CSTD free(const_cast<char*>(_Grouping));

  00007	ff 76 08	 push	 DWORD PTR [esi+8]
  0000a	e8 00 00 00 00	 call	 _free

; 203  :         _CSTD free(const_cast<_Elem*>(_Falsename));

  0000f	ff 76 10	 push	 DWORD PTR [esi+16]
  00012	e8 00 00 00 00	 call	 _free

; 204  :         _CSTD free(const_cast<_Elem*>(_Truename));

  00017	ff 76 14	 push	 DWORD PTR [esi+20]
  0001a	e8 00 00 00 00	 call	 _free
  0001f	83 c4 0c	 add	 esp, 12			; 0000000cH
$LN6@Tidy_guard:
  00022	5e		 pop	 esi
; File C:\Program Files\Microsoft Visual Studio\2022\Community\VC\Tools\MSVC\14.44.35207\include\xmemory

; 90   :     }

  00023	c3		 ret	 0
??1?$_Tidy_guard@V?$numpunct@_W@std@@@std@@QAE@XZ ENDP	; std::_Tidy_guard<std::numpunct<wchar_t> >::~_Tidy_guard<std::numpunct<wchar_t> >
_TEXT	ENDS
; Function compile flags: /Ogtp
; File C:\Program Files\Microsoft Visual Studio\2022\Community\VC\Tools\MSVC\14.44.35207\include\xmemory
;	COMDAT ??$_Allocate_manually_vector_aligned@U_Default_allocate_traits@std@@@std@@YAPAXI@Z
_TEXT	SEGMENT
__Bytes$ = 8						; size = 4
??$_Allocate_manually_vector_aligned@U_Default_allocate_traits@std@@@std@@YAPAXI@Z PROC ; std::_Allocate_manually_vector_aligned<std::_Default_allocate_traits>, COMDAT

; 182  : __declspec(allocator) void* _Allocate_manually_vector_aligned(const size_t _Bytes) {

  00000	55		 push	 ebp
  00001	8b ec		 mov	 ebp, esp

; 183  :     // allocate _Bytes manually aligned to at least _Big_allocation_alignment
; 184  :     const size_t _Block_size = _Non_user_size + _Bytes;

  00003	8b 45 08	 mov	 eax, DWORD PTR __Bytes$[ebp]
  00006	8d 48 23	 lea	 ecx, DWORD PTR [eax+35]

; 185  :     if (_Block_size <= _Bytes) {

  00009	3b c8		 cmp	 ecx, eax
  0000b	0f 86 00 00 00
	00		 jbe	 ?_Throw_bad_array_new_length@std@@YAXXZ ; std::_Throw_bad_array_new_length

; 136  :         return ::operator new(_Bytes);

  00011	51		 push	 ecx
  00012	0f ae e8	 lfence
  00015	e8 00 00 00 00	 call	 ??2@YAPAXI@Z		; operator new

; 186  :         _Throw_bad_array_new_length(); // add overflow
; 187  :     }
; 188  : 
; 189  :     const uintptr_t _Ptr_container = reinterpret_cast<uintptr_t>(_Traits::_Allocate(_Block_size));

  0001a	8b c8		 mov	 ecx, eax

; 136  :         return ::operator new(_Bytes);

  0001c	83 c4 04	 add	 esp, 4

; 190  :     _STL_VERIFY(_Ptr_container != 0, "invalid argument"); // validate even in release since we're doing p[-1]

  0001f	85 c9		 test	 ecx, ecx
  00021	74 0e		 je	 SHORT $LN9@Allocate_m

; 191  :     void* const _Ptr = reinterpret_cast<void*>((_Ptr_container + _Non_user_size) & ~(_Big_allocation_alignment - 1));

  00023	8d 41 23	 lea	 eax, DWORD PTR [ecx+35]
  00026	83 e0 e0	 and	 eax, -32		; ffffffe0H
  00029	0f ae e8	 lfence

; 192  :     static_cast<uintptr_t*>(_Ptr)[-1] = _Ptr_container;

  0002c	89 48 fc	 mov	 DWORD PTR [eax-4], ecx

; 193  : 
; 194  : #ifdef _DEBUG
; 195  :     static_cast<uintptr_t*>(_Ptr)[-2] = _Big_allocation_sentinel;
; 196  : #endif // defined(_DEBUG)
; 197  :     return _Ptr;
; 198  : }

  0002f	5d		 pop	 ebp
  00030	c3		 ret	 0
$LN9@Allocate_m:

; 190  :     _STL_VERIFY(_Ptr_container != 0, "invalid argument"); // validate even in release since we're doing p[-1]

  00031	6a 00		 push	 0
  00033	6a 00		 push	 0
  00035	6a 00		 push	 0
  00037	6a 00		 push	 0
  00039	6a 00		 push	 0
  0003b	e8 00 00 00 00	 call	 __invoke_watson
$LN7@Allocate_m:
  00040	cc		 int	 3
??$_Allocate_manually_vector_aligned@U_Default_allocate_traits@std@@@std@@YAPAXI@Z ENDP ; std::_Allocate_manually_vector_aligned<std::_Default_allocate_traits>
_TEXT	ENDS
; Function compile flags: /Ogtp
; File C:\Program Files\Microsoft Visual Studio\2022\Community\VC\Tools\MSVC\14.44.35207\include\xutility
;	COMDAT ??$_Find_vectorized@$$CBDD@std@@YAPBDQBD0D@Z
_TEXT	SEGMENT
__First$ = 8						; size = 4
__Last$ = 12						; size = 4
__Val$ = 16						; size = 1
??$_Find_vectorized@$$CBDD@std@@YAPBDQBD0D@Z PROC	; std::_Find_vectorized<char const ,char>, COMDAT

; 190  : _Ty* _Find_vectorized(_Ty* const _First, _Ty* const _Last, const _TVal _Val) noexcept {

  00000	55		 push	 ebp
  00001	8b ec		 mov	 ebp, esp

; 191  :     if constexpr (is_pointer_v<_TVal> || is_null_pointer_v<_TVal>) {
; 192  : #ifdef _WIN64
; 193  :         return const_cast<_Ty*>(
; 194  :             static_cast<const _Ty*>(::__std_find_trivial_8(_First, _Last, reinterpret_cast<uint64_t>(_Val))));
; 195  : #else
; 196  :         return const_cast<_Ty*>(
; 197  :             static_cast<const _Ty*>(::__std_find_trivial_4(_First, _Last, reinterpret_cast<uint32_t>(_Val))));
; 198  : #endif
; 199  :     } else if constexpr (sizeof(_Ty) == 1) {
; 200  :         return const_cast<_Ty*>(

  00003	ff 75 10	 push	 DWORD PTR __Val$[ebp]
  00006	ff 75 0c	 push	 DWORD PTR __Last$[ebp]
  00009	ff 75 08	 push	 DWORD PTR __First$[ebp]
  0000c	e8 00 00 00 00	 call	 ___std_find_trivial_1@12

; 201  :             static_cast<const _Ty*>(::__std_find_trivial_1(_First, _Last, static_cast<uint8_t>(_Val))));
; 202  :     } else if constexpr (sizeof(_Ty) == 2) {
; 203  :         return const_cast<_Ty*>(
; 204  :             static_cast<const _Ty*>(::__std_find_trivial_2(_First, _Last, static_cast<uint16_t>(_Val))));
; 205  :     } else if constexpr (sizeof(_Ty) == 4) {
; 206  :         return const_cast<_Ty*>(
; 207  :             static_cast<const _Ty*>(::__std_find_trivial_4(_First, _Last, static_cast<uint32_t>(_Val))));
; 208  :     } else if constexpr (sizeof(_Ty) == 8) {
; 209  :         return const_cast<_Ty*>(
; 210  :             static_cast<const _Ty*>(::__std_find_trivial_8(_First, _Last, static_cast<uint64_t>(_Val))));
; 211  :     } else {
; 212  :         _STL_INTERNAL_STATIC_ASSERT(false); // unexpected size
; 213  :     }
; 214  : }

  00011	5d		 pop	 ebp
  00012	c3		 ret	 0
??$_Find_vectorized@$$CBDD@std@@YAPBDQBD0D@Z ENDP	; std::_Find_vectorized<char const ,char>
_TEXT	ENDS
; Function compile flags: /Ogtp
; File C:\Program Files\Microsoft Visual Studio\2022\Community\VC\Tools\MSVC\14.44.35207\include\xmemory
;	COMDAT ??$_Allocate@$07U_Default_allocate_traits@std@@@std@@YAPAXI@Z
_TEXT	SEGMENT
__Bytes$ = 8						; size = 4
??$_Allocate@$07U_Default_allocate_traits@std@@@std@@YAPAXI@Z PROC ; std::_Allocate<8,std::_Default_allocate_traits>, COMDAT

; 225  : __declspec(allocator) _CONSTEXPR20 void* _Allocate(const size_t _Bytes) {

  00000	55		 push	 ebp
  00001	8b ec		 mov	 ebp, esp

; 226  :     // allocate _Bytes
; 227  :     if (_Bytes == 0) {

  00003	8b 45 08	 mov	 eax, DWORD PTR __Bytes$[ebp]
  00006	85 c0		 test	 eax, eax
  00008	75 02		 jne	 SHORT $LN2@Allocate

; 252  :             // boost the alignment of big allocations to help autovectorization
; 253  :             return _Allocate_manually_vector_aligned<_Traits>(_Bytes);
; 254  :         }
; 255  : #endif // defined(_M_IX86) || defined(_M_X64)
; 256  :         return _Traits::_Allocate(_Bytes);
; 257  :     }
; 258  : }

  0000a	5d		 pop	 ebp
  0000b	c3		 ret	 0
$LN2@Allocate:

; 228  :         return nullptr;
; 229  :     }
; 230  : 
; 231  : #if _HAS_CXX20 // TRANSITION, GH-1532
; 232  :     if (_STD is_constant_evaluated()) {
; 233  :         return _Traits::_Allocate(_Bytes);
; 234  :     }
; 235  : #endif // _HAS_CXX20
; 236  : 
; 237  : #ifdef __cpp_aligned_new
; 238  :     if constexpr (_Align > __STDCPP_DEFAULT_NEW_ALIGNMENT__) {
; 239  :         size_t _Passed_align = _Align;
; 240  : #if defined(_M_IX86) || defined(_M_X64)
; 241  :         if (_Bytes >= _Big_allocation_threshold) {
; 242  :             // boost the alignment of big allocations to help autovectorization
; 243  :             _Passed_align = (_STD max)(_Align, _Big_allocation_alignment);
; 244  :         }
; 245  : #endif // defined(_M_IX86) || defined(_M_X64)
; 246  :         return _Traits::_Allocate_aligned(_Bytes, _Passed_align);
; 247  :     } else
; 248  : #endif // defined(__cpp_aligned_new)
; 249  :     {
; 250  : #if defined(_M_IX86) || defined(_M_X64)
; 251  :         if (_Bytes >= _Big_allocation_threshold) {

  0000c	3d 00 10 00 00	 cmp	 eax, 4096		; 00001000H
  00011	72 2b		 jb	 SHORT $LN3@Allocate

; 184  :     const size_t _Block_size = _Non_user_size + _Bytes;

  00013	8d 48 23	 lea	 ecx, DWORD PTR [eax+35]

; 185  :     if (_Block_size <= _Bytes) {

  00016	3b c8		 cmp	 ecx, eax
  00018	0f 86 00 00 00
	00		 jbe	 ?_Throw_bad_array_new_length@std@@YAXXZ ; std::_Throw_bad_array_new_length

; 136  :         return ::operator new(_Bytes);

  0001e	51		 push	 ecx
  0001f	0f ae e8	 lfence
  00022	e8 00 00 00 00	 call	 ??2@YAPAXI@Z		; operator new

; 189  :     const uintptr_t _Ptr_container = reinterpret_cast<uintptr_t>(_Traits::_Allocate(_Block_size));

  00027	8b c8		 mov	 ecx, eax

; 136  :         return ::operator new(_Bytes);

  00029	83 c4 04	 add	 esp, 4

; 190  :     _STL_VERIFY(_Ptr_container != 0, "invalid argument"); // validate even in release since we're doing p[-1]

  0002c	85 c9		 test	 ecx, ecx
  0002e	74 1a		 je	 SHORT $LN17@Allocate

; 191  :     void* const _Ptr = reinterpret_cast<void*>((_Ptr_container + _Non_user_size) & ~(_Big_allocation_alignment - 1));

  00030	8d 41 23	 lea	 eax, DWORD PTR [ecx+35]
  00033	83 e0 e0	 and	 eax, -32		; ffffffe0H
  00036	0f ae e8	 lfence

; 192  :     static_cast<uintptr_t*>(_Ptr)[-1] = _Ptr_container;

  00039	89 48 fc	 mov	 DWORD PTR [eax-4], ecx

; 252  :             // boost the alignment of big allocations to help autovectorization
; 253  :             return _Allocate_manually_vector_aligned<_Traits>(_Bytes);
; 254  :         }
; 255  : #endif // defined(_M_IX86) || defined(_M_X64)
; 256  :         return _Traits::_Allocate(_Bytes);
; 257  :     }
; 258  : }

  0003c	5d		 pop	 ebp
  0003d	c3		 ret	 0
$LN3@Allocate:

; 136  :         return ::operator new(_Bytes);

  0003e	0f ae e8	 lfence
  00041	89 45 08	 mov	 DWORD PTR __Bytes$[ebp], eax

; 252  :             // boost the alignment of big allocations to help autovectorization
; 253  :             return _Allocate_manually_vector_aligned<_Traits>(_Bytes);
; 254  :         }
; 255  : #endif // defined(_M_IX86) || defined(_M_X64)
; 256  :         return _Traits::_Allocate(_Bytes);
; 257  :     }
; 258  : }

  00044	5d		 pop	 ebp

; 136  :         return ::operator new(_Bytes);

  00045	e9 00 00 00 00	 jmp	 ??2@YAPAXI@Z		; operator new
$LN17@Allocate:

; 190  :     _STL_VERIFY(_Ptr_container != 0, "invalid argument"); // validate even in release since we're doing p[-1]

  0004a	6a 00		 push	 0
  0004c	6a 00		 push	 0
  0004e	6a 00		 push	 0
  00050	6a 00		 push	 0
  00052	6a 00		 push	 0
  00054	e8 00 00 00 00	 call	 __invoke_watson
$LN15@Allocate:
  00059	cc		 int	 3
??$_Allocate@$07U_Default_allocate_traits@std@@@std@@YAPAXI@Z ENDP ; std::_Allocate<8,std::_Default_allocate_traits>
_TEXT	ENDS
; Function compile flags: /Ogtp
; File C:\Program Files\Microsoft Visual Studio\2022\Community\VC\Tools\MSVC\14.44.35207\include\xutility
;	COMDAT ??$_Reverse_vectorized@$00@std@@YAXPAX0@Z
_TEXT	SEGMENT
__First$ = 8						; size = 4
__Last$ = 12						; size = 4
??$_Reverse_vectorized@$00@std@@YAXPAX0@Z PROC		; std::_Reverse_vectorized<1>, COMDAT

; 155  :     if constexpr (_Nx == 1) {
; 156  :         ::__std_reverse_trivially_swappable_1(_First, _Last);

  00000	e9 00 00 00 00	 jmp	 ___std_reverse_trivially_swappable_1
??$_Reverse_vectorized@$00@std@@YAXPAX0@Z ENDP		; std::_Reverse_vectorized<1>
_TEXT	ENDS
; Function compile flags: /Ogtp
; File C:\Program Files\Microsoft Visual Studio\2022\Community\VC\Tools\MSVC\14.44.35207\include\xutility
;	COMDAT ??$_Copy_memmove_tail@PAK@std@@YAPAKQBDQAKII@Z
_TEXT	SEGMENT
__First_ch$ = 8						; size = 4
__Dest$ = 12						; size = 4
__Byte_count$ = 16					; size = 4
__Object_count$ = 20					; size = 4
??$_Copy_memmove_tail@PAK@std@@YAPAKQBDQAKII@Z PROC	; std::_Copy_memmove_tail<unsigned long *>, COMDAT

; 4747 :     const char* const _First_ch, const _OutCtgIt _Dest, const size_t _Byte_count, const size_t _Object_count) {

  00000	55		 push	 ebp
  00001	8b ec		 mov	 ebp, esp
  00003	56		 push	 esi

; 4748 :     _STL_INTERNAL_CHECK(_Byte_count == _Object_count * sizeof(*_Dest));
; 4749 :     const auto _Dest_ptr = _STD _To_address(_Dest);
; 4750 :     const auto _Dest_ch  = const_cast<char*>(reinterpret_cast<const volatile char*>(_Dest_ptr));
; 4751 :     _CSTD memmove(_Dest_ch, _First_ch, _Byte_count);

  00004	8b 75 0c	 mov	 esi, DWORD PTR __Dest$[ebp]
  00007	57		 push	 edi
  00008	8b 7d 10	 mov	 edi, DWORD PTR __Byte_count$[ebp]
  0000b	57		 push	 edi
  0000c	ff 75 08	 push	 DWORD PTR __First_ch$[ebp]
  0000f	56		 push	 esi
  00010	e8 00 00 00 00	 call	 _memmove
  00015	83 c4 0c	 add	 esp, 12			; 0000000cH

; 4752 :     if constexpr (is_pointer_v<_OutCtgIt>) {
; 4753 :         (void) _Object_count;
; 4754 :         // CodeQL [SM02986] This cast is correct: we're bypassing pointer arithmetic for performance.
; 4755 :         return reinterpret_cast<_OutCtgIt>(_Dest_ch + _Byte_count);

  00018	8d 04 3e	 lea	 eax, DWORD PTR [esi+edi]
  0001b	5f		 pop	 edi
  0001c	5e		 pop	 esi

; 4756 :     } else {
; 4757 :         return _Dest + static_cast<_Iter_diff_t<_OutCtgIt>>(_Object_count);
; 4758 :     }
; 4759 : }

  0001d	5d		 pop	 ebp
  0001e	c3		 ret	 0
??$_Copy_memmove_tail@PAK@std@@YAPAKQBDQAKII@Z ENDP	; std::_Copy_memmove_tail<unsigned long *>
_TEXT	ENDS
; Function compile flags: /Ogtp
; File C:\Program Files\Microsoft Visual Studio\2022\Community\VC\Tools\MSVC\14.44.35207\include\xlocnum
; File C:\Program Files\Microsoft Visual Studio\2022\Community\VC\Tools\MSVC\14.44.35207\include\xutility
; File C:\Program Files\Microsoft Visual Studio\2022\Community\VC\Tools\MSVC\14.44.35207\include\xlocnum
; File C:\Program Files\Microsoft Visual Studio\2022\Community\VC\Tools\MSVC\14.44.35207\include\xutility
; File C:\Program Files\Microsoft Visual Studio\2022\Community\VC\Tools\MSVC\14.44.35207\include\xlocnum
;	COMDAT ??$_Find_elem@D$0BN@@std@@YAIAAY0BN@$$CBDD@Z
_TEXT	SEGMENT
__Base$ = 8						; size = 4
__Ch$ = 12						; size = 1
??$_Find_elem@D$0BN@@std@@YAIAAY0BN@$$CBDD@Z PROC	; std::_Find_elem<char,29>, COMDAT

; 67   : size_t _Find_elem(const _Elem (&_Base)[_Base_size], const _Elem _Ch) {

  00000	55		 push	 ebp
  00001	8b ec		 mov	 ebp, esp
  00003	56		 push	 esi

; 70   :     return static_cast<size_t>(_STD _Find_unchecked(_Base, _Base + (_Base_size - 1), _Ch) - _Base);

  00004	8b 75 08	 mov	 esi, DWORD PTR __Base$[ebp]
; File C:\Program Files\Microsoft Visual Studio\2022\Community\VC\Tools\MSVC\14.44.35207\include\xutility

; 200  :         return const_cast<_Ty*>(

  00007	ff 75 0c	 push	 DWORD PTR __Ch$[ebp]
; File C:\Program Files\Microsoft Visual Studio\2022\Community\VC\Tools\MSVC\14.44.35207\include\xlocnum

; 70   :     return static_cast<size_t>(_STD _Find_unchecked(_Base, _Base + (_Base_size - 1), _Ch) - _Base);

  0000a	8d 46 1c	 lea	 eax, DWORD PTR [esi+28]
; File C:\Program Files\Microsoft Visual Studio\2022\Community\VC\Tools\MSVC\14.44.35207\include\xutility

; 200  :         return const_cast<_Ty*>(

  0000d	50		 push	 eax
  0000e	56		 push	 esi
  0000f	e8 00 00 00 00	 call	 ___std_find_trivial_1@12
; File C:\Program Files\Microsoft Visual Studio\2022\Community\VC\Tools\MSVC\14.44.35207\include\xlocnum

; 70   :     return static_cast<size_t>(_STD _Find_unchecked(_Base, _Base + (_Base_size - 1), _Ch) - _Base);

  00014	2b c6		 sub	 eax, esi
  00016	5e		 pop	 esi

; 71   : }

  00017	5d		 pop	 ebp
  00018	c3		 ret	 0
??$_Find_elem@D$0BN@@std@@YAIAAY0BN@$$CBDD@Z ENDP	; std::_Find_elem<char,29>
_TEXT	ENDS
; Function compile flags: /Ogtp
; File C:\Program Files\Microsoft Visual Studio\2022\Community\VC\Tools\MSVC\14.44.35207\include\xlocnum
; File C:\Program Files\Microsoft Visual Studio\2022\Community\VC\Tools\MSVC\14.44.35207\include\xutility
; File C:\Program Files\Microsoft Visual Studio\2022\Community\VC\Tools\MSVC\14.44.35207\include\xlocnum
; File C:\Program Files\Microsoft Visual Studio\2022\Community\VC\Tools\MSVC\14.44.35207\include\xutility
; File C:\Program Files\Microsoft Visual Studio\2022\Community\VC\Tools\MSVC\14.44.35207\include\xlocnum
;	COMDAT ??$_Find_elem@D$0BL@@std@@YAIAAY0BL@$$CBDD@Z
_TEXT	SEGMENT
__Base$ = 8						; size = 4
__Ch$ = 12						; size = 1
??$_Find_elem@D$0BL@@std@@YAIAAY0BL@$$CBDD@Z PROC	; std::_Find_elem<char,27>, COMDAT

; 67   : size_t _Find_elem(const _Elem (&_Base)[_Base_size], const _Elem _Ch) {

  00000	55		 push	 ebp
  00001	8b ec		 mov	 ebp, esp
  00003	56		 push	 esi

; 70   :     return static_cast<size_t>(_STD _Find_unchecked(_Base, _Base + (_Base_size - 1), _Ch) - _Base);

  00004	8b 75 08	 mov	 esi, DWORD PTR __Base$[ebp]
; File C:\Program Files\Microsoft Visual Studio\2022\Community\VC\Tools\MSVC\14.44.35207\include\xutility

; 200  :         return const_cast<_Ty*>(

  00007	ff 75 0c	 push	 DWORD PTR __Ch$[ebp]
; File C:\Program Files\Microsoft Visual Studio\2022\Community\VC\Tools\MSVC\14.44.35207\include\xlocnum

; 70   :     return static_cast<size_t>(_STD _Find_unchecked(_Base, _Base + (_Base_size - 1), _Ch) - _Base);

  0000a	8d 46 1a	 lea	 eax, DWORD PTR [esi+26]
; File C:\Program Files\Microsoft Visual Studio\2022\Community\VC\Tools\MSVC\14.44.35207\include\xutility

; 200  :         return const_cast<_Ty*>(

  0000d	50		 push	 eax
  0000e	56		 push	 esi
  0000f	e8 00 00 00 00	 call	 ___std_find_trivial_1@12
; File C:\Program Files\Microsoft Visual Studio\2022\Community\VC\Tools\MSVC\14.44.35207\include\xlocnum

; 70   :     return static_cast<size_t>(_STD _Find_unchecked(_Base, _Base + (_Base_size - 1), _Ch) - _Base);

  00014	2b c6		 sub	 eax, esi
  00016	5e		 pop	 esi

; 71   : }

  00017	5d		 pop	 ebp
  00018	c3		 ret	 0
??$_Find_elem@D$0BL@@std@@YAIAAY0BL@$$CBDD@Z ENDP	; std::_Find_elem<char,27>
_TEXT	ENDS
; Function compile flags: /Ogtp
; File C:\Program Files\Microsoft Visual Studio\2022\Community\VC\Tools\MSVC\14.44.35207\include\iterator
;	COMDAT ??$?9DU?$char_traits@D@std@@@std@@YA_NABV?$istreambuf_iterator@DU?$char_traits@D@std@@@0@0@Z
_TEXT	SEGMENT
__Left$ = 8						; size = 4
__Right$ = 12						; size = 4
??$?9DU?$char_traits@D@std@@@std@@YA_NABV?$istreambuf_iterator@DU?$char_traits@D@std@@@0@0@Z PROC ; std::operator!=<char,std::char_traits<char> >, COMDAT

; 494  :     const istreambuf_iterator<_Elem, _Traits>& _Left, const istreambuf_iterator<_Elem, _Traits>& _Right) {

  00000	55		 push	 ebp
  00001	8b ec		 mov	 ebp, esp

; 495  :     return !(_Left == _Right);

  00003	ff 75 0c	 push	 DWORD PTR __Right$[ebp]
  00006	ff 75 08	 push	 DWORD PTR __Left$[ebp]
  00009	e8 00 00 00 00	 call	 ??$?8DU?$char_traits@D@std@@@std@@YA_NABV?$istreambuf_iterator@DU?$char_traits@D@std@@@0@0@Z ; std::operator==<char,std::char_traits<char> >
  0000e	83 c4 08	 add	 esp, 8
  00011	34 01		 xor	 al, 1

; 496  : }

  00013	5d		 pop	 ebp
  00014	c3		 ret	 0
??$?9DU?$char_traits@D@std@@@std@@YA_NABV?$istreambuf_iterator@DU?$char_traits@D@std@@@0@0@Z ENDP ; std::operator!=<char,std::char_traits<char> >
_TEXT	ENDS
; Function compile flags: /Ogtp
; File C:\Program Files\Microsoft Visual Studio\2022\Community\VC\Tools\MSVC\14.44.35207\include\xutility
;	COMDAT ??$_Copy_memmove@PAKPAK@std@@YAPAKPAK00@Z
_TEXT	SEGMENT
__First$ = 8						; size = 4
__Last$ = 12						; size = 4
__Dest$ = 16						; size = 4
??$_Copy_memmove@PAKPAK@std@@YAPAKPAK00@Z PROC		; std::_Copy_memmove<unsigned long *,unsigned long *>, COMDAT

; 4762 : _OutCtgIt _Copy_memmove(_CtgIt _First, _CtgIt _Last, _OutCtgIt _Dest) {

  00000	55		 push	 ebp
  00001	8b ec		 mov	 ebp, esp

; 4763 :     _STL_INTERNAL_CHECK(_First <= _Last);
; 4764 :     const auto _First_ptr    = _STD _To_address(_First);
; 4765 :     const auto _Last_ptr     = _STD _To_address(_Last);
; 4766 :     const auto _Object_count = static_cast<size_t>(_Last_ptr - _First_ptr);
; 4767 :     const auto _First_ch     = const_cast<const char*>(reinterpret_cast<const volatile char*>(_First_ptr));
; 4768 :     const auto _Last_ch      = const_cast<const char*>(reinterpret_cast<const volatile char*>(_Last_ptr));
; 4769 :     const auto _Byte_count   = static_cast<size_t>(_Last_ch - _First_ch);

  00003	8b 45 08	 mov	 eax, DWORD PTR __First$[ebp]
  00006	56		 push	 esi

; 4751 :     _CSTD memmove(_Dest_ch, _First_ch, _Byte_count);

  00007	8b 75 10	 mov	 esi, DWORD PTR __Dest$[ebp]

; 4762 : _OutCtgIt _Copy_memmove(_CtgIt _First, _CtgIt _Last, _OutCtgIt _Dest) {

  0000a	57		 push	 edi

; 4763 :     _STL_INTERNAL_CHECK(_First <= _Last);
; 4764 :     const auto _First_ptr    = _STD _To_address(_First);
; 4765 :     const auto _Last_ptr     = _STD _To_address(_Last);
; 4766 :     const auto _Object_count = static_cast<size_t>(_Last_ptr - _First_ptr);
; 4767 :     const auto _First_ch     = const_cast<const char*>(reinterpret_cast<const volatile char*>(_First_ptr));
; 4768 :     const auto _Last_ch      = const_cast<const char*>(reinterpret_cast<const volatile char*>(_Last_ptr));
; 4769 :     const auto _Byte_count   = static_cast<size_t>(_Last_ch - _First_ch);

  0000b	8b 7d 0c	 mov	 edi, DWORD PTR __Last$[ebp]
  0000e	2b f8		 sub	 edi, eax

; 4751 :     _CSTD memmove(_Dest_ch, _First_ch, _Byte_count);

  00010	57		 push	 edi
  00011	50		 push	 eax
  00012	56		 push	 esi
  00013	e8 00 00 00 00	 call	 _memmove
  00018	83 c4 0c	 add	 esp, 12			; 0000000cH

; 4752 :     if constexpr (is_pointer_v<_OutCtgIt>) {
; 4753 :         (void) _Object_count;
; 4754 :         // CodeQL [SM02986] This cast is correct: we're bypassing pointer arithmetic for performance.
; 4755 :         return reinterpret_cast<_OutCtgIt>(_Dest_ch + _Byte_count);

  0001b	8d 04 37	 lea	 eax, DWORD PTR [edi+esi]

; 4770 :     return _STD _Copy_memmove_tail(_First_ch, _STD move(_Dest), _Byte_count, _Object_count);

  0001e	5f		 pop	 edi
  0001f	5e		 pop	 esi

; 4771 : }

  00020	5d		 pop	 ebp
  00021	c3		 ret	 0
??$_Copy_memmove@PAKPAK@std@@YAPAKPAK00@Z ENDP		; std::_Copy_memmove<unsigned long *,unsigned long *>
_TEXT	ENDS
; Function compile flags: /Ogtp
; File C:\Program Files\Microsoft Visual Studio\2022\Community\VC\Tools\MSVC\14.44.35207\include\xlocale
; File C:\Program Files\Microsoft Visual Studio\2022\Community\VC\Tools\MSVC\14.44.35207\include\xstring
; File C:\Program Files\Microsoft Visual Studio\2022\Community\VC\Tools\MSVC\14.44.35207\include\xlocale
; File C:\Program Files\Microsoft Visual Studio\2022\Community\VC\Tools\MSVC\14.44.35207\include\xstring
; File C:\Program Files\Microsoft Visual Studio\2022\Community\VC\Tools\MSVC\14.44.35207\include\xlocale
; File C:\Program Files\Microsoft Visual Studio\2022\Community\VC\Tools\MSVC\14.44.35207\include\iterator
; File C:\Program Files\Microsoft Visual Studio\2022\Community\VC\Tools\MSVC\14.44.35207\include\streambuf
; File C:\Program Files\Microsoft Visual Studio\2022\Community\VC\Tools\MSVC\14.44.35207\include\__msvc_string_view.hpp
; File C:\Program Files\Microsoft Visual Studio\2022\Community\VC\Tools\MSVC\14.44.35207\include\streambuf
; File C:\Program Files\Microsoft Visual Studio\2022\Community\VC\Tools\MSVC\14.44.35207\include\__msvc_string_view.hpp
; File C:\Program Files\Microsoft Visual Studio\2022\Community\VC\Tools\MSVC\14.44.35207\include\iterator
; File C:\Program Files\Microsoft Visual Studio\2022\Community\VC\Tools\MSVC\14.44.35207\include\streambuf
; File C:\Program Files\Microsoft Visual Studio\2022\Community\VC\Tools\MSVC\14.44.35207\include\__msvc_string_view.hpp
; File C:\Program Files\Microsoft Visual Studio\2022\Community\VC\Tools\MSVC\14.44.35207\include\streambuf
; File C:\Program Files\Microsoft Visual Studio\2022\Community\VC\Tools\MSVC\14.44.35207\include\__msvc_string_view.hpp
; File C:\Program Files\Microsoft Visual Studio\2022\Community\VC\Tools\MSVC\14.44.35207\include\iterator
; File C:\Program Files\Microsoft Visual Studio\2022\Community\VC\Tools\MSVC\14.44.35207\include\xstring
; File C:\Program Files\Microsoft Visual Studio\2022\Community\VC\Tools\MSVC\14.44.35207\include\xlocale
; File C:\Program Files\Microsoft Visual Studio\2022\Community\VC\Tools\MSVC\14.44.35207\include\iterator
; File C:\Program Files\Microsoft Visual Studio\2022\Community\VC\Tools\MSVC\14.44.35207\include\xlocale
; File C:\Program Files\Microsoft Visual Studio\2022\Community\VC\Tools\MSVC\14.44.35207\include\iterator
; File C:\Program Files\Microsoft Visual Studio\2022\Community\VC\Tools\MSVC\14.44.35207\include\streambuf
; File C:\Program Files\Microsoft Visual Studio\2022\Community\VC\Tools\MSVC\14.44.35207\include\__msvc_string_view.hpp
; File C:\Program Files\Microsoft Visual Studio\2022\Community\VC\Tools\MSVC\14.44.35207\include\streambuf
; File C:\Program Files\Microsoft Visual Studio\2022\Community\VC\Tools\MSVC\14.44.35207\include\__msvc_string_view.hpp
; File C:\Program Files\Microsoft Visual Studio\2022\Community\VC\Tools\MSVC\14.44.35207\include\iterator
; File C:\Program Files\Microsoft Visual Studio\2022\Community\VC\Tools\MSVC\14.44.35207\include\xlocale
; File C:\Program Files\Microsoft Visual Studio\2022\Community\VC\Tools\MSVC\14.44.35207\include\iterator
; File C:\Program Files\Microsoft Visual Studio\2022\Community\VC\Tools\MSVC\14.44.35207\include\xlocale
; File C:\Program Files\Microsoft Visual Studio\2022\Community\VC\Tools\MSVC\14.44.35207\include\iterator
; File C:\Program Files\Microsoft Visual Studio\2022\Community\VC\Tools\MSVC\14.44.35207\include\xlocale
; File C:\Program Files\Microsoft Visual Studio\2022\Community\VC\Tools\MSVC\14.44.35207\include\iterator
; File C:\Program Files\Microsoft Visual Studio\2022\Community\VC\Tools\MSVC\14.44.35207\include\xlocale
; File C:\Program Files\Microsoft Visual Studio\2022\Community\VC\Tools\MSVC\14.44.35207\include\iterator
; File C:\Program Files\Microsoft Visual Studio\2022\Community\VC\Tools\MSVC\14.44.35207\include\streambuf
; File C:\Program Files\Microsoft Visual Studio\2022\Community\VC\Tools\MSVC\14.44.35207\include\__msvc_string_view.hpp
; File C:\Program Files\Microsoft Visual Studio\2022\Community\VC\Tools\MSVC\14.44.35207\include\streambuf
; File C:\Program Files\Microsoft Visual Studio\2022\Community\VC\Tools\MSVC\14.44.35207\include\__msvc_string_view.hpp
; File C:\Program Files\Microsoft Visual Studio\2022\Community\VC\Tools\MSVC\14.44.35207\include\iterator
; File C:\Program Files\Microsoft Visual Studio\2022\Community\VC\Tools\MSVC\14.44.35207\include\xlocale
; File C:\Program Files\Microsoft Visual Studio\2022\Community\VC\Tools\MSVC\14.44.35207\include\iterator
; File C:\Program Files\Microsoft Visual Studio\2022\Community\VC\Tools\MSVC\14.44.35207\include\xlocale
; File C:\Program Files\Microsoft Visual Studio\2022\Community\VC\Tools\MSVC\14.44.35207\include\xstring
; File C:\Program Files\Microsoft Visual Studio\2022\Community\VC\Tools\MSVC\14.44.35207\include\xlocale
; File C:\Program Files\Microsoft Visual Studio\2022\Community\VC\Tools\MSVC\14.44.35207\include\xstring
; File C:\Program Files\Microsoft Visual Studio\2022\Community\VC\Tools\MSVC\14.44.35207\include\xlocale
; File C:\Program Files\Microsoft Visual Studio\2022\Community\VC\Tools\MSVC\14.44.35207\include\iterator
; File C:\Program Files\Microsoft Visual Studio\2022\Community\VC\Tools\MSVC\14.44.35207\include\streambuf
; File C:\Program Files\Microsoft Visual Studio\2022\Community\VC\Tools\MSVC\14.44.35207\include\__msvc_string_view.hpp
; File C:\Program Files\Microsoft Visual Studio\2022\Community\VC\Tools\MSVC\14.44.35207\include\streambuf
; File C:\Program Files\Microsoft Visual Studio\2022\Community\VC\Tools\MSVC\14.44.35207\include\__msvc_string_view.hpp
; File C:\Program Files\Microsoft Visual Studio\2022\Community\VC\Tools\MSVC\14.44.35207\include\iterator
; File C:\Program Files\Microsoft Visual Studio\2022\Community\VC\Tools\MSVC\14.44.35207\include\xlocale
; File C:\Program Files\Microsoft Visual Studio\2022\Community\VC\Tools\MSVC\14.44.35207\include\xstring
; File C:\Program Files\Microsoft Visual Studio\2022\Community\VC\Tools\MSVC\14.44.35207\include\xmemory
; File C:\Program Files\Microsoft Visual Studio\2022\Community\VC\Tools\MSVC\14.44.35207\include\xlocale
; File C:\Program Files\Microsoft Visual Studio\2022\Community\VC\Tools\MSVC\14.44.35207\include\xmemory
; File C:\Program Files\Microsoft Visual Studio\2022\Community\VC\Tools\MSVC\14.44.35207\include\xlocale
;	COMDAT ??$_Getloctxt@V?$istreambuf_iterator@DU?$char_traits@D@std@@@std@@D@std@@YAHAAV?$istreambuf_iterator@DU?$char_traits@D@std@@@0@0IPBDW4_Case_sensitive@0@@Z
_TEXT	SEGMENT
$T2 = -88						; size = 8
$T3 = -84						; size = 1
__CType$1$ = -80					; size = 4
__Ans$1$ = -76						; size = 4
__Numfields$2$ = -72					; size = 4
__Field$1$ = -68					; size = 4
__Last$GSCopy$1$ = -64					; size = 4
__Ptr$GSCopy$1$ = -60					; size = 4
__Column$1$ = -56					; size = 4
__Str$2$ = -52						; size = 4
__Ptr$1$ = -48						; size = 4
__Prefix$1$ = -41					; size = 1
__Str$ = -40						; size = 24
__$ArrayPad$ = -16					; size = 4
__$EHRec$ = -12						; size = 12
__First$ = 8						; size = 4
__Last$ = 12						; size = 4
__Numfields$ = 16					; size = 4
__Ptr$ = 20						; size = 4
__Matching$ = 24					; size = 1
??$_Getloctxt@V?$istreambuf_iterator@DU?$char_traits@D@std@@@std@@D@std@@YAHAAV?$istreambuf_iterator@DU?$char_traits@D@std@@@0@0IPBDW4_Case_sensitive@0@@Z PROC ; std::_Getloctxt<std::istreambuf_iterator<char,std::char_traits<char> >,char>, COMDAT

; 3313 :     _InIt& _First, _InIt& _Last, size_t _Numfields, const _Elem* _Ptr, const _Case_sensitive _Matching) {

  00000	55		 push	 ebp
  00001	8b ec		 mov	 ebp, esp
  00003	6a ff		 push	 -1
  00005	68 00 00 00 00	 push	 __ehhandler$??$_Getloctxt@V?$istreambuf_iterator@DU?$char_traits@D@std@@@std@@D@std@@YAHAAV?$istreambuf_iterator@DU?$char_traits@D@std@@@0@0IPBDW4_Case_sensitive@0@@Z
  0000a	64 a1 00 00 00
	00		 mov	 eax, DWORD PTR fs:0
  00010	50		 push	 eax
  00011	83 ec 4c	 sub	 esp, 76			; 0000004cH
  00014	a1 00 00 00 00	 mov	 eax, DWORD PTR ___security_cookie
  00019	33 c5		 xor	 eax, ebp
  0001b	89 45 f0	 mov	 DWORD PTR __$ArrayPad$[ebp], eax
  0001e	53		 push	 ebx
  0001f	56		 push	 esi
  00020	57		 push	 edi
  00021	50		 push	 eax
  00022	8d 45 f4	 lea	 eax, DWORD PTR __$EHRec$[ebp]
  00025	64 a3 00 00 00
	00		 mov	 DWORD PTR fs:0, eax
  0002b	8b 45 14	 mov	 eax, DWORD PTR __Ptr$[ebp]
  0002e	8b 4d 0c	 mov	 ecx, DWORD PTR __Last$[ebp]
  00031	8b 75 08	 mov	 esi, DWORD PTR __First$[ebp]

; 3314 :     // find field at _Ptr that matches longest in [_First, _Last)
; 3315 :     for (size_t _Off = 0; _Ptr[_Off] != _Elem{}; ++_Off) {

  00034	8b 7d 10	 mov	 edi, DWORD PTR __Numfields$[ebp]
  00037	8a 18		 mov	 bl, BYTE PTR [eax]
  00039	89 45 c4	 mov	 DWORD PTR __Ptr$GSCopy$1$[ebp], eax
  0003c	89 4d c0	 mov	 DWORD PTR __Last$GSCopy$1$[ebp], ecx
  0003f	84 db		 test	 bl, bl
  00041	74 1d		 je	 SHORT $LN288@Getloctxt
  00043	8a d3		 mov	 dl, bl
  00045	8b c8		 mov	 ecx, eax
$LL4@Getloctxt:
  00047	3a d3		 cmp	 dl, bl
  00049	8d 47 01	 lea	 eax, DWORD PTR [edi+1]
  0004c	8a 51 01	 mov	 dl, BYTE PTR [ecx+1]
  0004f	8d 49 01	 lea	 ecx, DWORD PTR [ecx+1]
  00052	0f 45 c7	 cmovne	 eax, edi
  00055	8b f8		 mov	 edi, eax
  00057	84 d2		 test	 dl, dl
  00059	75 ec		 jne	 SHORT $LL4@Getloctxt
  0005b	89 45 b8	 mov	 DWORD PTR __Numfields$2$[ebp], eax
  0005e	eb 03		 jmp	 SHORT $LN3@Getloctxt
$LN288@Getloctxt:
  00060	89 7d b8	 mov	 DWORD PTR __Numfields$2$[ebp], edi
$LN3@Getloctxt:

; 3316 :         if (_Ptr[_Off] == _Ptr[0]) {
; 3317 :             ++_Numfields; // add fields with leading mark to initial count
; 3318 :         }
; 3319 :     }
; 3320 : 
; 3321 :     string _Str(_Numfields, '\0'); // one column counter for each field

  00063	6a 00		 push	 0
  00065	57		 push	 edi
  00066	8d 4d d8	 lea	 ecx, DWORD PTR __Str$[ebp]
  00069	e8 00 00 00 00	 call	 ??0?$basic_string@DU?$char_traits@D@std@@V?$allocator@D@2@@std@@QAE@ID@Z ; std::basic_string<char,std::char_traits<char>,std::allocator<char> >::basic_string<char,std::char_traits<char>,std::allocator<char> >

; 272  :     locale() noexcept : _Ptr(_Init(true)) {}

  0006e	6a 01		 push	 1
  00070	c7 45 fc 01 00
	00 00		 mov	 DWORD PTR __$EHRec$[ebp+8], 1
  00077	e8 00 00 00 00	 call	 ?_Init@locale@std@@CAPAV_Locimp@12@_N@Z ; std::locale::_Init
  0007c	8b f8		 mov	 edi, eax
  0007e	89 7d ac	 mov	 DWORD PTR $T2[ebp+4], edi

; 3322 :     const ctype<_Elem>& _CType = _STD use_facet<ctype<_Elem>>(locale{});

  00081	8d 45 a8	 lea	 eax, DWORD PTR $T2[ebp]
  00084	c6 45 fc 02	 mov	 BYTE PTR __$EHRec$[ebp+8], 2
  00088	50		 push	 eax
  00089	e8 00 00 00 00	 call	 ??$use_facet@V?$ctype@D@std@@@std@@YAABV?$ctype@D@0@ABVlocale@0@@Z ; std::use_facet<std::ctype<char> >
  0008e	83 c4 08	 add	 esp, 8
  00091	89 45 b0	 mov	 DWORD PTR __CType$1$[ebp], eax
  00094	c6 45 fc 00	 mov	 BYTE PTR __$EHRec$[ebp+8], 0
  00098	85 ff		 test	 edi, edi

; 354  :         if (_Ptr) {

  0009a	74 14		 je	 SHORT $LL7@Getloctxt

; 355  :             delete _Ptr->_Decref();

  0009c	8b 17		 mov	 edx, DWORD PTR [edi]
  0009e	8b cf		 mov	 ecx, edi
  000a0	ff 52 08	 call	 DWORD PTR [edx+8]
  000a3	85 c0		 test	 eax, eax
  000a5	74 09		 je	 SHORT $LL7@Getloctxt
  000a7	8b 10		 mov	 edx, DWORD PTR [eax]
  000a9	8b c8		 mov	 ecx, eax
  000ab	6a 01		 push	 1
  000ad	ff 12		 call	 DWORD PTR [edx]
  000af	90		 npad	 1
$LL7@Getloctxt:

; 3326 :         bool _Prefix  = false; // seen at least one valid prefix

  000b0	32 c0		 xor	 al, al
  000b2	c7 45 b4 fe ff
	ff ff		 mov	 DWORD PTR __Ans$1$[ebp], -2 ; fffffffeH
  000b9	33 db		 xor	 ebx, ebx
  000bb	88 45 d7	 mov	 BYTE PTR __Prefix$1$[ebp], al

; 3330 :         for (; _Field < _Numfields; ++_Field) { // test element at _Column in field _Field

  000be	8b 45 ec	 mov	 eax, DWORD PTR __Str$[ebp+20]
  000c1	33 ff		 xor	 edi, edi
  000c3	89 5d bc	 mov	 DWORD PTR __Field$1$[ebp], ebx
  000c6	c7 45 c8 01 00
	00 00		 mov	 DWORD PTR __Column$1$[ebp], 1
  000cd	39 5d b8	 cmp	 DWORD PTR __Numfields$2$[ebp], ebx
  000d0	0f 86 89 02 00
	00		 jbe	 $LN289@Getloctxt
  000d6	8b 4d d8	 mov	 ecx, DWORD PTR __Str$[ebp]
  000d9	89 45 cc	 mov	 DWORD PTR __Str$2$[ebp], eax
  000dc	89 4d d0	 mov	 DWORD PTR __Ptr$1$[ebp], ecx
$LN300@Getloctxt:

; 3331 :             while (_Ptr[_Off] != _Elem{} && _Ptr[_Off] != _Ptr[0]) { // find beginning of field

  000df	8b 55 c4	 mov	 edx, DWORD PTR __Ptr$GSCopy$1$[ebp]
$LL10@Getloctxt:
  000e2	8a 04 3a	 mov	 al, BYTE PTR [edx+edi]
  000e5	84 c0		 test	 al, al
  000e7	74 17		 je	 SHORT $LN12@Getloctxt
  000e9	8a 0a		 mov	 cl, BYTE PTR [edx]
  000eb	0f 1f 44 00 00	 npad	 5
$LL11@Getloctxt:
  000f0	3a c1		 cmp	 al, cl
  000f2	74 09		 je	 SHORT $LN290@Getloctxt
  000f4	8a 44 3a 01	 mov	 al, BYTE PTR [edx+edi+1]

; 3332 :                 ++_Off;

  000f8	47		 inc	 edi
  000f9	84 c0		 test	 al, al
  000fb	75 f3		 jne	 SHORT $LL11@Getloctxt
$LN290@Getloctxt:
  000fd	8b 4d d0	 mov	 ecx, DWORD PTR __Ptr$1$[ebp]
$LN12@Getloctxt:
; File C:\Program Files\Microsoft Visual Studio\2022\Community\VC\Tools\MSVC\14.44.35207\include\xstring

; 453  :         return _Myres > _Small_string_capacity;

  00100	83 7d cc 0f	 cmp	 DWORD PTR __Str$2$[ebp], 15 ; 0000000fH

; 435  :         value_type* _Result = _Bx._Buf;

  00104	8d 45 d8	 lea	 eax, DWORD PTR __Str$[ebp]

; 436  :         if (_Large_mode_engaged()) {

  00107	0f 47 c1	 cmova	 eax, ecx
; File C:\Program Files\Microsoft Visual Studio\2022\Community\VC\Tools\MSVC\14.44.35207\include\xlocale

; 3335 :             if (_Str[_Field] != '\0') {

  0010a	80 3c 18 00	 cmp	 BYTE PTR [eax+ebx], 0
  0010e	74 15		 je	 SHORT $LN14@Getloctxt
; File C:\Program Files\Microsoft Visual Studio\2022\Community\VC\Tools\MSVC\14.44.35207\include\xstring

; 453  :         return _Myres > _Small_string_capacity;

  00110	83 7d cc 0f	 cmp	 DWORD PTR __Str$2$[ebp], 15 ; 0000000fH

; 435  :         value_type* _Result = _Bx._Buf;

  00114	8d 45 d8	 lea	 eax, DWORD PTR __Str$[ebp]

; 436  :         if (_Large_mode_engaged()) {

  00117	0f 47 c1	 cmova	 eax, ecx
; File C:\Program Files\Microsoft Visual Studio\2022\Community\VC\Tools\MSVC\14.44.35207\include\xlocale

; 3336 :                 _Off += _Str[_Field]; // skip tested columns in field

  0011a	0f be 04 18	 movsx	 eax, BYTE PTR [eax+ebx]
  0011e	03 f8		 add	 edi, eax

; 3337 :             } else if (_Ptr[_Off += _Column] == _Ptr[0]

  00120	e9 b6 01 00 00	 jmp	 $LN297@Getloctxt
$LN14@Getloctxt:

; 3338 :                        || _Ptr[_Off] == _Elem{}) { // matched all of field, save as possible answer

  00125	03 7d c8	 add	 edi, DWORD PTR __Column$1$[ebp]
  00128	8a 04 3a	 mov	 al, BYTE PTR [edx+edi]
  0012b	3a 02		 cmp	 al, BYTE PTR [edx]
  0012d	0f 84 79 01 00
	00		 je	 $LN18@Getloctxt
  00133	84 c0		 test	 al, al
  00135	0f 84 71 01 00
	00		 je	 $LN18@Getloctxt
; File C:\Program Files\Microsoft Visual Studio\2022\Community\VC\Tools\MSVC\14.44.35207\include\iterator

; 437  :         if (!_Got) {

  0013b	80 7e 04 00	 cmp	 BYTE PTR [esi+4], 0
  0013f	75 35		 jne	 SHORT $LN284@Getloctxt

; 470  :         if (!_Strbuf || traits_type::eq_int_type(traits_type::eof(), _Meta = _Strbuf->sgetc())) {

  00141	8b 0e		 mov	 ecx, DWORD PTR [esi]
  00143	85 c9		 test	 ecx, ecx
  00145	74 25		 je	 SHORT $LN129@Getloctxt
; File C:\Program Files\Microsoft Visual Studio\2022\Community\VC\Tools\MSVC\14.44.35207\include\streambuf

; 232  :         return *_IGnext ? *_IGcount : 0;

  00147	8b 41 1c	 mov	 eax, DWORD PTR [ecx+28]
  0014a	8b 10		 mov	 edx, DWORD PTR [eax]
  0014c	85 d2		 test	 edx, edx
  0014e	74 0d		 je	 SHORT $LN133@Getloctxt
  00150	8b 41 2c	 mov	 eax, DWORD PTR [ecx+44]

; 129  :         return 0 < _Gnavail() ? _Traits::to_int_type(*gptr()) : underflow();

  00153	83 38 00	 cmp	 DWORD PTR [eax], 0
  00156	7e 05		 jle	 SHORT $LN133@Getloctxt
; File C:\Program Files\Microsoft Visual Studio\2022\Community\VC\Tools\MSVC\14.44.35207\include\__msvc_string_view.hpp

; 518  :         return static_cast<unsigned char>(_Ch);

  00158	0f b6 02	 movzx	 eax, BYTE PTR [edx]
; File C:\Program Files\Microsoft Visual Studio\2022\Community\VC\Tools\MSVC\14.44.35207\include\streambuf

; 129  :         return 0 < _Gnavail() ? _Traits::to_int_type(*gptr()) : underflow();

  0015b	eb 05		 jmp	 SHORT $LN134@Getloctxt
$LN133@Getloctxt:
  0015d	8b 01		 mov	 eax, DWORD PTR [ecx]
  0015f	ff 50 18	 call	 DWORD PTR [eax+24]
$LN134@Getloctxt:
; File C:\Program Files\Microsoft Visual Studio\2022\Community\VC\Tools\MSVC\14.44.35207\include\__msvc_string_view.hpp

; 522  :         return _Left == _Right;

  00162	83 f8 ff	 cmp	 eax, -1
; File C:\Program Files\Microsoft Visual Studio\2022\Community\VC\Tools\MSVC\14.44.35207\include\iterator

; 470  :         if (!_Strbuf || traits_type::eq_int_type(traits_type::eof(), _Meta = _Strbuf->sgetc())) {

  00165	74 05		 je	 SHORT $LN129@Getloctxt

; 473  :             _Val = traits_type::to_char_type(_Meta);

  00167	88 46 05	 mov	 BYTE PTR [esi+5], al
  0016a	eb 06		 jmp	 SHORT $LN128@Getloctxt
$LN129@Getloctxt:

; 471  :             _Strbuf = nullptr;

  0016c	c7 06 00 00 00
	00		 mov	 DWORD PTR [esi], 0
$LN128@Getloctxt:

; 474  :         }
; 475  : 
; 476  :         _Got = true;

  00172	c6 46 04 01	 mov	 BYTE PTR [esi+4], 1
$LN284@Getloctxt:

; 441  :         if (!_Right._Got) {

  00176	8b 45 c0	 mov	 eax, DWORD PTR __Last$GSCopy$1$[ebp]
  00179	80 78 04 00	 cmp	 BYTE PTR [eax+4], 0
  0017d	75 3d		 jne	 SHORT $LN120@Getloctxt

; 470  :         if (!_Strbuf || traits_type::eq_int_type(traits_type::eof(), _Meta = _Strbuf->sgetc())) {

  0017f	8b 08		 mov	 ecx, DWORD PTR [eax]
  00181	85 c9		 test	 ecx, ecx
  00183	74 2d		 je	 SHORT $LN275@Getloctxt
; File C:\Program Files\Microsoft Visual Studio\2022\Community\VC\Tools\MSVC\14.44.35207\include\streambuf

; 232  :         return *_IGnext ? *_IGcount : 0;

  00185	8b 41 1c	 mov	 eax, DWORD PTR [ecx+28]
  00188	8b 10		 mov	 edx, DWORD PTR [eax]
  0018a	85 d2		 test	 edx, edx
  0018c	74 0d		 je	 SHORT $LN159@Getloctxt
  0018e	8b 41 2c	 mov	 eax, DWORD PTR [ecx+44]

; 129  :         return 0 < _Gnavail() ? _Traits::to_int_type(*gptr()) : underflow();

  00191	83 38 00	 cmp	 DWORD PTR [eax], 0
  00194	7e 05		 jle	 SHORT $LN159@Getloctxt
; File C:\Program Files\Microsoft Visual Studio\2022\Community\VC\Tools\MSVC\14.44.35207\include\__msvc_string_view.hpp

; 518  :         return static_cast<unsigned char>(_Ch);

  00196	0f b6 02	 movzx	 eax, BYTE PTR [edx]
; File C:\Program Files\Microsoft Visual Studio\2022\Community\VC\Tools\MSVC\14.44.35207\include\streambuf

; 129  :         return 0 < _Gnavail() ? _Traits::to_int_type(*gptr()) : underflow();

  00199	eb 05		 jmp	 SHORT $LN160@Getloctxt
$LN159@Getloctxt:
  0019b	8b 01		 mov	 eax, DWORD PTR [ecx]
  0019d	ff 50 18	 call	 DWORD PTR [eax+24]
$LN160@Getloctxt:
; File C:\Program Files\Microsoft Visual Studio\2022\Community\VC\Tools\MSVC\14.44.35207\include\__msvc_string_view.hpp

; 522  :         return _Left == _Right;

  001a0	83 f8 ff	 cmp	 eax, -1
; File C:\Program Files\Microsoft Visual Studio\2022\Community\VC\Tools\MSVC\14.44.35207\include\iterator

; 470  :         if (!_Strbuf || traits_type::eq_int_type(traits_type::eof(), _Meta = _Strbuf->sgetc())) {

  001a3	74 0a		 je	 SHORT $LN292@Getloctxt

; 473  :             _Val = traits_type::to_char_type(_Meta);

  001a5	8b 4d c0	 mov	 ecx, DWORD PTR __Last$GSCopy$1$[ebp]
  001a8	88 41 05	 mov	 BYTE PTR [ecx+5], al
  001ab	8b c1		 mov	 eax, ecx
  001ad	eb 09		 jmp	 SHORT $LN154@Getloctxt
$LN292@Getloctxt:

; 470  :         if (!_Strbuf || traits_type::eq_int_type(traits_type::eof(), _Meta = _Strbuf->sgetc())) {

  001af	8b 45 c0	 mov	 eax, DWORD PTR __Last$GSCopy$1$[ebp]
$LN275@Getloctxt:

; 471  :             _Strbuf = nullptr;

  001b2	c7 00 00 00 00
	00		 mov	 DWORD PTR [eax], 0
$LN154@Getloctxt:

; 474  :         }
; 475  : 
; 476  :         _Got = true;

  001b8	c6 40 04 01	 mov	 BYTE PTR [eax+4], 1
$LN120@Getloctxt:

; 445  :         return (!_Strbuf && !_Right._Strbuf) || (_Strbuf && _Right._Strbuf);

  001bc	8b 0e		 mov	 ecx, DWORD PTR [esi]
  001be	8b 00		 mov	 eax, DWORD PTR [eax]
  001c0	85 c9		 test	 ecx, ecx
  001c2	75 14		 jne	 SHORT $LN282@Getloctxt
  001c4	85 c0		 test	 eax, eax
  001c6	75 14		 jne	 SHORT $LN123@Getloctxt
$LN21@Getloctxt:
; File C:\Program Files\Microsoft Visual Studio\2022\Community\VC\Tools\MSVC\14.44.35207\include\xstring

; 453  :         return _Myres > _Small_string_capacity;

  001c8	83 7d cc 0f	 cmp	 DWORD PTR __Str$2$[ebp], 15 ; 0000000fH

; 435  :         value_type* _Result = _Bx._Buf;

  001cc	8d 55 d8	 lea	 edx, DWORD PTR __Str$[ebp]

; 436  :         if (_Large_mode_engaged()) {

  001cf	0f 47 55 d0	 cmova	 edx, DWORD PTR __Ptr$1$[ebp]
; File C:\Program Files\Microsoft Visual Studio\2022\Community\VC\Tools\MSVC\14.44.35207\include\xlocale

; 3346 :             } else {

  001d3	e9 e1 00 00 00	 jmp	 $LN299@Getloctxt
$LN282@Getloctxt:
; File C:\Program Files\Microsoft Visual Studio\2022\Community\VC\Tools\MSVC\14.44.35207\include\iterator

; 445  :         return (!_Strbuf && !_Right._Strbuf) || (_Strbuf && _Right._Strbuf);

  001d8	85 c0		 test	 eax, eax
  001da	75 ec		 jne	 SHORT $LN21@Getloctxt
$LN123@Getloctxt:
; File C:\Program Files\Microsoft Visual Studio\2022\Community\VC\Tools\MSVC\14.44.35207\include\xlocale

; 3342 :                        || (_Matching == _Case_sensitive::_Yes

  001dc	80 7d 18 01	 cmp	 BYTE PTR __Matching$[ebp], 1
  001e0	8b 45 c4	 mov	 eax, DWORD PTR __Ptr$GSCopy$1$[ebp]
  001e3	8a 1c 38	 mov	 bl, BYTE PTR [eax+edi]
  001e6	75 48		 jne	 SHORT $LN25@Getloctxt
; File C:\Program Files\Microsoft Visual Studio\2022\Community\VC\Tools\MSVC\14.44.35207\include\iterator

; 406  :         if (!_Got) {

  001e8	80 7e 04 00	 cmp	 BYTE PTR [esi+4], 0
  001ec	75 3b		 jne	 SHORT $LN285@Getloctxt

; 470  :         if (!_Strbuf || traits_type::eq_int_type(traits_type::eof(), _Meta = _Strbuf->sgetc())) {

  001ee	85 c9		 test	 ecx, ecx
  001f0	74 2d		 je	 SHORT $LN194@Getloctxt
; File C:\Program Files\Microsoft Visual Studio\2022\Community\VC\Tools\MSVC\14.44.35207\include\streambuf

; 232  :         return *_IGnext ? *_IGcount : 0;

  001f2	8b 41 1c	 mov	 eax, DWORD PTR [ecx+28]
  001f5	8b 10		 mov	 edx, DWORD PTR [eax]
  001f7	85 d2		 test	 edx, edx
  001f9	74 0d		 je	 SHORT $LN198@Getloctxt
  001fb	8b 41 2c	 mov	 eax, DWORD PTR [ecx+44]

; 129  :         return 0 < _Gnavail() ? _Traits::to_int_type(*gptr()) : underflow();

  001fe	83 38 00	 cmp	 DWORD PTR [eax], 0
  00201	7e 05		 jle	 SHORT $LN198@Getloctxt
; File C:\Program Files\Microsoft Visual Studio\2022\Community\VC\Tools\MSVC\14.44.35207\include\__msvc_string_view.hpp

; 518  :         return static_cast<unsigned char>(_Ch);

  00203	0f b6 02	 movzx	 eax, BYTE PTR [edx]
; File C:\Program Files\Microsoft Visual Studio\2022\Community\VC\Tools\MSVC\14.44.35207\include\streambuf

; 129  :         return 0 < _Gnavail() ? _Traits::to_int_type(*gptr()) : underflow();

  00206	eb 05		 jmp	 SHORT $LN199@Getloctxt
$LN198@Getloctxt:
  00208	8b 01		 mov	 eax, DWORD PTR [ecx]
  0020a	ff 50 18	 call	 DWORD PTR [eax+24]
$LN199@Getloctxt:
; File C:\Program Files\Microsoft Visual Studio\2022\Community\VC\Tools\MSVC\14.44.35207\include\__msvc_string_view.hpp

; 522  :         return _Left == _Right;

  0020d	83 f8 ff	 cmp	 eax, -1
; File C:\Program Files\Microsoft Visual Studio\2022\Community\VC\Tools\MSVC\14.44.35207\include\iterator

; 470  :         if (!_Strbuf || traits_type::eq_int_type(traits_type::eof(), _Meta = _Strbuf->sgetc())) {

  00210	74 0d		 je	 SHORT $LN194@Getloctxt
; File C:\Program Files\Microsoft Visual Studio\2022\Community\VC\Tools\MSVC\14.44.35207\include\xlocale

; 3342 :                        || (_Matching == _Case_sensitive::_Yes

  00212	33 c9		 xor	 ecx, ecx
; File C:\Program Files\Microsoft Visual Studio\2022\Community\VC\Tools\MSVC\14.44.35207\include\iterator

; 473  :             _Val = traits_type::to_char_type(_Meta);

  00214	88 46 05	 mov	 BYTE PTR [esi+5], al

; 474  :         }
; 475  : 
; 476  :         _Got = true;

  00217	c6 46 04 01	 mov	 BYTE PTR [esi+4], 1
; File C:\Program Files\Microsoft Visual Studio\2022\Community\VC\Tools\MSVC\14.44.35207\include\xlocale

; 3342 :                        || (_Matching == _Case_sensitive::_Yes

  0021b	3a d8		 cmp	 bl, al
  0021d	eb 72		 jmp	 SHORT $LN298@Getloctxt
$LN194@Getloctxt:
; File C:\Program Files\Microsoft Visual Studio\2022\Community\VC\Tools\MSVC\14.44.35207\include\iterator

; 471  :             _Strbuf = nullptr;

  0021f	c7 06 00 00 00
	00		 mov	 DWORD PTR [esi], 0

; 474  :         }
; 475  : 
; 476  :         _Got = true;

  00225	c6 46 04 01	 mov	 BYTE PTR [esi+4], 1
$LN285@Getloctxt:
; File C:\Program Files\Microsoft Visual Studio\2022\Community\VC\Tools\MSVC\14.44.35207\include\xlocale

; 3342 :                        || (_Matching == _Case_sensitive::_Yes

  00229	33 c9		 xor	 ecx, ecx
  0022b	3a 5e 05	 cmp	 bl, BYTE PTR [esi+5]
  0022e	eb 61		 jmp	 SHORT $LN298@Getloctxt
$LN25@Getloctxt:

; 2737 :         return do_tolower(_Ch);

  00230	8b 4d b0	 mov	 ecx, DWORD PTR __CType$1$[ebp]
  00233	53		 push	 ebx
  00234	8b 01		 mov	 eax, DWORD PTR [ecx]
  00236	8b 40 10	 mov	 eax, DWORD PTR [eax+16]
  00239	ff d0		 call	 eax
; File C:\Program Files\Microsoft Visual Studio\2022\Community\VC\Tools\MSVC\14.44.35207\include\iterator

; 406  :         if (!_Got) {

  0023b	80 7e 04 00	 cmp	 BYTE PTR [esi+4], 0
; File C:\Program Files\Microsoft Visual Studio\2022\Community\VC\Tools\MSVC\14.44.35207\include\xlocale

; 2737 :         return do_tolower(_Ch);

  0023f	8a d8		 mov	 bl, al
; File C:\Program Files\Microsoft Visual Studio\2022\Community\VC\Tools\MSVC\14.44.35207\include\iterator

; 406  :         if (!_Got) {

  00241	75 37		 jne	 SHORT $LN286@Getloctxt

; 470  :         if (!_Strbuf || traits_type::eq_int_type(traits_type::eof(), _Meta = _Strbuf->sgetc())) {

  00243	8b 16		 mov	 edx, DWORD PTR [esi]
  00245	85 d2		 test	 edx, edx
  00247	74 27		 je	 SHORT $LN225@Getloctxt
; File C:\Program Files\Microsoft Visual Studio\2022\Community\VC\Tools\MSVC\14.44.35207\include\streambuf

; 232  :         return *_IGnext ? *_IGcount : 0;

  00249	8b 4a 1c	 mov	 ecx, DWORD PTR [edx+28]
  0024c	8b 09		 mov	 ecx, DWORD PTR [ecx]
  0024e	85 c9		 test	 ecx, ecx
  00250	74 0d		 je	 SHORT $LN229@Getloctxt
  00252	8b 42 2c	 mov	 eax, DWORD PTR [edx+44]

; 129  :         return 0 < _Gnavail() ? _Traits::to_int_type(*gptr()) : underflow();

  00255	83 38 00	 cmp	 DWORD PTR [eax], 0
  00258	7e 05		 jle	 SHORT $LN229@Getloctxt
; File C:\Program Files\Microsoft Visual Studio\2022\Community\VC\Tools\MSVC\14.44.35207\include\__msvc_string_view.hpp

; 518  :         return static_cast<unsigned char>(_Ch);

  0025a	0f b6 01	 movzx	 eax, BYTE PTR [ecx]
; File C:\Program Files\Microsoft Visual Studio\2022\Community\VC\Tools\MSVC\14.44.35207\include\streambuf

; 129  :         return 0 < _Gnavail() ? _Traits::to_int_type(*gptr()) : underflow();

  0025d	eb 07		 jmp	 SHORT $LN230@Getloctxt
$LN229@Getloctxt:
  0025f	8b 02		 mov	 eax, DWORD PTR [edx]
  00261	8b ca		 mov	 ecx, edx
  00263	ff 50 18	 call	 DWORD PTR [eax+24]
$LN230@Getloctxt:
; File C:\Program Files\Microsoft Visual Studio\2022\Community\VC\Tools\MSVC\14.44.35207\include\__msvc_string_view.hpp

; 522  :         return _Left == _Right;

  00266	83 f8 ff	 cmp	 eax, -1
; File C:\Program Files\Microsoft Visual Studio\2022\Community\VC\Tools\MSVC\14.44.35207\include\iterator

; 470  :         if (!_Strbuf || traits_type::eq_int_type(traits_type::eof(), _Meta = _Strbuf->sgetc())) {

  00269	74 05		 je	 SHORT $LN225@Getloctxt

; 473  :             _Val = traits_type::to_char_type(_Meta);

  0026b	88 46 05	 mov	 BYTE PTR [esi+5], al
  0026e	eb 06		 jmp	 SHORT $LN224@Getloctxt
$LN225@Getloctxt:

; 471  :             _Strbuf = nullptr;

  00270	c7 06 00 00 00
	00		 mov	 DWORD PTR [esi], 0
$LN224@Getloctxt:

; 474  :         }
; 475  : 
; 476  :         _Got = true;

  00276	c6 46 04 01	 mov	 BYTE PTR [esi+4], 1
$LN286@Getloctxt:
; File C:\Program Files\Microsoft Visual Studio\2022\Community\VC\Tools\MSVC\14.44.35207\include\xlocale

; 2737 :         return do_tolower(_Ch);

  0027a	8b 4d b0	 mov	 ecx, DWORD PTR __CType$1$[ebp]
; File C:\Program Files\Microsoft Visual Studio\2022\Community\VC\Tools\MSVC\14.44.35207\include\iterator

; 414  :         return _Val;

  0027d	8a 46 05	 mov	 al, BYTE PTR [esi+5]
  00280	88 45 ac	 mov	 BYTE PTR $T3[ebp], al
; File C:\Program Files\Microsoft Visual Studio\2022\Community\VC\Tools\MSVC\14.44.35207\include\xlocale

; 2737 :         return do_tolower(_Ch);

  00283	ff 75 ac	 push	 DWORD PTR $T3[ebp]
  00286	8b 01		 mov	 eax, DWORD PTR [ecx]
  00288	8b 40 10	 mov	 eax, DWORD PTR [eax+16]
  0028b	ff d0		 call	 eax

; 3342 :                        || (_Matching == _Case_sensitive::_Yes

  0028d	33 c9		 xor	 ecx, ecx
  0028f	3a d8		 cmp	 bl, al
$LN298@Getloctxt:
  00291	8b 5d bc	 mov	 ebx, DWORD PTR __Field$1$[ebp]
  00294	0f 95 c1	 setne	 cl
  00297	85 c9		 test	 ecx, ecx
  00299	0f 85 29 ff ff
	ff		 jne	 $LN21@Getloctxt

; 3347 :                 _Prefix = true; // still a valid prefix

  0029f	8b 55 c4	 mov	 edx, DWORD PTR __Ptr$GSCopy$1$[ebp]
  002a2	b0 01		 mov	 al, 1
  002a4	8b 4d d0	 mov	 ecx, DWORD PTR __Ptr$1$[ebp]
  002a7	88 45 d7	 mov	 BYTE PTR __Prefix$1$[ebp], al
  002aa	eb 32		 jmp	 SHORT $LN8@Getloctxt
$LN18@Getloctxt:
; File C:\Program Files\Microsoft Visual Studio\2022\Community\VC\Tools\MSVC\14.44.35207\include\xstring

; 453  :         return _Myres > _Small_string_capacity;

  002ac	83 7d cc 0f	 cmp	 DWORD PTR __Str$2$[ebp], 15 ; 0000000fH

; 435  :         value_type* _Result = _Bx._Buf;

  002b0	8d 55 d8	 lea	 edx, DWORD PTR __Str$[ebp]
; File C:\Program Files\Microsoft Visual Studio\2022\Community\VC\Tools\MSVC\14.44.35207\include\xlocale

; 3340 :                 _Ans         = static_cast<int>(_Field); // save answer

  002b3	89 5d b4	 mov	 DWORD PTR __Ans$1$[ebp], ebx
; File C:\Program Files\Microsoft Visual Studio\2022\Community\VC\Tools\MSVC\14.44.35207\include\xstring

; 436  :         if (_Large_mode_engaged()) {

  002b6	0f 47 d1	 cmova	 edx, ecx
$LN299@Getloctxt:
; File C:\Program Files\Microsoft Visual Studio\2022\Community\VC\Tools\MSVC\14.44.35207\include\xlocale

; 3330 :         for (; _Field < _Numfields; ++_Field) { // test element at _Column in field _Field

  002b9	8b 45 c8	 mov	 eax, DWORD PTR __Column$1$[ebp]
  002bc	b9 7f 00 00 00	 mov	 ecx, 127		; 0000007fH
  002c1	3b c1		 cmp	 eax, ecx
  002c3	0f b6 c0	 movzx	 eax, al
  002c6	0f 42 c8	 cmovb	 ecx, eax
  002c9	88 0c 1a	 mov	 BYTE PTR [edx+ebx], cl
  002cc	8b 4d d8	 mov	 ecx, DWORD PTR __Str$[ebp]
  002cf	8b 45 ec	 mov	 eax, DWORD PTR __Str$[ebp+20]
  002d2	8b 55 c4	 mov	 edx, DWORD PTR __Ptr$GSCopy$1$[ebp]
  002d5	89 4d d0	 mov	 DWORD PTR __Ptr$1$[ebp], ecx
  002d8	89 45 cc	 mov	 DWORD PTR __Str$2$[ebp], eax
$LN297@Getloctxt:
  002db	8a 45 d7	 mov	 al, BYTE PTR __Prefix$1$[ebp]
$LN8@Getloctxt:
  002de	43		 inc	 ebx
  002df	89 5d bc	 mov	 DWORD PTR __Field$1$[ebp], ebx
  002e2	3b 5d b8	 cmp	 ebx, DWORD PTR __Numfields$2$[ebp]
  002e5	0f 82 f7 fd ff
	ff		 jb	 $LL10@Getloctxt

; 3348 :             }
; 3349 :         }
; 3350 : 
; 3351 :         if (!_Prefix || _First == _Last) {

  002eb	84 c0		 test	 al, al
  002ed	74 75		 je	 SHORT $LN294@Getloctxt
  002ef	ff 75 c0	 push	 DWORD PTR __Last$GSCopy$1$[ebp]
  002f2	56		 push	 esi
  002f3	e8 00 00 00 00	 call	 ??$?8DU?$char_traits@D@std@@@std@@YA_NABV?$istreambuf_iterator@DU?$char_traits@D@std@@@0@0@Z ; std::operator==<char,std::char_traits<char> >
  002f8	83 c4 08	 add	 esp, 8
  002fb	84 c0		 test	 al, al
  002fd	75 65		 jne	 SHORT $LN294@Getloctxt

; 3325 :     for (size_t _Column = 1;; ++_Column, (void) ++_First, _Ans = -1) { // test each element against all viable fields

  002ff	ff 45 c8	 inc	 DWORD PTR __Column$1$[ebp]
; File C:\Program Files\Microsoft Visual Studio\2022\Community\VC\Tools\MSVC\14.44.35207\include\iterator

; 460  :         if (!_Strbuf || traits_type::eq_int_type(traits_type::eof(), _Strbuf->sbumpc())) {

  00302	8b 0e		 mov	 ecx, DWORD PTR [esi]
  00304	85 c9		 test	 ecx, ecx
  00306	74 31		 je	 SHORT $LN96@Getloctxt
; File C:\Program Files\Microsoft Visual Studio\2022\Community\VC\Tools\MSVC\14.44.35207\include\streambuf

; 232  :         return *_IGnext ? *_IGcount : 0;

  00308	8b 41 1c	 mov	 eax, DWORD PTR [ecx+28]
  0030b	83 38 00	 cmp	 DWORD PTR [eax], 0
  0030e	74 1b		 je	 SHORT $LN100@Getloctxt
  00310	8b 51 2c	 mov	 edx, DWORD PTR [ecx+44]
  00313	8b 02		 mov	 eax, DWORD PTR [edx]

; 125  :         return 0 < _Gnavail() ? _Traits::to_int_type(*_Gninc()) : uflow();

  00315	85 c0		 test	 eax, eax
  00317	7e 12		 jle	 SHORT $LN100@Getloctxt

; 222  :         --*_IGcount;

  00319	48		 dec	 eax
  0031a	89 02		 mov	 DWORD PTR [edx], eax

; 223  :         return (*_IGnext)++;

  0031c	8b 49 1c	 mov	 ecx, DWORD PTR [ecx+28]
  0031f	8b 11		 mov	 edx, DWORD PTR [ecx]
  00321	8d 42 01	 lea	 eax, DWORD PTR [edx+1]
  00324	89 01		 mov	 DWORD PTR [ecx], eax
; File C:\Program Files\Microsoft Visual Studio\2022\Community\VC\Tools\MSVC\14.44.35207\include\__msvc_string_view.hpp

; 518  :         return static_cast<unsigned char>(_Ch);

  00326	0f b6 02	 movzx	 eax, BYTE PTR [edx]
; File C:\Program Files\Microsoft Visual Studio\2022\Community\VC\Tools\MSVC\14.44.35207\include\streambuf

; 125  :         return 0 < _Gnavail() ? _Traits::to_int_type(*_Gninc()) : uflow();

  00329	eb 05		 jmp	 SHORT $LN101@Getloctxt
$LN100@Getloctxt:
  0032b	8b 01		 mov	 eax, DWORD PTR [ecx]
  0032d	ff 50 1c	 call	 DWORD PTR [eax+28]
$LN101@Getloctxt:
; File C:\Program Files\Microsoft Visual Studio\2022\Community\VC\Tools\MSVC\14.44.35207\include\__msvc_string_view.hpp

; 522  :         return _Left == _Right;

  00330	83 f8 ff	 cmp	 eax, -1
; File C:\Program Files\Microsoft Visual Studio\2022\Community\VC\Tools\MSVC\14.44.35207\include\iterator

; 460  :         if (!_Strbuf || traits_type::eq_int_type(traits_type::eof(), _Strbuf->sbumpc())) {

  00333	74 04		 je	 SHORT $LN96@Getloctxt

; 463  :         } else {
; 464  :             _Got = false;

  00335	32 c0		 xor	 al, al
  00337	eb 08		 jmp	 SHORT $LN95@Getloctxt
$LN96@Getloctxt:

; 461  :             _Strbuf = nullptr;

  00339	c7 06 00 00 00
	00		 mov	 DWORD PTR [esi], 0

; 462  :             _Got    = true;

  0033f	b0 01		 mov	 al, 1
$LN95@Getloctxt:
; File C:\Program Files\Microsoft Visual Studio\2022\Community\VC\Tools\MSVC\14.44.35207\include\xlocale

